zc:_glClearStencil
EXh:_UInt16_System_IConvertible_ToChar_m2096055221_AdjustorThunk
N_f:_MaskableGraphic_OnCanvasHierarchyChanged_m1780820310
Llh:_Array_TrueForAll_TisRuntimeObject_m1084992726_gshared
gFe:__ZL95CanvasRenderer_t2598313366_CustomAttributesCacheGenerator_CanvasRenderer_SetMaterial_m824577244P21CustomAttributesCache
$ek:__ZN6il2cpp2vm5Array13GetByteLengthEP11Il2CppArray
DNi:_Array_InternalArray__set_Item_TisDateTime_t3738529785_m1331437427_gshared
pqj:_KeyBuilder_get_Rng_m3373220441
Rud:__ZN15DownloadHandler7OnAbortEv
OLi:__Z37RuntimeInvoker_Enumerator_t1666852615PFvvEPK10MethodInfoPvPS4_
lre:__ZL51AIUpdate_t2336814084_CustomAttributesCacheGeneratorP21CustomAttributesCache
jja:__Z30GetIntermediateRendererManagerv
Hci:_U3CCreateWhereIteratorU3Ec__Iterator1D_1_System_Collections_Generic_IEnumeratorU3CTSourceU3E_get_Current_m1909387290_gshared
pCa:__Z21SourceMipLevelForBlitiiii
jHa:__Z23SetSpriteMeshIndexCountP14SharedMeshDataj
SUh:_TimeSpan_get_Hours_m550761902
pCe:__ZL72GUISkin_t1244372282_CustomAttributesCacheGenerator_m_verticalSliderThumbP21CustomAttributesCache
P3b:__ZN9ShaderLab9SubShader15FindNamedPassesERKN4core12basic_stringIcNS1_20StringStorageDefaultIcEEEER13dynamic_arrayIPNS_4PassELj0EE
zeg:_Capture_get_Index_m745081289
kve:__ZL63PlayableOutputHandle_t4208053793_CustomAttributesCacheGeneratorP21CustomAttributesCache
mL:__ZN11UnityEngine15CloudWebService26CloudServiceEventWithParam12ToJsonStringER9JSONWrite
OQe:_UnmanagedMemoryStream_Write_m930787521
zqd:__ZN11UnityEngine7Connect14AppUpdateEventD0Ev
acc:__Z59Register_UnityEngine_PlayerConnectionInternal_DisconnectAllv
K3d:__ZL66RuntimeArray_CustomAttributesCacheGenerator_Array_Sort_m3287581440P21CustomAttributesCache
Erj:_AnalyticsEventTracker_SendEvent_m1365958832
YO:__ZdlPv
ns:__ZN11UnityEngine9Animation28GenericAnimationBindingCacheD2Ev
oSh:_UTF8Encoding_GetHashCode_m641510078
Wgj:_X509Store_LoadCrl_m1881903843
cQi:_Array_Sort_TisUICharInfo_t75501106_TisUICharInfo_t75501106_m722747892_gshared
kQg:_CaseInsensitiveComparer__ctor_m2101975011
coi:__Z67RuntimeInvoker_Byte_t1134296376_Int32_t2950945753_Int32_t2950945753PFvvEPK10MethodInfoPvPS4_
Hmi:__Z53RuntimeInvoker_UInt32_t2560061978_Decimal_t2948259380PFvvEPK10MethodInfoPvPS4_
RAj:__ZL25UnresolvedVirtualCall_242P12Il2CppObjecti22OrderBlock_t1585977831PK10MethodInfo
MVb:__Z18RestoreRenderStateR20CameraRenderOldStateR17ShaderPassContext
akb:__Z18Transfer_BlittableI18StreamedBinaryReadILb1EELb1E5RectTIfEEvRK29SerializationCommandArgumentsR31RuntimeSerializationCommandInfo
Pfb:__Z18Transfer_BlittableI24GenerateTypeTreeTransferLb0E11ColorRGBA32EvRK29SerializationCommandArgumentsR31RuntimeSerializationCommandInfo
Uob:__Z25scripting_class_from_name17ScriptingImagePtrPKcS1_
gNi:_Array_InternalArray__Insert_TisHitInfo_t3229609740_m2020610735_gshared
TMi:_Array_InternalArray__Insert_TisSingle_t1397266774_m3161726127_gshared
K$j:__ZN14dense_hash_mapI10KeyWrapperINSt3__24pairIPK12PropertyInfoP11Il2CppClassEEEj17ReflectionMapHashIS8_ENS9_14EqualsComparerINS1_8equal_toIS8_EEEENS1_9allocatorINS2_IKS9_jEEEEE15set_deleted_keyERSH_
Mqb:__Z29scripting_class_enum_basetype17ScriptingClassPtr
M0i:_List_1_Clear_m3097985365_gshared
Wag:_OidCollection_get_SyncRoot_m3531934854
pwc:__ZN6IDList10BeginOnGUIEv
kia:__ZNK12BaseRenderer18GetRenderNodeCountEv
aLc:__ZN16PhysicsManager2D7RaycastERK3RayfiR12RaycastHit2D
Auj:__ZN30GenericInterfaceActionInvoker1IP24SingleU5BU5D_t1444911251E6InvokeEPK10MethodInfoP12Il2CppObjectS1_
CNd:_PropertyBuilder_get_CanWrite_m2657562188
i5:__ZL43__ManagedRegistrationHelperFunction_TexturePv
bdf:_InternalEnumerator_1_get_Current_m1477715453_gshared
vKh:_Enumerator__ctor_m2827156589_AdjustorThunk
DZa:__ZNK20LocalFileSystemPosix6ParentERK13FileEntryDataRN4core12basic_stringIcNS3_20StringStorageDefaultIcEEEE
qpe:__ZL118TouchScreenKeyboard_t731888065_CustomAttributesCacheGenerator_TouchScreenKeyboard_Open_m3609399077____textPlaceholder6P21CustomAttributesCache
A7i:_Collection_1_System_Collections_IList_Remove_m1476284619_gshared
Hsh:_ContractionComparer__ctor_m3439667810
_Se:_MonoType_IsPrimitiveImpl_m2401722705
ltg:_SHA1CryptoServiceProvider__ctor_m4195188793
w8:__ZN9Scripting11UnityEngine9Profiling8Recorder12CleanupProxyEv
bje:__ZL64MissingFieldException_t1989070983_CustomAttributesCacheGeneratorP21CustomAttributesCache
aob:__ZN18StreamedBinaryReadILb0EE21TransferSTLStyleArrayI13dynamic_arrayI11ColorRGBA32Lj0EEEEvRT_17TransferMetaFlags
eJd:_Dropdown_Hide_m504034854
cDa:__ZN9Texture2D25CreateScaledAndPaddedDataEPP17SharedTextureDataS2_
Mkh:_Array_InternalArray__ICollection_Remove_TisLink_t3209266973_m897088622_gshared
bJf:_Vector2_get_up_m2647420593
BAb:__ZN7ApiGLES17CopyBufferSubDataEjjlll
Jrh:_Array_InternalArray__ICollection_CopyTo_TisUInt64_t4134040092_m691431926_gshared
f7i:__ZN23InterfaceActionInvoker2Ii22OrderBlock_t1585977831E6InvokeEjP11Il2CppClassP12Il2CppObjectiS0_
Z8f:_IPAddress_ToString_m1181734207
nQh:_StringBuilder_Append_m1965104174
qyc:__ZN5Unity9rapidjson15GenericDocumentINS0_4UTF8IcEE13JSONAllocatorS4_E11ParseStreamILj1ES3_NS0_25GenericInsituStringStreamIS3_EEEERS5_RT1_
$Jj:__ZNSt3__26vectorIPK10Il2CppTypeNS_9allocatorIS3_EEE7reserveEj
sEh:_EqualityComparer_1__cctor_m3766928733_gshared
wgi:_UnityAction_1_Invoke_m610765085_gshared
lca:__ZN9Scripting5Unity11Collections8LowLevel6Unsafe29NativeSetThreadIndexAttribute9InitProxyEv
TIg:_Array_GetValue_m116098292
ohg:_Kernel_modInverse_m652700340
Jya:__ZNK14Texture2DArray26CanReuploadDataToGfxDeviceEv
_Ee:__ZL57CanvasRenderer_t2598313366_CustomAttributesCacheGeneratorP21CustomAttributesCache
Iga:__ZN17GlobalGameManager23VirtualRedirectTransferER17RemapPPtrTransfer
jcd:_sfnt_stream_close
Ilb:__ZN18StreamedBinaryReadILb1EE8TransferI13dynamic_arrayIsLj0EEEEvRT_PKc17TransferMetaFlags
Fyj:__ZL25UnresolvedVirtualCall_122P12Il2CppObject29CullingGroupEvent_t1722745023PK10MethodInfo
xxc:__ZN5IMGUI18RepaintModalWindowER8GUIState
p6f:_HybridDictionary_get_IsSynchronized_m2987560362
Wyj:__ZL25UnresolvedVirtualCall_139P12Il2CppObject17Color_t2555686324PK10MethodInfo
ema:__ZNK15dense_hashtableINSt3__24pairIKN9ShaderLab7Program23ShaderKeywordSetAndHashEPKNS2_10SubProgramEEES4_NS3_24ShaderKeywordHashFunctorEN14dense_hash_mapIS4_S8_SA_NS0_8equal_toIS4_EE13stl_allocatorIS9_L18MemLabelIdentifier67ELi16EEE9SelectKeyESD_SG_E23find_position_with_hashERS5_j
LTg:_CompareInfo_Finalize_m404687489
kpa:__ZN31CanvasBatchIntermediateRenderer15AddAsRenderNodeER15RenderNodeQueueRK20DeprecatedSourceData
rSh:_UTF8Decoder_GetChars_m1236346907
ACf:_Quaternion_GetHashCode_m2636680144_AdjustorThunk
iBe:__ZL99AudioSource_t3935305588_CustomAttributesCacheGenerator_AudioSource_t3935305588____clip_PropertyInfoP21CustomAttributesCache
Nik:__ZN6il2cpp8metadata13GenericMethod9GetMethodEPK19Il2CppGenericMethod
Yq:__ZNSt3__26vectorIN4core12basic_stringIcNS1_20StringStorageDefaultIcEEEENS_9allocatorIS5_EEE7reserveEj
zXe:_Default_SelectProperty_m1220817815
HLf:_RemotingConfiguration_IsRemotelyActivatedClientType_m4117048589
aIf:_Transform_TransformPoint_m226827784
jji:_ListPool_1_Get_m738675669_gshared
Awb:__ZN13GfxDeviceGLES11SetViewportERK5RectTIiE
Sd:_emscripten_glDepthRange
ubj:_SslStreamBase_BeginNegotiateHandshake_m4180435790
C1c:__ZN9Scripting11UnityEngine10UILineInfo12CleanupProxyEv
dYb:__ZNSt3__26vectorINS_4pairIN4core12basic_stringIcNS2_20StringStorageDefaultIcEEEES6_EE13stl_allocatorIS7_L18MemLabelIdentifier38ELi16EEE12__move_rangeEPS7_SC_SC_
o0b:__Z14resize_trimmedINSt3__26vectorIN9ShaderLab20SerializedSubProgram12UAVParameterENS0_9allocatorIS4_EEEEEvRT_j
wyc:__ZN5Unity9rapidjson13GenericReaderINS0_4UTF8IcEES3_13JSONAllocatorE11ParseObjectILj1ENS0_25GenericInsituStringStreamIS3_EENS0_15GenericDocumentIS3_S4_S4_EEEEvRT0_RT1_
EDd:_StandaloneInputModule_GetRawMoveVector_m2737091079
IMe:__ZL62Selectable_t3250028441_CustomAttributesCacheGenerator_m_ColorsP21CustomAttributesCache
r8g:_Convert_ToDateTime_m2616935982
Nyb:__ZThn10632_N13GfxDeviceGLES22SetScissorRectPlatformERK5RectTIiE
ccj:_SslStreamBase_EndWrite_m4073224031
cX:__ZNSt3__218__insertion_sort_3IRNS_6__lessI14ObjectLoadDataS2_EEPS2_EEvT0_S6_T_
qBe:__ZL92Event_t2956885303_CustomAttributesCacheGenerator_Event_Internal_GetMousePosition_m1101229675P21CustomAttributesCache
aWi:_List_1_System_Collections_ICollection_get_SyncRoot_m1244917400_gshared
E5:__ZL50__ManagedRegistrationHelperFunction_PostLateUpdatePv
SBa:__ZN4crndL20crnd_default_reallocEPvjPjbS0_
gKi:__Z54RuntimeInvoker_CustomAttributeNamedArgument_t287865710PFvvEPK10MethodInfoPvPS4_
ewe:__ZL122SupportedRenderingFeatures_t353898663_CustomAttributesCacheGenerator_U3CrendererSupportsReflectionProbesU3Ek__BackingFieldP21CustomAttributesCache
$_j:__ZN15dense_hashtableINSt3__24pairIK10KeyWrapperIPK22Il2CppGenericParameterEPK24MonoGenericParameterInfoEES6_N6il2cpp5utils11PointerHashIS4_EEN14dense_hash_mapIS6_SA_SF_NS6_14EqualsComparerINS0_8equal_toIS5_EEEENS0_9allocatorISB_EEE9SelectKeyESK_SM_E13set_empty_keyERKSB_
rIa:__ZN18SpriteAtlasManager19AddRequestingSpriteE4PPtrI6SpriteE
Kdi:_Predicate_1_EndInvoke_m3987519925_gshared
HCe:__ZL102GUIStyle_t3956901511_CustomAttributesCacheGenerator_GUIStyle_INTERNAL_CALL_GetRectOffsetPtr_m152975056P21CustomAttributesCache
Jrd:__ZNSt3__26__treeINS_12__value_typeIN4core12basic_stringIcNS2_20StringStorageDefaultIcEEEE14CallbackArray3IRKS6_R8JSONReadbEEENS_19__map_value_compareIS6_SD_NS_4lessIS6_EELb1EEE13stl_allocatorISD_L18MemLabelIdentifier6ELi16EEE25__emplace_unique_key_argsIS6_JNS_4pairIS6_SC_EEEEENSN_INS_15__tree_iteratorISD_PNS_11__tree_nodeISD_PvEEiEEbEERKT_DpOT0_
qFd:_CanvasScaler_get_defaultSpriteDPI_m871626936
RUb:__ZN23ScriptableRenderContextC2Ev
VLd:_GridLayoutGroup_get_spacing_m2409263614
Cja:__ZN4PPtrI13RenderTextureE8TransferI18StreamedBinaryReadILb0EEEEvRT_
uOh:_List_1_CheckIndex_m581273900_gshared
_dd:_UNITY_FT_Stream_GetChar
UJf:_WaitForSeconds_t1699091251_marshal_pinvoke
zji:_ObjectPool_1_get_countAll_m819305395_gshared
Bkb:__Z18Transfer_BlittableI18StreamedBinaryReadILb1EELb1EdEvRK29SerializationCommandArgumentsR31RuntimeSerializationCommandInfo
wYi:_List_1_ToArray_m190175978_gshared
Tqb:__Z26BuildSerializationCacheFor17ScriptingClassPtrRb
Jzd:_EventSystem_get_firstSelectedGameObject_m1576206896
wCb:__ZN7ApiGLES15BlitFramebufferEN2gl6HandleILNS0_10ObjectTypeE9EEENS0_15FramebufferReadES3_S3_iiiiiiiiNS0_15FramebufferTypeE
Z1j:_il2cpp_class_get_name
nwi:__Z112RuntimeInvoker_RuntimeObject_RuntimeObject_RuntimeObject_RuntimeObject_RuntimeObject_RuntimeObject_RuntimeObjectPFvvEPK10MethodInfoPvPS4_
qcf:_InternalEnumerator_1_System_Collections_IEnumerator_get_Current_m3553395619_AdjustorThunk
l6d:__ZL70AssemblyVersionCompatibility_t766556580_CustomAttributesCacheGeneratorP21CustomAttributesCache
Eue:__ZL60ReadOnlyAttribute_t3518714744_CustomAttributesCacheGeneratorP21CustomAttributesCache
KIg:_Array_SetValue_m3998268557
REc:__ZN8JSONRead8TransferI8Vector4fEEvRT_PKc17TransferMetaFlagsb
nGd:_ColorBlock_set_highlightedColor_m2089444414_AdjustorThunk
gGi:__Z59RuntimeInvoker_Boolean_t97287965_X509ChainStatus_t133602714PFvvEPK10MethodInfoPvPS4_
DEf:_RectTransform_INTERNAL_set_anchoredPosition_m939517950
mpg:_Context_EndSwitchingSecurityParameters_m4148956166
j9c:_otv_PairPos_validate
fge:__ZL63ThreadStateException_t3003788475_CustomAttributesCacheGeneratorP21CustomAttributesCache
RTj:__ZN6il2cpp6icalls8mscorlib6SystemL8IsStaticEPK12PropertyInfo
Yrb:__Z9InitInputv
W_j:__ZN30dense_hashtable_const_iteratorINSt3__24pairIK10KeyWrapperIPK22Il2CppGenericParameterEPK24MonoGenericParameterInfoEES6_N6il2cpp5utils11PointerHashIS4_EEN14dense_hash_mapIS6_SA_SF_NS6_14EqualsComparerINS0_8equal_toIS5_EEEENS0_9allocatorISB_EEE9SelectKeyESK_SM_E30advance_past_empty_and_deletedEv
dbd:_UNITY_tt_face_build_cmaps
gXj:__ZN6il2cpp2gc19AppendOnlyGCHashMapINSt3__24pairIPK10MethodInfoP11Il2CppClassEEP22Il2CppReflectionMethod17ReflectionMapHashIS9_ENS2_8equal_toIS9_EEE3AddERKS9_SB_
C1a:__ZN16MemoryFileSystem6DeleteER13FileEntryDatab
Yqi:__Z81RuntimeInvoker_Void_t1185182177_RuntimeObject_Int64_t3736567304_Int32_t2950945753PFvvEPK10MethodInfoPvPS4_
FPh:_List_1_set_Item_m1979164443_gshared
Yph:_Array_InternalArray__ICollection_Add_TisLink_t3209266973_m77922316_gshared
_ya:__ZL21BlitScaleStbImageImplRK14ImageReferenceRS_NS_10ColorSpaceE
ZKg:_Boolean_System_IConvertible_ToUInt16_m3465173538_AdjustorThunk
Us:__ZL48__ManagedRegistrationHelperFunction_SkeletonBonePv
oBj:__ZL25UnresolvedVirtualCall_267P12Il2CppObjectiiPK10MethodInfo
FVf:_InputField_get_keyboardType_m1248105267
Fbb:__Z29Transfer_Blittable_ArrayFieldI14SafeBinaryReadyEvRT_R9ArrayInfoRK23StaticTransferFieldInfo
hxi:__Z52RuntimeInvoker_Void_t1185182177_Interval_t1802865632PFvvEPK10MethodInfoPvPS4_
vhj:_Match__ctor_m2425511580
Yxh:_KeyPairPersistence_Remove_m1876145547
k7d:__ZL63FileNotFoundException_t225391025_CustomAttributesCacheGeneratorP21CustomAttributesCache
nc:invoke_vifffii
onb:__Z35Transfer_Blittable_FixedBufferFieldI18StreamedBinaryReadILb0EEaEvRK29SerializationCommandArgumentsR31RuntimeSerializationCommandInfo
W$a:__ZNK25MultiBlocksMemoryFileData5CloneEv
$Jg:_AsyncCallback_BeginInvoke_m2710486612
xok:_GC_add_ext_descriptor
xVj:__ZNK15dense_hashtableINSt3__24pairIK10KeyWrapperINS1_IPK14Il2CppAssemblyP11Il2CppClassEEEjEES9_17ReflectionMapHashIS8_EN14dense_hash_mapIS9_jSD_NS9_14EqualsComparerINS0_8equal_toIS8_EEEENS0_9allocatorISB_EEE9SelectKeyESI_SK_E23find_position_with_hashERSA_j
$Ri:_LayoutGroup_SetProperty_TisSingle_t1397266774_m793506911_gshared
Cpk:__ZN6il2cpp2os14WindowsRuntime22GetRestrictedErrorInfoEv
kRf:_CryptoConfig_CreateFromName_m1538277313
e$a:__ZN17ArchiveFileSystem11CreateAsDirER13FileEntryData
Nyk:dynCall_iiiiiiiiiiii
zp:__ZN9Scripting11UnityEngine2AI18NavMeshBuildSource9InitProxyEv
QVf:_InputField_set_caretPositionInternal_m3823580651
ypd:__ZN18UnityConnectClient16IsServiceEnabledEv
jba:__ZN9Scripting11UnityEngine10ColorGamut9InitProxyEv
a2a:__ZN22VertexDeclarationCacheD0Ev
M3f:_Selectable_set_interactable_m3105888815
zpa:__ZL26KeywordSetToStringDontSortRKNSt3__26vectorIN4core12basic_stringIcNS1_20StringStorageDefaultIcEEEENS_9allocatorIS5_EEEERS5_
Z1:__ZN6prcoreL17RemapGenericFloatI16TexFormatRGFloat17TexFormatRGBAHalfEEvPKNS_9InnerInfoE
JD:__ZN12AudioManager22CreateFMODSoundFromWWWEP10IWWWStream15FMOD_SOUND_TYPE17FMOD_SOUND_FORMATjjbbP10SampleClip
zkc:__ZNK32RendererMaterialAnimationBinding15GenerateBindingERKN4core12basic_stringIcNS0_20StringStorageDefaultIcEEEEbRN11UnityEngine9Animation14GenericBindingE
MTd:_TargetException__ctor_m4172127019
tXi:_List_1_CheckCollection_m274117203_gshared
jHe:__ZL70EventSystem_t1003666588_CustomAttributesCacheGenerator_m_FirstSelectedP21CustomAttributesCache
pV:__ZN8Remapper23GetOrGenerateInstanceIDERK26SerializedObjectIdentifier
$Gd:_ColorTween_get_startColor_m3792586410_AdjustorThunk
nYa:__ZN17FileSystemHandler10AtomicMoveER13FileEntryDataS1_
sGe:__ZL105TrackableField_t1772682203_CustomAttributesCacheGenerator_TrackableField__ctor_m3758796351____validTypes0P21CustomAttributesCache
tNf:_BinaryFormatter_get_SurrogateSelector_m2111882017
NDg:_X509CertificateCollection__ctor_m3365535796
n6a:__ZN11TextureData17GetImageReferenceEii
IVe:_CustomInfo__ctor_m426096741
$zd:_EventSystem_ToString_m3779610692
Sqg:_RecordProtocol_BeginReceiveRecord_m295321170
BHa:__ZN6Sprite8TransferI24GenerateTypeTreeTransferEEvRT_
BKf:_SoapTypeAttribute_get_IsInteropXmlType_m629667929
Fdc:__Z48Register_UnityEngine_Transform_SetAsFirstSiblingv
qya:__ZNK18DelayedCallManager22GetTypeVirtualInternalEv
GHa:__ZN7SubMesh8TransferI24GenerateTypeTreeTransferEEvRT_
Glj:_Literal_IsComplex_m4067122560
xHj:_NativeTypeAttribute__ctor_m133676646
zFb:__ZN19GfxThreadableDevice20SetShadersThreadableEPP10GpuProgramPPK20GpuProgramParametersPKPKh
u$h:_Collection_1_System_Collections_IList_Contains_m296643274_gshared
k0g:_DirectoryInfo__ctor_m126519516
cQd:_MethodBase_GetMethodFromIntPtr_m3014201362
h6h:__ZN21InterfaceFuncInvoker1I19Color32_t2600501292iE6InvokeEjP11Il2CppClassP12Il2CppObjecti
Kkj:_Reference_get_CapturingGroup_m3861468528
Dni:__Z40RuntimeInvoker_TypeAttributes_t113483779PFvvEPK10MethodInfoPvPS4_
kdc:__ZN9Transform23SetSiblingIndexInternalEib
eYi:_List_1_Clear_m1143167521_gshared
xBc:__ZN9JSONWrite8TransferI13dynamic_arrayIaLj0EEEEvRT_PKc17TransferMetaFlags
u1h:_Collection_1_SetItem_m794903769_gshared
Q5g:_Enumerator_MoveNext_m635366482
EFg:_X509Extension_Equals_m1222951829
KLi:__Z37RuntimeInvoker_Enumerator_t1789501480PFvvEPK10MethodInfoPvPS4_
uck:__ZN6il2cpp8metadata15GenericMetadata15GetGenericClassEiPK17Il2CppGenericInst
tNg:_Char_GetTypeCode_m2433327340_AdjustorThunk
eab:__Z18Transfer_BlittableI14SafeBinaryReadLb0E10Matrix4x4fEvRK29SerializationCommandArgumentsR31RuntimeSerializationCommandInfo
iqb:__Z24GetFixedBehaviourManagerv
v2d:__ZL69IntPtr_t_CustomAttributesCacheGenerator_IntPtr_op_Equality_m408849716P21CustomAttributesCache
NSj:__ZN6il2cpp2vm10ThreadPool4WaitEP17Il2CppAsyncResultPPv
ZEg:_PKCS12_Encrypt_m2617413749
Ggj:_X509Crl_VerifySignature_m1377612461
SGg:_Activator_CreateInstance_m94526014
auk:_vfprintf
Zxc:__ZN10GUIManager12AddGUIScriptER8ListNodeI13MonoBehaviourE
T6:__ZL53__ManagedRegistrationHelperFunction_StackTraceUtilityPv
e6g:_Stack_Clear_m2010200235
PJa:__ZN19ShaderPropertySheet20ReservePropertyCountEj
V5c:_cf2_getVStore
RBd:_PointerEventData_set_pointerPressRaycast_m1363193059
PKb:__ZN20DynamicPropertySheetD0Ev
lWd:_SafeHandle_Dispose_m4229010569
hYb:__ZN14SafeBinaryRead17RegisterConverterEPKcS1_PFbPvRS_E
Xne:__ZL77RuntimePlatform_t4159857903_CustomAttributesCacheGenerator_OSXDashboardPlayerP21CustomAttributesCache
IN:__ZN35RegisterRuntimeInitializeAndCleanup8RegisterEPFvPvES2_iS0_
kej:_SubjectAltNameExtension_get_IPAddresses_m1641002124
A_e:_FieldBuilder_SetValue_m828035213
W7h:_ReadOnlyCollection_1_System_Collections_IList_get_IsFixedSize_m733459177_gshared
_Vc:__ZN4PPtrI17PhysicsMaterial2DE8TransferI18StreamedBinaryReadILb0EEEEvRT_
sci:__ZN28GenericInterfaceFuncInvoker0IfE6InvokeEPK10MethodInfoP12Il2CppObject
S2d:__ZL72Enum_t4135868527_CustomAttributesCacheGenerator_Enum_ToObject_m121962870P21CustomAttributesCache
dPh:__ZN23InterfaceActionInvoker2IP24ObjectU5BU5D_t2843939325iE6InvokeEjP11Il2CppClassP12Il2CppObjectS1_i
rtc:__Z21Object_CUSTOM_DestroyP12Il2CppObjectf
Ooe:__ZL99SetupCoroutine_t2062820429_CustomAttributesCacheGenerator_SetupCoroutine_InvokeMoveNext_m3199342729P21CustomAttributesCache
yHb:__ZN8Material26ResetAllCachedMaterialDataEP6Shader
Rui:__Z63RuntimeInvoker_Void_t1185182177_RuntimeObject_Int16_t2552820387PFvvEPK10MethodInfoPvPS4_
ked:_UNITY_TT_Get_MM_Var
HOf:_ObjectManager_AddFixup_m2154325362
zef:_Comparer_1__cctor_m3761458313_gshared
keh:_DateTimeOffset_CompareTo_m1350732322_AdjustorThunk
ba:invoke_diddi
Hid:__ZNK2UI6Canvas13GetRenderModeEv
suf:_PersistentCall__ctor_m1217622171
Nnh:_Array_compare_TisCustomAttributeTypedArgument_t2723150157_m1384644047_gshared
Izh:_StrongName_get_TokenAlgorithm_m1794722022
p9a:__Z18Transfer_BlittableI14SafeBinaryReadLb0EiEvRK29SerializationCommandArgumentsR31RuntimeSerializationCommandInfo
jQj:__ZN6il2cpp2vm13MetadataCache30GetPropertyDefinitionFromIndexEi
xqj:_SymmetricTransform_Transform_m1683494363
KDf:_Rect_Contains_m1232228501
Bsd:__ZN22BaseUnityConnectClient17InitializeSessionERKN4core12basic_stringIcNS0_20StringStorageDefaultIcEEEES6_N19CloudServiceHandler13InitModeFlagsE
z5d:__ZL56KeyCollection_t4251528776_CustomAttributesCacheGeneratorP21CustomAttributesCache
ZAi:__Z74RuntimeInvoker_RuntimeObject_Int32_t2950945753_RuntimeObject_RuntimeObjectPFvvEPK10MethodInfoPvPS4_
h1i:_List_1_get_Item_m200663048_gshared
F0d:_ReturnMessage_get_Exception_m3375728265
LEk:_emscripten_glDeleteBuffers__wrapper
X7e:_InternalEnumerator_1_MoveNext_m3664960764_AdjustorThunk
vqc:__ZN13MonoBehaviour34StopCoroutineFromEnumeratorManagedE18ScriptingObjectPtr
Qoe:__ZL57DebugLogHandler_t826086171_CustomAttributesCacheGeneratorP21CustomAttributesCache
PVi:_List_1__ctor_m1345008423_gshared
lcd:_gray_raster_reset
bt:__ZN9Scripting11UnityEngine9HumanBone12CleanupProxyEv
qGc:__ZN11UnityEngine9Analytics18SceneLoadTimeEvent12SetSceneLoadERKN4core12basic_stringIcNS2_20StringStorageDefaultIcEEEEiyyyy
JRa:__ZN30RuntimeInitializeOnLoadManager8TransferI18StreamedBinaryReadILb0EEEEvRT_
_7g:_DateTimeOffset__ctor_m2084804982
Gad:_UNITY_tt_face_load_pclt
b9a:__ZN9profiling17ScriptingProfiler31UpdateRegisteredScriptingEventsEv
V9b:__ZL34GetComponentsImplementationRecurseILb1ELi0ELi2EEbR10GameObjectbRK17CompareParametersRK39GetComponentsImplementation_ReturnValue
_Uc:__ZN10ClipperLib7Clipper24InsertLocalMinimaIntoAELEx
kJg:_Array_Sort_m3698291233
oxf:_Material_GetTexture_m3545614349
JIa:__ZN13ScreenManager22SetResolutionImmediateEii14FullscreenModei
Ili:__Z64RuntimeInvoker_RuntimeObject_Int32_t2950945753_Int16_t2552820387PFvvEPK10MethodInfoPvPS4_
vwh:_ASN1_get_Length_m1923878580
jFh:_EqualityComparer_1__cctor_m4244842342_gshared
iKb:__ZNK6Camera18WorldToScreenPointERK8Vector3fPb
UFf:_SendMouseEvents_DoSendMouseEvents_m2140870850
mnd:__ZN14UnityAnalyticsD0Ev
vij:_PatternCompiler_EmitJump_m3915926156
Xvb:__Z18IsCompressedFormat14GraphicsFormat
$Of:_SerializationEntry_get_Name_m1530029541_AdjustorThunk
RRd:_MonoMethod_GetBaseDefinition_m2844667474
fVh:__Z33il2cpp_codegen_check_add_overflowxx
tT:__ZNSt3__227__insertion_sort_incompleteIRPFbRKN18AwakeFromLoadQueue4ItemES4_EPS2_EEbT0_S9_T_
RAi:__Z71RuntimeInvoker_Boolean_t97287965_AnimatorControllerPlayable_t1015767841PFvvEPK10MethodInfoPvPS4_
doe:__ZL73RuntimePlatform_t4159857903_CustomAttributesCacheGenerator_MetroPlayerARMP21CustomAttributesCache
D$g:_InvalidOperationException__ctor_m1685032583
jOj:__ZN14dense_hash_mapI10KeyWrapperIN6il2cpp5utils13dynamic_arrayIPK10Il2CppTypeLj4EEEEPFvvENS1_8metadata19Il2CppSignatureHashENS8_14EqualsComparerINSB_22Il2CppSignatureCompareEEENSt3__29allocatorINSG_4pairIKS8_SA_EEEEE15set_deleted_keyERSJ_
NVh:_TimeSpan_op_Subtraction_m3592306516
y7j:__ZN6il2cpp2vm9Exception25RaiseOutOfMemoryExceptionERKNS_5utils10StringViewIDsEEP19Il2CppSequencePoint
hHh:_EqualityComparer_1_System_Collections_IEqualityComparer_GetHashCode_m1517903420_gshared
iGa:__ZN26EnlightenSystemInformation8TransferI14SafeBinaryReadEEvRT_
bEe:__ZL67ContactFilter2D_t3805203441_CustomAttributesCacheGenerator_maxDepthP21CustomAttributesCache
xSa:__ZN24GenerateTypeTreeTransfer8TransferINSt3__26vectorIN15ResourceManager10DependencyE13stl_allocatorIS4_L18MemLabelIdentifier52ELi16EEEEEEvRT_PKc17TransferMetaFlags
THc:__ZNK7Joint2D10SwapBodiesEv
vDj:_CanvasRenderer_SplitUIVertexStreams_m2753637362
bDi:__Z119RuntimeInvoker_Void_t1185182177_RuntimeObject_Single_t1397266774_Single_t1397266774_SByte_t1669577662_Int32_t2950945753PFvvEPK10MethodInfoPvPS4_
Jka:__ZN27PerObjectLightCullingOutputD2Ev
aOa:__ZN12MeshRendererD0Ev
SE:__ZN12AudioManager35GetCurrentSpatializerDefinitionNameEv
oHf:_TouchScreenKeyboard_get_active_m4267591905
g7:__ZN9Scripting11UnityEngine14WaitForSeconds9InitProxyEv
s_j:__ZNK15dense_hashtableINSt3__24pairIK10KeyWrapperIPK14Il2CppAssemblyEPK22Il2CppMonoAssemblyNameEES6_N6il2cpp5utils11PointerHashIS4_EEN14dense_hash_mapIS6_SA_SF_NS6_14EqualsComparerINS0_8equal_toIS5_EEEENS0_9allocatorISB_EEE9SelectKeyESK_SM_E8min_sizeEjj
Dh:_utime
fve:__ZL56PlayableGraph_t3515989261_CustomAttributesCacheGeneratorP21CustomAttributesCache
Okj:_BalancingGroup_Compile_m2575117193
U0j:__ZNSt3__26vectorIN6il2cpp2vm17TypeNameParseInfoENS_9allocatorIS3_EEE8allocateEj
gt:__ZN9Scripting11UnityEngine22AnimatorTransitionInfo9InitProxyEv
qhj:_Mark_get_Index_m3048692661_AdjustorThunk
cdj:_TlsServerSettings_get_CertificateRequest_m842655670
wn:FUNCTION_TABLE_viiiiif
$df:_DefaultComparer_Compare_m3931992727_gshared
Bn:FUNCTION_TABLE_viiiiii
Ucf:_InternalEnumerator_1_System_Collections_IEnumerator_get_Current_m1847780851_AdjustorThunk
npj:_GUILayoutUtility_get_spaceStyle_m3392862907
Kxg:_SecurityException_ToString_m3228070608
$7g:_DateTimeOffset__ctor_m74032857
TFg:_SmallXmlParser_Error_m3899025466
HWh:_Type_type_is_assignable_from_m76737532
Yuc:__ZN9Scripting11UnityEngine14GUILayoutGroup12CleanupProxyEv
M_f:_MaskableGraphic_ParentMaskStateChanged_m1092090553
BRa:__ZNSt3__26vectorIN4core12basic_stringIcNS1_20StringStorageDefaultIcEEEE13stl_allocatorIS5_L18MemLabelIdentifier13ELi16EEE8__appendEj
lM:__ZN19CloudServiceHandler20StartEventDispatcherERKN11UnityEngine15CloudWebService18CloudServiceConfigERNS1_23WebRequestRestHeaderMapE
pGc:__ZN27PerformanceReportingManager21OnSceneTimingCallbackERK15SceneLoadTimingRKN4core12basic_stringIcNS3_20StringStorageDefaultIcEEEE
Fdj:_ValidationResult_get_ErrorCode_m1533688152
Qcc:__Z43Transform_CUSTOM_INTERNAL_get_localRotationP12Il2CppObjectP11Quaternionf
IHc:__ZN15AnchoredJoint2D5ResetEv
Uok:__ZN6il2cpp6icalls8mscorlib6System10Reflection4Emit13ModuleBuilder13RegisterTokenEP29Il2CppReflectionModuleBuilderP12Il2CppObjecti
vti:__Z50RuntimeInvoker_Int64_t3736567304_SByte_t1669577662PFvvEPK10MethodInfoPvPS4_
Mbg:_X509Certificate2_GetValueAsString_m1348462142
QCk:_glGetShaderInfoLog__wrapper
zwe:__ZL63SpriteBone_t303320096_CustomAttributesCacheGenerator_m_ParentIdP21CustomAttributesCache
blf:_Transform_1_EndInvoke_m2716226219_gshared
gi:_emscripten_glGetTexParameteriv
e5:__ZL49__ManagedRegistrationHelperFunction_ComputeBufferPv
Mpd:__ZN11UnityEngine7Connect15DeviceInfoEvent7GFXInfoD2Ev
mEk:_glGenTextures__wrapper
B4j:__ZN15dense_hashtableINSt3__24pairIK10KeyWrapperINS1_IP11Il2CppClassjEEES4_EES6_N6il2cpp8metadata14ArrayClassHashEN14dense_hash_mapIS6_S4_SB_NS6_14EqualsComparerINSA_17ArrayClassCompareEEENS0_9allocatorIS8_EEE9SelectKeyESF_SH_EC2EjRKSB_RKSF_RKSJ_
ZQh:_UnicodeEncoding_GetHashCode_m354003420
L0b:__ZN9ShaderLab20SerializedSubProgram14ConstantBufferaSERKS1_
EXc:__ZN9Polygon2D8TransferI18StreamedBinaryReadILb0EEEEvRT_
Zih:_Enum_Equals_m3617313991
i3d:__ZL69RuntimeArray_CustomAttributesCacheGenerator_Array_SetValue_m394135409P21CustomAttributesCache
sFi:__Z74RuntimeInvoker_Boolean_t97287965_LineTypeU26_t2430394419_Int32_t2950945753PFvvEPK10MethodInfoPvPS4_
E6b:__Z13tessTesselateP14TESStesselatoriiiiPKf
Ag:emscriptenWebGLGetBufferBinding
Hy:__ZN12AudioManager8TransferI19StreamedBinaryWriteILb0EEEEvRT_
n4f:_Slider_UpdateCachedReferences_m3259451627
wle:__ZL63X509ChainStatusFlags_t1026973125_CustomAttributesCacheGeneratorP21CustomAttributesCache
Tri:__Z60RuntimeInvoker_Void_t1185182177_StreamingContext_t3711869237PFvvEPK10MethodInfoPvPS4_
ePe:__ZL62Shadow_t773074319_CustomAttributesCacheGenerator_m_EffectColorP21CustomAttributesCache
t5j:__ZN15dense_hashtableINSt3__24pairIK10KeyWrapperINS1_IP11Il2CppClassjEEES4_EES6_N6il2cpp8metadata14ArrayClassHashEN14dense_hash_mapIS6_S4_SB_NS6_14EqualsComparerINSA_17ArrayClassCompareEEENS0_9allocatorIS8_EEE9SelectKeyESF_SH_E6insertERKS8_
BJd:_U3CShowU3Ec__AnonStorey1_U3CU3Em__0_m2340880019
Esd:__ZN22BaseUnityConnectClient38PrepareConfigRequestOnMainThreadStaticEPS_
A3f:_Selectable_OnSetProperty_m1693943217
qOh:_List_1_GetIndex_m2300811709_gshared
ykc:__ZNK32RendererMaterialAnimationBinding12GetPPtrValueERKN11UnityEngine9Animation10BoundCurveE
zmb:__Z18Transfer_BlittableI18StreamedBinaryReadILb0EELb0E8Vector2fEvRK29SerializationCommandArgumentsR31RuntimeSerializationCommandInfo
WTc:__ZN16CircleCollider2D10SmartResetEv
Qwk:__ZNSt3__212basic_stringIcNS_11char_traitsIcEENS_9allocatorIcEEE21__grow_by_and_replaceEjjjjjjPKc
zdj:_TlsStream_Flush_m3793197834
mPh:_List_1_GetIndex_m2832472557_gshared
pYa:__ZN22LocalFileSystemHandler9MakeLocalER13FileEntryDatab
okk:__ZN6il2cpp2vm8Profiler10AllocationEP12Il2CppObjectP11Il2CppClass
BKe:__ZL61Graphic_t1660335611_CustomAttributesCacheGenerator_m_MaterialP21CustomAttributesCache
o1:__Z13FormatOrderedPKcz
mUj:__ZN6il2cpp2vm8basepathEPKc
Waf:_InternalEnumerator_1_get_Current_m1506120701_AdjustorThunk
wcg:_X509Chain_GetAuthorityKeyIdentifier_m614536199
Z1c:__ZN14SafeBinaryRead21TransferSTLStyleArrayI10vector_mapINSt3__24pairIttEEfN20TextRenderingPrivate8FontImpl14KerningCompareENS2_9allocatorINS3_IS4_fEEEEEEEvRT_17TransferMetaFlags
$ng:_TlsServerFinished__ctor_m1445633918
AVe:_NumberFormatter_FastIntegerToString_m390846811
RZf:__ZN21InterfaceFuncInvoker0IfE6InvokeEjP11Il2CppClassP12Il2CppObject
wNa:__ZN14CompressedMesh10GetQualityE15MeshCompression
GRb:__ZN25DeferredRenderLoopScratchD0Ev
Wb:invoke_viifi
Iyi:__Z83RuntimeInvoker_Void_t1185182177_RuntimeObject_Single_t1397266774_Single_t1397266774PFvvEPK10MethodInfoPvPS4_
bua:__ZNK13RenderTexture21GetShadowSamplingModeEv
uBd:_PhysicsRaycaster_Raycast_m776323695
CIf:_UnityException__ctor_m1456865679
h$:__ZN14PlayableOutput26ClearInvalidSourcePlayableEv
cIe:__ZL92PointerEventData_t3807901092_CustomAttributesCacheGenerator_U3CscrollDeltaU3Ek__BackingFieldP21CustomAttributesCache
W$b:__ZN15dense_hashtableINSt3__24pairIKiN4core17string_with_labelILi1EEEEEi18SInt32HashFunctionN14dense_hash_mapIiS5_S7_NS0_8equal_toIiEE13stl_allocatorIS6_L18MemLabelIdentifier1ELi16EEE9SelectKeyESA_SD_E9copy_fromERKSG_j
YXe:_CustomAttributeNamedArgument_GetHashCode_m2317130892
URa:__ZN15ResourceManagerD0Ev
hFh:_EqualityComparer_1_get_Default_m990790318_gshared
a0f:_GetRayIntersectionAllCallback__ctor_m391992746
rma:__ZN22CreateGpuProgramOutputD2Ev
l0i:_List_1_get_Item_m1378751541_gshared
Lhb:__Z18Transfer_BlittableI19StreamedBinaryWriteILb0EELb1EsEvRK29SerializationCommandArgumentsR31RuntimeSerializationCommandInfo
xde:__ZL52HMACSHA512_t923916539_CustomAttributesCacheGeneratorP21CustomAttributesCache
Onf:_ValueCollection_CopyTo_m2188334703_gshared
SEf:__ZN23InterfaceActionInvoker1IP25RectTransform_t3704657025E6InvokeEjP11Il2CppClassP12Il2CppObjectS1_
ntg:_SHA1CryptoServiceProvider_Finalize_m1793183797
e7g:_Convert_ToByte_m4146281512
QIh:_HashSet_1_System_Collections_Generic_ICollectionU3CTU3E_CopyTo_m408073502_gshared
kkg:_EncryptedPrivateKeyInfo_get_EncryptedData_m491452551
EYa:__ZN12HandlerChain4OpenER13FileEntryData14FilePermission16FileAutoBehavior
Jqh:_Array_InternalArray__ICollection_Add_TisPlayerLoopSystem_t105772105_m1930641144_gshared
UIi:__Z72RuntimeInvoker_Void_t1185182177_Int32_t2950945753_RaycastHit_t1056001966PFvvEPK10MethodInfoPvPS4_
Phe:__ZL79Convert_t2465617642_CustomAttributesCacheGenerator_Convert_ToUInt16_m1147931813P21CustomAttributesCache
kXj:__ZN15dense_hashtableINSt3__24pairIK10KeyWrapperINS1_IPK10MethodInfoP11Il2CppClassEEEjEES9_17ReflectionMapHashIS8_EN14dense_hash_mapIS9_jSD_NS9_14EqualsComparerINS0_8equal_toIS8_EEEENS0_9allocatorISB_EEE9SelectKeyESI_SK_E6insertERKSB_
xx:__ZL55__ManagedRegistrationHelperFunction_AudioPlayableOutputPv
BGc:__ZN27PerformanceReportingManager29OnSceneLoadedAfterAwakeStaticEPS_iR18AwakeFromLoadQueueN19RuntimeSceneManager11LoadingModeE
IIg:_Array_SetValue_m394135409
xW:__ZN14FileCacherReadD2Ev
OUa:__ZN13RendererScene23UpdatePreviousFrameDataEii
qzf:_MonoBehaviour_StopCoroutine_m615723318
D9b:__Z50Register_UnityEngine_CullingGroup_FinalizerFailurev
MTi:_Mesh_GetAllocArrayFromChannel_TisVector2_t2156229523_m1057679375_gshared
bwg:_SecurityPermission_IsSubsetOf_m545000671
lla:__ZNK4PPtrI5FlareEcvPS0_Ev
BLi:__Z56RuntimeInvoker_Int32_t2950945753_SpriteState_t1362986479PFvvEPK10MethodInfoPvPS4_
N4b:__ZN12ShaderErrors11ShaderErrorC2EOS0_
Iwk:__ZNKSt3__221__basic_string_commonILb1EE20__throw_out_of_rangeEv
Tsf:_Cursor_get_lockState_m2828192107
noi:__Z78RuntimeInvoker_Boolean_t97287965_RuntimeObject_RuntimeObject_Int32_t2950945753PFvvEPK10MethodInfoPvPS4_
SRj:_UpdatedEventHandler_Invoke_m1320302085
TAg:_String_Format_m630303134
jak:__ZNK15dense_hashtableINSt3__24pairIK10KeyWrapperIP14Il2CppIUnknownEjEES5_N6il2cpp5utils11PointerHashIS3_EEN14dense_hash_mapIS5_jSB_NS5_14EqualsComparerINS0_8equal_toIS4_EEEENS0_9allocatorIS7_EEE9SelectKeyESG_SI_E12test_deletedERK24dense_hashtable_iteratorIS7_S5_SB_SK_SG_SI_E
wD:__ZN9AudioClip23VirtualRedirectTransferER18StreamedBinaryReadILb0EE
I0i:_List_1_AddEnumerable_m2724989594_gshared
J1i:_List_1_Contains_m2043463915_gshared
QBi:__Z82RuntimeInvoker_Vector2_t2156229523_Vector2_t2156229523_RuntimeObject_RuntimeObjectPFvvEPK10MethodInfoPvPS4_
Wrc:__Z70Register_UnityEngine_Playables_PlayableHandle_GetPlayableType_Injectedv
vub:__ZNK4PPtrI23ShaderVariantCollectionEcvPS0_Ev
djg:_ARC4Managed_TransformBlock_m1687647868
Hj:_glCopyTexSubImage2D
Gkc:__ZNK24RendererAnimationBinding13GetFloatValueERKN11UnityEngine9Animation10BoundCurveE
IK:__ZNK15DownloadHandler14HasPendingDataEv
HIf:_UnitySynchronizationContext_ExecuteTasks_m1310741010
Jaj:_RIPEMD160Managed_CompressFinal_m497690796
Drb:__ZN18ScreenManagerWebGL13SetShowCursorEb
u4e:_InternalEnumerator_1_MoveNext_m1773160976_gshared
AFb:__ZN13DrawImmediateC2ER9GfxDevice
Roa:__ZN18VertexChannelsInfoC2ERA12_K11ChannelInfo
qjd:__ZN2UI13CanvasManager14GetRenderOrderEPKNS_6CanvasE
aab:__Z18Transfer_BlittableI14SafeBinaryReadLb0E5RectTIfEEvRK29SerializationCommandArgumentsR31RuntimeSerializationCommandInfo
EVe:_NumberFormatter_NumberToString_m2562899600
Dug:_SymmetricAlgorithm_get_FeedbackSize_m3666584308
r9c:_otv_u_C_x_Ox
a0c:__ZL44__ManagedRegistrationHelperFunction_ColliderPv
d6a:__ZN18AsyncUploadManager19AsyncResourceUploadER9GfxDeviceii9TextureID
g3d:__ZL70RuntimeArray_CustomAttributesCacheGenerator_Array_GetValue_m1062368071P21CustomAttributesCache
aFk:_emscripten_glGenVertexArrays__wrapper
__h:_Version_Clone_m1749041863
Wjf:_ShimEnumerator_get_Key_m4155849607_gshared
Aza:__ZN6prcoreL21CreateRemapAnyBlitterE13TextureFormatS0_
Okg:_RSAManaged_ExportParameters_m1754454264
$oc:__ZN17AnimationCurveTplIfE16StripInvalidKeysEv
jLg:_Boolean_Equals_m535526264_AdjustorThunk
cLi:__Z71RuntimeInvoker_KeyValuePair_2_t71524366_Int32_t2950945753_RuntimeObjectPFvvEPK10MethodInfoPvPS4_
nud:__ZN13dynamic_arrayIiLj0EE6insertEPiPKiS3_
pRj:_GameLoader__ctor_m1120833756
Ajd:__ZNK2UI6Canvas17GetSortingLayerIDEv
fbh:_Convert_ToUInt16_m3116648921
Rpc:__ZL12HashLen0to16PKcj
gOc:__ZN14Raycast2DQuery8RunQueryEb
DFa:__ZN8Renderer24SetupNewRendererForSceneEv
BWh:_Type_internal_from_name_m1721940673
j3j:_il2cpp_type_get_class_or_element_class
CQi:_Array_swap_TisCustomAttributeTypedArgument_t2723150157_TisCustomAttributeTypedArgument_t2723150157_m365781156_gshared
jMf:_RemotingServices_GetMethodBaseFromName_m3194612939
$Cc:__Z35Transfer_Blittable_FixedBufferFieldI8JSONReadtEvRK29SerializationCommandArgumentsR31RuntimeSerializationCommandInfo
hla:__ZN4PPtrI7TextureE8TransferI14SafeBinaryReadEEvRT_
PGa:__ZNK6Sprite22GetTypeVirtualInternalEv
vaa:__ZN9Scripting11UnityEngine12Experimental9Playables22MaterialEffectPlayable9InitProxyEv
ssd:__ZNSt3__26__treeINS_12__value_typeIN4core12basic_stringIcNS2_20StringStorageDefaultIcEEEEN11UnityEngine7Connect19RemoteSettingsValueEEENS_19__map_value_compareIS6_SA_NS_4lessIS6_EELb1EEE13stl_allocatorISA_L18MemLabelIdentifier6ELi16EEE16__construct_nodeIJNS_4pairIS6_S9_EEEEENS_10unique_ptrINS_11__tree_nodeISA_PvEENS_22__tree_node_destructorISF_ISP_LSG_6ELi16EEEEEEDpOT_
vn:FUNCTION_TABLE_iiiiiiiiiiiiii
tHj:_NativePropertyAttribute__ctor_m2033094153
Dud:__ZN19UnityConnectService18OnPlayerQuitStaticEPS_
iad:_UNITY_tt_get_cmap_info
isg:_SslClientStream_RaiseServerCertificateValidation_m3477149273
Qgb:__Z29Transfer_Blittable_ArrayFieldI24GenerateTypeTreeTransfer5RectTIiEEvRT_R9ArrayInfoRK23StaticTransferFieldInfo
ora:__ZN16ReflectionProbes8ScheduleEN18ReflectionProbeJob7JobTypeEP15ReflectionProbei
dog:_ClientSessionInfo_KeepAlive_m1020179566
_1i:_List_1_ToArray_m4056539300_gshared
w6d:__ZL51Calendar_t1661121569_CustomAttributesCacheGeneratorP21CustomAttributesCache
FX:__ZN16MessageForwarder13HandleMessageEPviR11MessageData
d_a:__Z18IsDirectoryCreatedRKN4core12basic_stringIcNS_20StringStorageDefaultIcEEEE
Pvg:_String_FormatHelper_m3913915042
Ohd:__ZN2UI13CanvasManagerD2Ev
DXe:_ConstructorInfo__cctor_m1016079270
XKj:__ZN15dense_hashtableINSt3__24pairIK10KeyWrapperIPKcEP11Il2CppClassEES5_N6il2cpp5utils11StringUtils12StringHasherIS4_EEN14dense_hash_mapIS5_S8_SE_NS5_14EqualsComparerINSB_13VmStringUtils21CaseSensitiveComparerEEENS0_9allocatorIS9_EEE9SelectKeyESJ_SL_E15set_deleted_keyERKS9_
v$h:__ZN21InterfaceFuncInvoker1Ib20UIVertex_t4057497605E6InvokeEjP11Il2CppClassP12Il2CppObjectS0_
K2h:_ReadOnlyCollection_1_Contains_m1700717617_gshared
FGg:_AttrListImpl_get_Names_m977594476
Bce:__ZL53IFormatter_t3549834567_CustomAttributesCacheGeneratorP21CustomAttributesCache
p4c:_UNITY_FT_GlyphLoader_Done
R0:__ZNSt3__23mapIiN11TypeManager18TypeCallbackStructENS_4lessIiEENS_9allocatorINS_4pairIKiS2_EEEEEixERS7_
KCe:__ZL89GUIStyle_t3956901511_CustomAttributesCacheGenerator_GUIStyle_get_stretchWidth_m3556443132P21CustomAttributesCache
Enc:__ZN9Polygon2D16CheckConsistencyEv
ETd:_Pointer_Box_m389276611
z8a:__ZNK17InstancingBatcher15RenderInstancesERK19ShaderPropertySheetRKNS_22RenderInstancesConfigsERK11MeshBuffersRK16DrawBuffersRange16VertexInputMasks
chh:_StackTrace_get_FrameCount_m344690939
lW:__ZN13dynamic_arrayIcLj0EE6insertEPcPKcS3_
zQe:_UnexceptionalStreamWriter_Write_m363195622
rJe:__ZL108U3CStartU3Ec__Iterator0_t1249263001_CustomAttributesCacheGenerator_U3CStartU3Ec__Iterator0__ctor_m1316384627P21CustomAttributesCache
ibd:_tt_cmap14_char_var_index
xnb:__Z35Transfer_Blittable_FixedBufferFieldI18StreamedBinaryReadILb0EEdEvRK29SerializationCommandArgumentsR31RuntimeSerializationCommandInfo
UFj:_Physics2D_Raycast_m1700114981
DWf:_Selectable_OnPointerDown_m1086067264
nfd:_psh_globals_new
VId:_Dropdown_SetupTemplate_m628218778
xSh:_Thread_GetCompressedStack_m2923422412
Blg:__ZN28GenericInterfaceFuncInvoker2IbP26X509Certificate_t713131622P22Int32U5BU5D_t385246372E6InvokeEPK10MethodInfoP12Il2CppObjectS1_S3_
dyf:_Matrix4x4_MultiplyPoint3x4_m4145063176
Lag:_X509BasicConstraintsExtension_ToString_m1809935297
j2a:__ZN9GfxDevice20SetMaxBufferedFramesEi
Wii:_TweenRunner_1_StartTween_m1055628540_gshared
yIc:__ZN10Collider2D19WakeAllBodyContactsEv
NRi:_GameObject_GetComponents_TisRuntimeObject_m1246177135_gshared
NB:__ZN24AudioScriptBufferManagerD2Ev
rIj:__ZNSt3__218uninitialized_fillIPNS_4pairIK10KeyWrapperIPK22Il2CppGenericParameterEP11Il2CppClassEESA_EEvT_SC_RKT0_
rRe:_MethodAccessException__ctor_m3542088436
CZb:__Z23ConvertIntegerToTypePtrIsEbPvR14SafeBinaryRead
Gt:__ZN9Scripting11UnityEngine10Animations26AnimatorControllerPlayable9InitProxyEv
AKc:__ZN12b2MouseJoint11ShiftOriginERK6b2Vec2
tOg:_ArrayListWrapper_get_Capacity_m51087796
iYf:_LayoutElement_get_minHeight_m4160507569
vIc:__ZNK4PPtrI11Rigidbody2DEptEv
MZj:__ZN6il2cpp2vmL8IsMethodEP12Il2CppObject
DEh:_EqualityComparer_1_System_Collections_IEqualityComparer_GetHashCode_m2230215241_gshared
INe:__ZL60ContentSizeFitter_t3850442145_CustomAttributesCacheGeneratorP21CustomAttributesCache
MRg:_Hashtable_Contains_m2145146412
hne:__ZL64UnmarshalledAttribute_t1517743549_CustomAttributesCacheGeneratorP21CustomAttributesCache
h4:__ZN6prcoreL29inner_stretch_rgb565_bilinearEPKNS_9InnerInfoE
boa:__Z26TransformVerticesInnerLoopILb0ELb0ELb1EEvPhRK10Matrix4x4fRK10Matrix3x3fjPKhiS8_ii25GfxTransformVerticesFlagsj
yrk:__ZN6il2cpp2os9FastMutex4LockEv
OYg:_Int32_FindCurrency_m3541026887
Agg:_Interval_CompareTo_m3282557545
ZFk:_pthread_cond_wait__wrapper
NQb:__ZNK14RenderSettings19GetFlatAmbientColorEv
wna:__ZN8DrawUtil24DrawMeshRawFromNodeQueueERK15RenderNodeQueuej16VertexInputMasksi
LQa:__ZN18StreamedBinaryReadILb0EE21TransferSTLStyleArrayI10vector_mapIPKN5Unity4TypeE7Hash128NSt3__24lessIS6_EENS8_9allocatorINS8_4pairIS6_S7_EEEEEEEvRT_17TransferMetaFlags
NXj:__ZN6il2cpp2gc19AppendOnlyGCHashMapINSt3__24pairIPK11Il2CppImageP11Il2CppClassEEP22Il2CppReflectionModule17ReflectionMapHashIS9_ENS2_8equal_toIS9_EEE11TryGetValueERKS9_PSB_
jNe:__ZL58Text_t1901882714_CustomAttributesCacheGenerator_m_FontDataP21CustomAttributesCache
W_e:_GenericTypeParameterBuilder_IsPrimitiveImpl_m1952010459
u4h:_ReadOnlyCollection_1_CopyTo_m3474153465_gshared
saj:_RijndaelManagedTransform_TransformBlock_m1610137419
zdc:__Z40Register_UnityEngine_Transform_SetParentv
zee:__ZL94WindowsIdentity_t2948242406_CustomAttributesCacheGenerator_WindowsIdentity_Dispose_m3466258450P21CustomAttributesCache
Rya:__ZN14Texture2DArray17UploadToGfxDeviceEv
EA:__Z14FMODMemoryFreePvjPKc
Sye:__ZL100RectTransform_t3704657025_CustomAttributesCacheGenerator_RectTransform_INTERNAL_get_rect_m3130887130P21CustomAttributesCache
_Xc:__ZN17CapsuleCollider2D8TransferI18StreamedBinaryReadILb0EEEEvRT_
oaa:__ZN9Scripting11UnityEngine12Experimental10PlayerLoop11FixedUpdate12CleanupProxyEv
luf:_NetFxCoreExtensions_GetMethodInfo_m444570327
sWh:_Type_get_IsSystemType_m624798880
Gyf:_Mesh_SetNormals_m2521889643
M6d:__ZL77RegionInfo_t1090270226_CustomAttributesCacheGenerator_U3CU3Ef__switchU24map1BP21CustomAttributesCache
A6c:_cf2_glyphpath_moveTo
L$i:_List_1_AddCollection_m1469681717_gshared
BLc:__Z6b2FreePv10MemLabelId
drc:__Z51Register_UnityEngine_Texture_get_texelSize_Injectedv
CGf:_StackTraceUtility_SetProjectFolder_m830524047
sog:_ClientSessionInfo_Finalize_m2165787049
yxc:__ZN5IMGUI14GUIWindowStateD2Ev
png:_ClientContext_Clear_m1774063253
roc:__ZN4Mesh17SetIndicesComplexEPKvjj16GfxPrimitiveTypeij
wdh:_DateTime_AddSeconds_m332574389_AdjustorThunk
oIf:_RequestAtlasCallback_Invoke_m378128467
MLg:_Byte_System_IConvertible_ToSByte_m1869482168
lri:__Z99RuntimeInvoker_RuntimeObject_RuntimeObject_RuntimeObject_StreamingContext_t3711869237_RuntimeObjectPFvvEPK10MethodInfoPvPS4_
Nrj:_AnalyticsEventTracker_Awake_m2780522130
Yvf:_GameObject_Internal_AddComponentWithType_m3797731663
rm:_emscripten_glIsTexture
Yk:_emscripten_glHint
Rqj:_Check_SourceAndPredicate_m2332465641
YDe:__ZL74ContactFilter2D_t3805203441_CustomAttributesCacheGenerator_useOutsideDepthP21CustomAttributesCache
Y2d:__ZL70RuntimeArray_CustomAttributesCacheGenerator_Array_get_Length_m21610649P21CustomAttributesCache
Ydd:_ft_var_readpackeddeltas
uve:__ZL80Logger_t274032455_CustomAttributesCacheGenerator_U3ClogEnabledU3Ek__BackingFieldP21CustomAttributesCache
cCh:_Dictionary_2_Clear_m1938428402_gshared
Yjb:__Z35Transfer_Blittable_FixedBufferFieldI18StreamedBinaryReadILb1EEtEvRK29SerializationCommandArgumentsR31RuntimeSerializationCommandInfo
MYh:_UInt32_System_IConvertible_ToInt64_m2261037378
um:_SDL_UpperBlit
jra:__Z35GetTextureDecodeValuesWithIntensity16TextureUsageMode17TextureColorSpace10ColorSpacef
zjj:_Parser_ParseRepetitionBounds_m1246581246
Kkh:_Array_InternalArray__ICollection_Remove_TisChar_t3634460470_m4143749387_gshared
OFb:__ZN15dense_hashtableINSt3__24pairIK9TextureIDiEES2_14GfxGenericHashIS2_EN14GfxDoubleCacheIS2_iS6_NS0_8equal_toIS2_EEN31GfxDoubleCacheConcurrencyPolicy11LocklessGetE42GfxDoubleCacheDefaultEmptyDeletedGeneratorIS2_EE9SelectKeyES9_13stl_allocatorIS4_L18MemLabelIdentifier24ELi16EEE14squash_deletedEv
$ec:__Z13RegisterClassI14Texture2DArrayEvPKc
LYj:__ZN15dense_hashtableINSt3__24pairIK10KeyWrapperINS1_IPK12PropertyInfoP11Il2CppClassEEEjEES9_17ReflectionMapHashIS8_EN14dense_hash_mapIS9_jSD_NS9_14EqualsComparerINS0_8equal_toIS8_EEEENS0_9allocatorISB_EEE9SelectKeyESI_SK_ED2Ev
wKc:__ZNK12b2MouseJoint10GetAnchorAEv
xDg:_Encoding_GetBytes_m3823106599
DTg:_GregorianCalendar__ctor_m979779718
Jrg:_SslClientStream__ctor_m2402546929
krf:_Camera_get_pixelRect_Injected_m2326986893
T6f:_DictionaryNodeEnumerator_get_Entry_m2309234501
aIj:__ZNK10KeyWrapperIPK22Il2CppGenericParameterE14EqualsComparerINSt3__28equal_toIS2_EEEclERKS3_SA_
BW:__ZN14FileCacherRead16UnlockCacheBlockEj
jLh:_Enumerator_Dispose_m951715887_AdjustorThunk
F5e:_InternalEnumerator_1_System_Collections_IEnumerator_Reset_m521819017_AdjustorThunk
A1g:_IsolatedStorageException__ctor_m1022659452
LQ:__ZN10InstancingL21OnGraphicsCapsChangedEv
U9d:__ZL61ClassInterfaceType_t4029497327_CustomAttributesCacheGeneratorP21CustomAttributesCache
tte:__ZL101SystemInfo_t3561985952_CustomAttributesCacheGenerator_SystemInfo_GetOperatingSystemFamily_m1440411909P21CustomAttributesCache
AUh:_WaitHandle_get_Handle_m3260446580
eMh:_Enumerator_VerifyState_m1745883925_AdjustorThunk
Lc:_emscripten_glUniform1f
j5g:_SortedList__ctor_m1261191695
X3j:__ZN6il2cpp2vm6Thread28GetThreadStaticDataForThreadEiP12Il2CppThread
iai:_ReadOnlyCollection_1_System_Collections_IList_get_IsReadOnly_m165706550_gshared
wmi:__Z75RuntimeInvoker_Int32_t2950945753_DecimalU26_t3714369516_Int64U26_t200113976PFvvEPK10MethodInfoPvPS4_
a5c:__Z20ParseImageParametersR11UTF16StringRiRN20TextRenderingPrivate16TextFormatChangeE
xNe:__ZL55CanvasScaler_t2767979955_CustomAttributesCacheGeneratorP21CustomAttributesCache
E0h:_Collection_1_RemoveItem_m2942561924_gshared
Qc:_emscripten_glUniform1i
lfb:__Z18Transfer_BlittableI24GenerateTypeTreeTransferLb1EN4math12int3_storageEEvRK29SerializationCommandArgumentsR31RuntimeSerializationCommandInfo
Q0f:__Z14bankers_roundff
bJ:__ZN11UnityEngine15CloudWebService16SessionContainer20RestoreSessionHeaderERKN4core12basic_stringIcNS2_20StringStorageDefaultIcEEEES8_RNS0_13SessionHeaderE
Xud:__ZN22UnityWebRequestManager13BackendRetainEv
Snc:__ZN8Material28ApplyMaterialPropertyDrawersEv
Mqk:__ZN6il2cpp2os12Cryptography23GetCryptographyProviderEv
HIj:__ZN24dense_hashtable_iteratorINSt3__24pairIK10KeyWrapperIPK22Il2CppGenericParameterEP11Il2CppClassEES6_N6il2cpp5utils11PointerHashIS4_EEN14dense_hash_mapIS6_S9_SE_NS6_14EqualsComparerINS0_8equal_toIS5_EEEENS0_9allocatorISA_EEE9SelectKeyESJ_SL_E30advance_past_empty_and_deletedEv
Bu:__ZN11UnityEngine9Animation27CreateAvatarBindingConstantER9TransformPKN7mecanim9animation14AvatarConstantERNS3_6memory9AllocatorE
Q7f:_MonoTODOAttribute__ctor_m1298576268
s_f:_MaskableGraphic_get_onCullStateChanged_m3331479633
Bqi:__Z151RuntimeInvoker_RuntimeObject_Int32_t2950945753_RuntimeObject_ObjectU5BU5DU26_t712384779_RuntimeObject_RuntimeObject_RuntimeObject_ObjectU26_t2146539884PFvvEPK10MethodInfoPvPS4_
ynd:__ZN8JSONRead19TransferSTLStyleMapINSt3__23mapIN4core12basic_stringIcNS3_20StringStorageDefaultIcEEEEN11UnityEngine9Analytics16LimitEventConfigENS1_4lessIS7_EE13stl_allocatorINS1_4pairIKS7_SA_EEL18MemLabelIdentifier6ELi16EEEEEEvRT_17TransferMetaFlags
EFd:_CanvasUpdateRegistry__ctor_m2005397069
Cxe:__ZL77Input_t1431474628_CustomAttributesCacheGenerator_Input_GetAxisRaw_m2316819917P21CustomAttributesCache
JU:__ZN14MessageHandler3GetEv
VQd:_MonoMethodInfo_GetCallingConvention_m3156036493
Hvf:_SupportedRenderingFeatures_FallbackMixedLightingModeByRef_m3859171964
dd:_emscripten_glAttachShader
n7b:__Z16tesedgeIntersectP10TESSvertexS0_S0_S0_S0_
LO:__Z40DebugStringToFilePostprocessedStacktraceRK21DebugStringToFileData
wNd:_Image__cctor_m1927508576
iTh:_SendOrPostCallback_EndInvoke_m2485163446
c2b:__ZNSt3__26vectorIN4core12basic_stringIcNS1_20StringStorageDefaultIcEEEENS_9allocatorIS5_EEE6assignIPS5_EENS_9enable_ifIXaasr21__is_forward_iteratorIT_EE5valuesr16is_constructibleIS5_NS_15iterator_traitsISC_E9referenceEEE5valueEvE4typeESC_SC_
REa:__ZThn32_N8Renderer15AddAsRenderNodeER15RenderNodeQueueRK20DeprecatedSourceData
kCb:__ZN13dynamic_arrayIN18GlslGpuProgramGLES9GLProgramELj0EE6insertEPS1_jRKS1_
Ycf:_InternalEnumerator_1_get_Current_m3331252162_AdjustorThunk
S1d:__ZL76String_t_CustomAttributesCacheGenerator_String_Concat_m1809518182____values0P21CustomAttributesCache
J9a:__Z18Transfer_BlittableI14SafeBinaryReadLb0E11QuaternionfEvRK29SerializationCommandArgumentsR31RuntimeSerializationCommandInfo
fnb:__Z18Transfer_BlittableI18StreamedBinaryReadILb0EELb1E12PropertyNameEvRK29SerializationCommandArgumentsR31RuntimeSerializationCommandInfo
tO:_tlsf_walk_heap
qqi:__Z49RuntimeInvoker_Void_t1185182177_OpCode_t123070264PFvvEPK10MethodInfoPvPS4_
I5j:__ZNK15dense_hashtableINSt3__24pairIK10KeyWrapperIP11Il2CppClassES4_EES5_N6il2cpp8metadata16SZArrayClassHashEN14dense_hash_mapIS5_S4_SA_NS5_14EqualsComparerINS9_19SZArrayClassCompareEEENS0_9allocatorIS7_EEE9SelectKeyESE_SG_E10test_emptyERK24dense_hashtable_iteratorIS7_S5_SA_SI_SE_SG_E
Lyi:__Z69RuntimeInvoker_Void_t1185182177_Int32_t2950945753_HitInfo_t3229609740PFvvEPK10MethodInfoPvPS4_
Nze:__ZL59AnimatorClipInfo_t3156717155_CustomAttributesCacheGeneratorP21CustomAttributesCache
Ebh:_Convert_ToUInt32_m3592050311
jb:invoke_vif
CRi:_Component_GetComponents_TisRuntimeObject_m2416546752_gshared
kb:invoke_vid
y9e:_InternalEnumerator_1__ctor_m2202456613_AdjustorThunk
_wk:__ZNSt3__212basic_stringIcNS_11char_traitsIcEENS_9allocatorIcEEE6insertEjPKc
mb:invoke_vii
MJb:__ZNK12ImageFilters8DoRenderER17ShaderPassContextP13RenderTextureS3_RKNSt3__26vectorI11ImageFilterNS4_9allocatorIS6_EEEE
tfa:__ZN12TLSAllocatorI14StackAllocatorE16ThreadInitializeEP13BaseAllocator
Qri:__Z82RuntimeInvoker_Boolean_t97287965_SByte_t1669577662_RuntimeObject_SByte_t1669577662PFvvEPK10MethodInfoPvPS4_
u2a:__ZN9GfxDevice32UpdateStereoViewProjectionMatrixE21MonoOrStereoscopicEye
tL:__Z29GetCloudWebServicesModuleSpecv
vkd:__Z41CanvasRenderer_CUSTOM_DisableRectClippingP12Il2CppObject
DSe:_MonoType_GetConstructorImpl_m441167626
g5:__ZL45__ManagedRegistrationHelperFunction_CoroutinePv
Ird:__ZNSt3__26__treeINS_12__value_typeIN4core12basic_stringIcNS2_20StringStorageDefaultIcEEEE14CallbackArray3IRKS6_R8JSONReadbEEENS_19__map_value_compareIS6_SD_NS_4lessIS6_EELb1EEE13stl_allocatorISD_L18MemLabelIdentifier6ELi16EEE4findIS6_EENS_15__tree_iteratorISD_PNS_11__tree_nodeISD_PvEEiEERKT_
Z5i:_Collection_1_IsFixedSize_m3709118201_gshared
H0a:__ZN25SingleBlockMemoryFileDataD0Ev
Ow:__ZNSt3__26vectorI14ConstantStringNS_9allocatorIS1_EEE6assignINS_11__wrap_iterIPS1_EEEENS_9enable_ifIXaasr21__is_forward_iteratorIT_EE5valuesr16is_constructibleIS1_NS_15iterator_traitsISA_E9referenceEEE5valueEvE4typeESA_SA_
mai:_ReadOnlyCollection_1_CopyTo_m586367390_gshared
YI:__ZN11UnityEngine15CloudWebService16SessionContainer21ConvertFromFolderTimeERKN4core12basic_stringIcNS2_20StringStorageDefaultIcEEEEPjPt
SQf:_CodeAccessPermission_Equals_m1555575992
tbb:__ZNSt3__26vectorI8GUIStyle13stl_allocatorIS1_L18MemLabelIdentifier1ELi16EEE7reserveEj
Z4h:_ReadOnlyCollection_1_Contains_m3869904379_gshared
G6j:__ZN6il2cpp6icalls8mscorlib6System9Threading6Thread27GetSerializedCurrentCultureEP12Il2CppThread
Inh:__ZN21InterfaceFuncInvoker2IibbE6InvokeEjP11Il2CppClassP12Il2CppObjectbb
Pog:_Context_set_ReadSequenceNumber_m2154909392
naj:_RijndaelTransform_SubByte_m3037693507
$gc:__Z31CalculateHierarchyTransformType23TransformAccessReadOnly
eA:__ZN4FMOD8ChannelI11setPositionEjj
Ewf:_Input_INTERNAL_CALL_GetTouch_m3481893561
lUc:__ZN10Collider2D12SetPolygon2DEP9Polygon2D
Amk:_GC_set_fl_marks
oRa:__ZNSt3__26vectorIN30RuntimeInitializeOnLoadManager15ClassMethodInfoE13stl_allocatorIS2_L18MemLabelIdentifier13ELi16EEE7reserveEj
x2a:__ZN9GfxDevice17SetStereoViewportE15StereoscopicEyeRK5RectTIiE
H0:__ZN17BaseObjectManager13StaticDestroyEPv
mN:__GLOBAL__sub_I_Runtime_Graphics_Mesh_1_cpp
gDj:_CanvasRenderer_INTERNAL_CALL_GetColor_m597074473
Lef:_Comparer_1__cctor_m3891417387_gshared
tPc:__ZN27b2UpdateTriggerContactsTask8FinalizeEv
oE:__ZN12AudioManager14UpdateListenerERK8Vector3fS2_S2_S2_
_2d:__ZL70RuntimeArray_CustomAttributesCacheGenerator_Array_get_Rank_m3448755881P21CustomAttributesCache
ZZe:_EnumBuilder_GetEvent_m4074915332
M2g:_FileSystemInfo_get_FullName_m3468398407
MHf:_Vector3_get_forward_m3100859705
gy:__ZN4FMOD6Reverb13setPropertiesEPK22FMOD_REVERB_PROPERTIES
N4j:__ZN15dense_hashtableINSt3__24pairIK10KeyWrapperIP11Il2CppClassES4_EES5_N6il2cpp8metadata16SZArrayClassHashEN14dense_hash_mapIS5_S4_SA_NS5_14EqualsComparerINS9_19SZArrayClassCompareEEENS0_9allocatorIS7_EEE9SelectKeyESE_SG_E5clearEv
yLb:__ZN9DepthPass13PrepareSubsetEjRK10RenderNodeifRK17ShaderReplaceData
Qzg:_String_IndexOf_m3406607758
U0b:__ZN9ShaderLab20SerializedSubProgram16TextureParameter8TransferI14SafeBinaryReadEEvRT_
tig:_ASN1__ctor_m3517592395
Y9c:_otv_BaseCoord_validate
zoc:__Z35SetMeshComponentFromArrayFromScriptR4Mesh30InternalScriptingShaderChannel34InternalScriptingVertexChannelTypei17ScriptingArrayPtri
Vqa:__ZN4PPtrI6ShaderE8TransferI19StreamedBinaryWriteILb0EEEEvRT_
mqh:_Array_InternalArray__ICollection_Add_TisCustomAttributeNamedArgument_t287865710_m4157175270_gshared
Rq:__ZN4core20StringStorageDefaultIcE6assignEPKcj
RZh:_UInt64_System_IConvertible_ToUInt64_m2135047981_AdjustorThunk
Hhg:_BigInteger_ModPow_m3776562770
Xdk:__ZN15dense_hashtableINSt3__24pairIK10KeyWrapperIP12Il2CppObjectEN6il2cpp2gc9CachedCCWEEES5_NS7_5utils11PointerHashIS3_EEN14dense_hash_mapIS5_S9_SD_NS5_14EqualsComparerINS0_8equal_toIS4_EEEENS0_9allocatorISA_EEE9SelectKeyESI_SK_E3endEv
a0g:_BinaryReader_ReadInt64_m939370142
Qqg:_RecordProtocol_ProcessChangeCipherSpec_m15839975
WNg:_ArrayList_IndexOf_m305368842
B1i:_List_1_Add_m2996644200_gshared
yVb:__ZN6Camera6SetFarEf
fNf:_FormatterConverter_ToBoolean_m1680758923
T3:__ZN6prcoreL12RemapGenericI17TexFormatABGR888817TexFormatARGB8888EEvPKNS_9InnerInfoE
Sfa:__ZN11GameManager17MainThreadCleanupEv
b6g:_Stack_get_Count_m2258661097
Q2h:_ReadOnlyCollection_1__ctor_m1345363288_gshared
ckd:__Z50Register_UnityEngine_UISystemProfilerApi_EndSamplev
Aof:_Dictionary_2_System_Collections_ICollection_get_SyncRoot_m2020472285_gshared
Bbf:_InternalEnumerator_1_System_Collections_IEnumerator_Reset_m1775752715_AdjustorThunk
NFj:_Physics2D_Raycast_m2082490717
Bne:__ZL91Application_t1852185770_CustomAttributesCacheGenerator_Application_get_isPlaying_m100394690P21CustomAttributesCache
MXd:_ConfigHandler_OnProcessingInstruction_m4212209262
dUc:__ZN10Collider2D12AddToManagerEv
pZi:_List_1_Reverse_m3290386475_gshared
gOf:_SerializationCallbacks_GetSerializationCallbacks_m2939476649
v7a:__ZNSt3__26vectorIN20GpuProgramParameters19AtomicCounterBufferENS_9allocatorIS2_EEE21__push_back_slow_pathIRKS2_EEvOT_
Kcd:_UNITY_tt_slot_init
gHb:__ZZ23InitPlayerLoopCallbacksvEN41PostLateUpdateUpdateResolutionRegistrator7ForwardEv
ijf:_KeyCollection_GetEnumerator_m1168803204_gshared
Wob:__Z25scripting_array_class_get17ScriptingClassPtrj
aBc:__ZL22Transfer_ManagedObjectI9JSONWriteLb1EEvRK29SerializationCommandArgumentsR31RuntimeSerializationCommandInfo
hD:__ZNK10SampleClip22GetTypeVirtualInternalEv
p3a:__ZN9GfxDevice20DestroyRenderSurfaceER12ObjectHandleI17RenderSurface_TagP17RenderSurfaceBaseE
_5g:_Stack__ctor_m2602729586
Rki:__Z77RuntimeInvoker_Byte_t1134296376_RuntimeObject_Int32_t2950945753_RuntimeObjectPFvvEPK10MethodInfoPvPS4_
Fcc:__Z35Resources_CUSTOM_GetBuiltinResourceP12Il2CppObjectP12Il2CppString
pZg:_Int32_System_IConvertible_ToInt32_m265310525_AdjustorThunk
BJg:_Array_slow_swapper_m4116724811
qUb:__ZN12_GLOBAL__N_15qAsinEff
utf:_Display__ctor_m3105658851
hSg:_HashValues_get_IsSynchronized_m3461082747
W4e:_InternalEnumerator_1_System_Collections_IEnumerator_get_Current_m2629988057_AdjustorThunk
ufa:__ZN12TLSAllocatorI14StackAllocatorE13ThreadCleanupEv
ZAh:_Dictionary_2_get_Item_m2136868513_gshared
MJa:__ZN14SafeBinaryRead21TransferSTLStyleArrayI13dynamic_arrayI8Vector4fLj0EEEEvRT_17TransferMetaFlags
oA:__Z18GetAudioManagerPtrv
K_h:_ValueType_InternalEquals_m1384040357
Ung:_Context_get_HandshakeMessages_m3655705111
fkk:__ZThn4_N6il2cpp2vm13ComObjectBase16MarshalInterfaceEP13Il2CppIStreamRK10Il2CppGuidPvjS7_j
p9g:_Convert_ToDouble_m996590115
O_b:__Z27FindActiveTransformWithPathPKc
m7h:_ReadOnlyCollection_1_System_Collections_IList_Remove_m4169110229_gshared
qYh:_UInt16_ToString_m3020002356
uZf:_LayoutRebuilder_LayoutComplete_m68578143
OHj:_RequiredByNativeCodeAttribute__ctor_m119855101
hia:__ZN12BaseRendererD0Ev
tZb:__Z29StdTemplateConversionFunctionIbyEbPvR14SafeBinaryRead
jaj:_RijndaelManaged_GenerateKey_m1736287430
$oj:_GUIStyle_get_fixedWidth_m2576616348
QHe:__ZL90PointerEventData_t3807901092_CustomAttributesCacheGenerator_U3ClastPressU3Ek__BackingFieldP21CustomAttributesCache
z5g:_SortedList_Find_m3363512987
FNb:__ZNK6Camera7GetNearEv
H_e:_GenericTypeParameterBuilder_GetConstructorImpl_m863833310
vif:_Enumerator_get_Current_m3687673883_AdjustorThunk
Tid:__ZN2UI13CanvasManager8SortListEv
TBb:__ZN7ApiGLES11UnmapBufferEjN2gl12BufferTargetE
wkk:__ZN6il2cpp5utilsL24Utf32CharToSurrogatePairEjRA2_Ds
FBa:__Z25GetNextAllowedTextureSizeib13TextureFormat
Nrb:__ZN20LocalFileSystemWebGL4CopyER13FileEntryDataS1_
cM:__ZN19CloudServiceHandler6RetainEv
Bsk:__ZN6il2cpp2os9Semaphore4WaitEb
xJc:__ZN15b2FrictionJointD0Ev
G3h:_ReadOnlyCollection_1_System_Collections_IList_IndexOf_m198887188_gshared
cDi:__Z71RuntimeInvoker_Vector2_t2156229523_Vector2_t2156229523_Rect_t2360479859PFvvEPK10MethodInfoPvPS4_
xvc:__Z36Event_CUSTOM_Internal_SetNativeEventPv
dRh:_UTF32Encoding_GetBytes_m3180303867
K1i:_List_1_CopyTo_m4034402519_gshared
q5h:_ReadOnlyCollection_1_System_Collections_IList_Clear_m2007013334_gshared
PVa:__Z34scripting_liveness_calculation_endPv
oMg:_Char_GetDataTablePointers_m754571594
Ogk:__ZN6il2cpp2os6ThreadC2Ev
w1e:_U3CGetEnumeratorU3Ec__Iterator0_System_Collections_Generic_IEnumeratorU3CTU3E_get_Current_m1566629109_gshared
kjc:__ZN28ReflectionProbeAnchorManager7CleanupEv
yeh:_DateTimeOffset_get_UtcDateTime_m1021718282_AdjustorThunk
q4:__ZN16memory_pool_implILi64EE15AutoPoolWrapper12UninitializeEPv
o6f:_HybridDictionary_get_Count_m1166314536
udj:_TlsStream_Write_m1412844442
DCc:__Z18Transfer_BlittableI8JSONReadLb0E8Vector3fEvRK29SerializationCommandArgumentsR31RuntimeSerializationCommandInfo
Vxf:_Matrix4x4__ctor_m53065545_AdjustorThunk
y3j:__ZN6il2cpp2vm6Thread6DetachEP12Il2CppThread
Xdj:_GeneralNames_get_DNSNames_m3788548987
cPh:_List_1_AddCollection_m2026039026_gshared
Cfd:_Render_Single_Pass
Eug:_SymmetricAlgorithm_get_IV_m1875559108
WOf:_SerializationEntry_t648286436_marshal_pinvoke
z5:__ZL56__ManagedRegistrationHelperFunction_TextureMixerPlayablePv
Pu:__ZN7mecanim8skeleton30SkeletonBuildReverseIndexArrayEPiPKiPKNS0_8SkeletonES6_
Uvc:__Z19GetGUIBlendMaterialv
gRe:_Math_Round_m3018379666
Nsi:__Z41RuntimeInvoker_Boolean_t97287965_IntPtr_tPFvvEPK10MethodInfoPvPS4_
Dhk:__ZN6il2cpp2os10ThreadImpl5SleepEjb
NNa:__ZN10VertexData10DeallocateEv
I3h:_ReadOnlyCollection_1_System_Collections_IList_Remove_m1965826685_gshared
ysd:__ZN22BaseUnityConnectClient12IsNewSessionEv
ZBe:__ZL82LayoutCache_t78309876_CustomAttributesCacheGenerator_LayoutCache__ctor_m3885940174P21CustomAttributesCache
xgh:_Delegate_CreateDelegate_m1051651521
Slh:_PlayableHandle_IsPlayableOfType_TisRuntimeObject_m503495943_AdjustorThunk
CEk:_glBindSampler__wrapper
oGb:__ZNSt3__26vectorIN20ArchiveStorageHeader12StorageBlockE13stl_allocatorIS2_L18MemLabelIdentifier55ELi16EEE8__appendEj
Lf:_emscripten_set_mouseup_callback
Nxf:_Mathf_Clamp_m3350697880
g5a:__ZN9GfxDevice27SetRandomWriteTargetTextureEi9TextureID
wRj:_StartMenu_OnWheelSelected_m2104591572
RAh:_Dictionary_2_System_Collections_Generic_ICollectionU3CSystem_Collections_Generic_KeyValuePairU3CTKeyU2CTValueU3EU3E_Contains_m3033743418_gshared
bsi:__Z165RuntimeInvoker_Void_t1185182177_UInt32U26_t3735378166_Int32_t2950945753_UInt32U26_t3735378166_Int32_t2950945753_Int32_t2950945753_Int32_t2950945753_Int32_t2950945753PFvvEPK10MethodInfoPvPS4_
UOh:_List_1_System_Collections_IList_Remove_m3140917266_gshared
cCg:_Encoding_get_DecoderFallback_m1525880676
Wbe:__ZL59ITrackingHandler_t1244553475_CustomAttributesCacheGeneratorP21CustomAttributesCache
sRj:_GameLoader_Update_m2246752272
tSf:_DSASignatureDeformatter__ctor_m2759753186
Ndg:_X509ChainElementCollection_System_Collections_IEnumerable_GetEnumerator_m3829089536
s$h:_Collection_1_System_Collections_IEnumerable_GetEnumerator_m801406918_gshared
Grb:__ZNK18ScreenManagerWebGL8GetWidthEv
eQj:__ZN6il2cpp2vm13MetadataCache33GetFieldDefaultValueDataFromIndexEi
aVh:_TimeSpan_get_TotalHours_m306507525_AdjustorThunk
eD:__ZN10SampleClipD2Ev
nfi:_InvokableCall_1_remove_Delegate_m790146436_gshared
bei:_Predicate_1_Invoke_m2389850270_gshared
Chk:__ZN6il2cpp2os10ThreadImpl13SetWaitObjectEPNS0_5posix15PosixWaitObjectE
hVa:__Z13GetGISettingsv
v7b:__ZN19SpriteMeshGenerator7contourERNSt3__26vectorINS_6vertexENS0_9allocatorIS2_EEEERiRf
OL:__ZN11UnityEngine15CloudWebService20WebRequestRestClientC2Ev
j8c:_cff_cmap_unicode_init
Wjh:_Array_InternalArray__ICollection_Contains_TisRuntimeObject_m4067783231_gshared
O4:__ZL60__ManagedRegistrationHelperFunction_AssemblyIsEditorAssemblyPv
EW:__ZN14FileCacherRead13GetFileLengthEv
Bgi:_UnityAction_1_EndInvoke_m542551745_gshared
C4i:_Collection_1_IsValidItem_m3080586124_gshared
WId:_DropdownItem_set_text_m3702712387
eGd:_ClipperRegistry_Register_m2407166513
Bvk:_readlink
fZj:__ZN15dense_hashtableINSt3__24pairIK10KeyWrapperINS1_IPK9EventInfoP11Il2CppClassEEEjEES9_17ReflectionMapHashIS8_EN14dense_hash_mapIS9_jSD_NS9_14EqualsComparerINS0_8equal_toIS8_EEEENS0_9allocatorISB_EEE9SelectKeyESI_SK_E12resize_deltaEjj
QQd:_MonoCMethod_Invoke_m2700167622
mSg:_KeyMarker__cctor_m2590194914
Lqk:__ZN6il2cpp8metadata14Il2CppTypeHash4HashEPK10Il2CppType
Nrk:__ZN6il2cpp2os13SemaphoreImplC2Eii
NVc:__ZNSt3__26vectorIN10ClipperLib8IntPointENS_9allocatorIS2_EEE21__push_back_slow_pathIS2_EEvOT_
GLa:__ZNK6Sprite9GetBoundsE8Vector2fbb
wka:__ZNK19RenderEventsContext21CleanupCommandBuffersEv
nCj:_TextGenerator_PopulateWithErrors_m1222498386
s6h:_ReadOnlyCollection_1_System_Collections_Generic_ICollectionU3CTU3E_Clear_m2102011098_gshared
szb:__ZN11ContextGLES6CreateEi
XCj:_WillRenderCanvases_BeginInvoke_m1804779886
Xyi:__Z52RuntimeInvoker_Boolean_t97287965_Vector3_t3722313464PFvvEPK10MethodInfoPvPS4_
HWi:_List_1_set_Capacity_m3382070520_gshared
EEi:__Z68RuntimeInvoker_Boolean_t97287965_RuntimeObject_ObjectU26_t2146539884PFvvEPK10MethodInfoPvPS4_
UXf:_U3CMouseDragOutsideRectU3Ec__Iterator1_Dispose_m267465418
_fh:_Decimal_CompareTo_m3502307243_AdjustorThunk
Wnb:__Z19TransferField_ArrayI18StreamedBinaryReadILb0EE27Converter_SimpleNativeClassI17AnimationCurveTplIfEEEvRK23StaticTransferFieldInfoR31RuntimeSerializationCommandInfoRT0_
Ofa:__ZN14StackAllocator16FrameMaintenanceEb
iEa:__Z18ReadStringFromFilePN4core17string_with_labelILi1EEERKNS_12basic_stringIcNS_20StringStorageDefaultIcEEEE
wBc:__ZN9JSONWrite8TransferI13dynamic_arrayIjLj0EEEEvRT_PKc17TransferMetaFlags
mX:__ZNK10GameObject20QueryComponentByTypeEPKN5Unity4TypeE
rfh:_Decimal_System_IConvertible_ToInt32_m1488426794_AdjustorThunk
JRe:_MonoCustomAttrs_IsUserCattrProvider_m2878058089
hLe:__ZL71InputField_t3762917431_CustomAttributesCacheGenerator_m_HideMobileInputP21CustomAttributesCache
oAa:__ZN11TextureData5ResetEv
Gac:__Z53Register_UnityEngine_GameObject_get_activeInHierarchyv
$ug:_ToBase64Transform_InternalTransformFinalBlock_m360524956
MGg:_ActivationContext_Dispose_m2038725770
ndb:__Z35Transfer_Blittable_FixedBufferFieldI17RemapPPtrTransferiEvRK29SerializationCommandArgumentsR31RuntimeSerializationCommandInfo
sS:__ZL30InitializeCoreScriptingClassesv
_7h:_ReadOnlyCollection_1_Contains_m1699971074_gshared
Qqa:__ZN15SerializeTraitsI12fixed_bitsetILi28EjEE8TransferI18StreamedBinaryReadILb0EEEEvRS1_RT_
Ig:_glBlitFramebuffer
o$a:__ZN17ArchiveFileSystem5TouchER13FileEntryData
pjf:_KeyCollection_System_Collections_Generic_IEnumerableU3CTKeyU3E_GetEnumerator_m818204647_gshared
idb:__Z35Transfer_Blittable_SingleValueFieldI14SafeBinaryReadhEvRT_R17GeneralMonoObjectRK23StaticTransferFieldInfo
oVh:_TimeSpan_Duration_m2963553230
J5b:__ZN12CachedWriter15CompleteWritingEv
wAa:__ZNK12CubemapArray22GetTypeVirtualInternalEv
Tn:FUNCTION_TABLE_vif
Un:FUNCTION_TABLE_vid
$Qi:_Dictionary_2_Do_CopyTo_TisInt32_t2950945753_TisRuntimeObject_m213146570_gshared
Wn:FUNCTION_TABLE_vii
_Va:__Z40scripting_liveness_calculation_from_root18ScriptingObjectPtrPv
eKe:__ZL67OptionDataList_t1438173104_CustomAttributesCacheGenerator_m_OptionsP21CustomAttributesCache
ibe:__ZL65IContributeDynamicSink_t2255997386_CustomAttributesCacheGeneratorP21CustomAttributesCache
hva:__ZN7Texture23VirtualRedirectTransferER24GenerateTypeTreeTransfer
u3c:_UNITY_FT_Set_Transform
xkc:__ZNK32RendererMaterialAnimationBinding12SetPPtrValueERKN11UnityEngine9Animation10BoundCurveEi
YKa:__ZN14SpriteRenderer16CheckConsistencyEv
fEk:_glDeleteFramebuffers__wrapper
z3i:_Collection_1_System_Collections_IList_get_IsFixedSize_m2620019318_gshared
zoi:__Z220RuntimeInvoker_Boolean_t97287965_RuntimeObject_Int32U26_t1369213839_Int32_t2950945753_Int32_t2950945753_Int32_t2950945753_RuntimeObject_SByte_t1669577662_Int32_t2950945753_ContractionU26_t961830454_ContextU26_t3937453398PFvvEPK10MethodInfoPvPS4_
Fse:__ZL73Rect_t2360479859_CustomAttributesCacheGenerator_Rect_get_zero_m4034156123P21CustomAttributesCache
gBf:_Playable_Equals_m328753404_AdjustorThunk
Gwh:_BitConverterLE_GetUIntBytes_m949779219
t6c:_cff_blend_build_vector
P9f:_WebHeaderCollection_ToString_m1263025316
aec:__Z26Input_CUSTOM_GetButtonDownP12Il2CppString
Vqi:__Z91RuntimeInvoker_Void_t1185182177_RuntimeObject_RuntimeObject_RuntimeObject_Int32_t2950945753PFvvEPK10MethodInfoPvPS4_
YSd:_GetterAdapter_Invoke_m3767885970
IXi:_List_1__ctor_m747758800_gshared
Jgj:_X509Extension_get_Oid_m4107042796
L$e:_MethodBuilder_get_ReflectedType_m3038768129
FBg:_String_CreateString_m2818852475
RKh:_Enumerator_get_Current_m335492761_AdjustorThunk
uzd:_BaseRaycaster_get_renderOrderPriority_m1110184610
EDj:_CanvasRenderer_get_hasMoved_m2236392341
Uzf:_MessageEvent__ctor_m1231650089
_Xa:__ZNK15Lz4Decompressor16DecompressMemoryEPKvPjPvS2_
qRe:_MemberAccessException__ctor_m3713703094
Vja:__Z11IsCoroutine18ScriptingMethodPtrRK22CommonScriptingClasses
O7d:__ZL117GenericTypeParameterBuilder_t1988827940_CustomAttributesCacheGenerator_GenericTypeParameterBuilder_Equals_m3260957994P21CustomAttributesCache
u5b:__ZN4core8hash_mapINS_12basic_stringIcNS_20StringStorageDefaultIcEEEE10vector_setI4PPtrI11SpriteAtlasENSt3__24lessIS8_EE13stl_allocatorIS8_L18MemLabelIdentifier81ELi16EEENS_4hashIS4_EENS9_8equal_toIS4_EEEixERKS4_
xYc:__ZN11Rigidbody2D8TransferI24GenerateTypeTreeTransferEEvRT_
kxj:__ZL24UnresolvedVirtualCall_47P12Il2CppObject20DateTime_t3738529785PK10MethodInfo
Gxa:__Z35UnityPropertySheet_MakeSortedColorsRKNSt3__23mapIN9ShaderLab16FastPropertyNameE10ColorRGBAfNS_4lessIS2_EENS_9allocatorINS_4pairIKS2_S3_EEEEEER10vector_mapIS2_S3_S5_NS6_INS7_IS2_S3_EEEEE
In:FUNCTION_TABLE_iiiiiiffiiiiiiiiiffffiii
Aad:_UNITY_tt_face_load_os2
AXc:__ZN17PolygonCollider2D8TransferI24GenerateTypeTreeTransferEEvRT_
Vrh:_Array_InternalArray__ICollection_CopyTo_TisUICharInfo_t75501106_m4268526610_gshared
kEe:__ZL107Collider2D_t2806799626_CustomAttributesCacheGenerator_Collider2D_IsTouchingLayers_m3205548484____layerMask0P21CustomAttributesCache
Dcb:__Z29Transfer_Blittable_ArrayFieldI14SafeBinaryRead8Vector4fEvRT_R9ArrayInfoRK23StaticTransferFieldInfo
xfk:__GLOBAL__sub_I_BoehmGC_cpp
rXe:_Default_check_arguments_m3882727959
TDg:_PKCS12_Compare_m2975811353
jSh:_UTF8Encoding_GetMaxCharCount_m3762459613
yYe:_ModuleBuilder_RegisterToken_m4166846047
ZGb:__ZZ23InitPlayerLoopCallbacksvEN51PostLateUpdateUpdateCustomRenderTexturesRegistrator7ForwardEv
D$f:_RawImage_OnPopulateMesh_m1115858855
Zpi:__Z74RuntimeInvoker_MonoFileType_t221779374_IntPtr_t_MonoIOErrorU26_t1548853198PFvvEPK10MethodInfoPvPS4_
HQj:__ZN6il2cpp2vm13MetadataCache25GetStringLiteralFromIndexEi
lHg:_Hashtable_ToPrime_m33531354
_$h:_Collection_1_IsSynchronized_m1117613618_gshared
eG:__ZN11AudioModule6UpdateEv
ajf:_KeyCollection_System_Collections_Generic_ICollectionU3CTKeyU3E_Remove_m2555909644_gshared
Kfk:__ZN15dense_hashtableINSt3__24pairIK10KeyWrapperIPcES3_EES4_N6il2cpp5utils15PassThroughHashIS3_EEN14dense_hash_mapIS4_S3_SA_NS4_14EqualsComparerINS0_8equal_toIS3_EEEENS0_9allocatorIS6_EEE9SelectKeyESF_SH_E5clearEv
vXh:_TypeInitializationException__ctor_m3546444694
Rcc:__ZNK9Transform16GetLocalRotationEv
dif:_Enumerator_System_Collections_IEnumerator_Reset_m4278714428_gshared
vGa:__ZN4PPtrI11LightProbesE8TransferI18StreamedBinaryReadILb0EEEEvRT_
QK:__ZN11UnityEngine15CloudWebService23WebRequestUploadHandler17ConsumeUploadDataEj
CSj:__ZNSt3__214__split_bufferI6pollfdRNS_9allocatorIS1_EEEC2EjjS4_
uXd:_CrossAppDomainData_get_DomainID_m3516796532
wDi:__Z68RuntimeInvoker_Void_t1185182177_Single_t1397266774_SByte_t1669577662PFvvEPK10MethodInfoPvPS4_
a3g:_MemoryStream_set_Position_m3169779190
sUb:__ZN13RenderManager29SetCurrentCameraAndStackStateEP6CameraP25CameraStackRenderingState
_Ad:_ExecuteEvents_get_scrollHandler_m2659345019
nga:__ZNSt3__26__treeINS_12__value_typeIjN4core12basic_stringIcNS2_20StringStorageDefaultIcEEEEEENS_19__map_value_compareIjS7_NS_4lessIjEELb1EEE13stl_allocatorIS7_L18MemLabelIdentifier7ELi16EEE7destroyEPNS_11__tree_nodeIS7_PvEE
B5j:__ZN15dense_hashtableINSt3__24pairIK10KeyWrapperINS1_IP11Il2CppClassjEEES4_EES6_N6il2cpp8metadata14ArrayClassHashEN14dense_hash_mapIS6_S4_SB_NS6_14EqualsComparerINSA_17ArrayClassCompareEEENS0_9allocatorIS8_EEE9SelectKeyESF_SH_E12resize_deltaEjj
Xh:_JS_WebRequest_Release
yJ:__ZN11UnityEngine15CloudWebService14DataErrorEventD0Ev
N8j:__ZN6il2cpp6icalls8mscorlib6System4Type20internal_from_handleEi
pme:__ZL72RequiredByNativeCodeAttribute_t4130846357_CustomAttributesCacheGeneratorP21CustomAttributesCache
pYd:_Context__ctor_m254302079
taa:__ZN9Scripting11UnityEngine12Experimental9Playables20TextureMixerPlayable9InitProxyEv
Zyh:_KeyGeneratedEventHandler_EndInvoke_m3057317531
qDa:__ZN19ShaderPropertySheet16SetArrayPropertyEN9ShaderLab16FastPropertyNameENS_12PropertyTypeEPKvj
x1f:_Selectable_FindSelectable_m2348614027
BHd:_FloatTween_get_duration_m1227071020
Ddk:__ZN15dense_hashtableINSt3__24pairIK10KeyWrapperIP12Il2CppObjectEN6il2cpp2gc9CachedCCWEEES5_NS7_5utils11PointerHashIS3_EEN14dense_hash_mapIS5_S9_SD_NS5_14EqualsComparerINS0_8equal_toIS4_EEEENS0_9allocatorISA_EEE9SelectKeyESI_SK_E16reset_thresholdsEv
DJd:_DropdownItem_OnPointerEnter_m1492957598
mTd:_ParameterInfo_get_ParameterType_m4197803362
wpi:__Z91RuntimeInvoker_Void_t1185182177_Int32U26_t1369213839_Int32U26_t1369213839_Int32_t2950945753PFvvEPK10MethodInfoPvPS4_
xba:__ZN9Scripting11UnityEngine9BoundsInt9InitProxyEv
FHj:_StaticAccessorAttribute_set_Type_m2333258271
gae:__ZL91SafeHandle_t3273388951_CustomAttributesCacheGenerator_SafeHandle_DangerousAddRef_m614714386P21CustomAttributesCache
Pqd:__ZN11UnityEngine15PlatformWrapper16GetApplicationIdEv
Rcd:_UNITY_TT_Get_VMetrics
wdg:_X509Chain__cctor_m993507223
Zxi:__Z69RuntimeInvoker_Color_t2555686324_Color_t2555686324_Single_t1397266774PFvvEPK10MethodInfoPvPS4_
xFh:_EqualityComparer_1__ctor_m2283513024_gshared
jPg:_SimpleEnumerator__cctor_m2844299657
QQe:_LocalDataStoreSlot__ctor_m4104083971
UOi:_Array_qsort_TisVector3_t3722313464_m4117329442_gshared
Uuj:_AudioSource_ReadExtensionName_m725112169
Xfj:_X509CertificateEnumerator_System_Collections_IEnumerator_Reset_m2039524926
lvi:__Z128RuntimeInvoker_Void_t1185182177_RuntimeObject_BooleanU26_t4125257963_SByte_t1669577662_Int32U26_t1369213839_Int32U26_t1369213839PFvvEPK10MethodInfoPvPS4_
sva:__ZN7Texture21GetMasterTextureLimitEv
Fmf:_Enumerator_Dispose_m3503748991_AdjustorThunk
ZOa:__ZN13dynamic_arrayI9InputAxisLj0EE18resize_initializedEj12ResizePolicy
kWb:__Z12CanAddScriptR10GameObject17ScriptingClassPtrPS1_S2_
e0j:__ZN6il2cpp2vm10Reflection12HasAttributeEP12Il2CppObjectP11Il2CppClass
KBi:__Z103RuntimeInvoker_Boolean_t97287965_RuntimeObject_Vector2_t2156229523_RuntimeObject_Vector3U26_t3464235976PFvvEPK10MethodInfoPvPS4_
Mai:_Comparison_1_BeginInvoke_m3263247262_gshared
mR:__ZN9ShaderLabL25StaticInitializeShaderLabEPv
U:Math_max
SNe:__ZL64HorizontalLayoutGroup_t2586782146_CustomAttributesCacheGeneratorP21CustomAttributesCache
byj:__ZL24UnresolvedVirtualCall_92P12Il2CppObjectPK10MethodInfo
Y1j:_il2cpp_class_get_methods
QFc:__GLOBAL__sub_I_artifacts_WebGL_codegenerator_0_cpp_3493
ofb:__Z18Transfer_BlittableI24GenerateTypeTreeTransferLb0EN4math12int2_storageEEvRK29SerializationCommandArgumentsR31RuntimeSerializationCommandInfo
bhh:_StackTrace_get_trace_m1194606084
Pyg:_Single_CompareTo_m2785801815_AdjustorThunk
Wgk:__ZN6il2cpp2os6Thread16GetCurrentThreadEv
fsd:__ZN11UnityEngine7Connect20RemoteConfigSettings10UnregisterEv
jNi:_Array_InternalArray__Insert_TisUILineInfo_t4195266810_m3191124053_gshared
j6b:__ZN10GameObject13ComponentPair15SetComponentPtrEPN5Unity9ComponentE
xCk:_glBlitFramebuffer__wrapper
DJe:__ZL75U3COnFinishSubmitU3Ec__Iterator0_t3413438900_CustomAttributesCacheGeneratorP21CustomAttributesCache
tga:__ZN10TagManager8TransferI19StreamedBinaryWriteILb0EEEEvRT_
uVa:__ZN11PreloadData23VirtualRedirectTransferER18StreamedBinaryReadILb0EE
oIa:__ZN13sorted_vectorI4PPtrI11SpriteAtlasENSt3__24lessIS2_EE13stl_allocatorIS2_L18MemLabelIdentifier1ELi16EEE21sort_clear_duplicatesEv
Mfe:__ZL58ManualResetEvent_t451242010_CustomAttributesCacheGeneratorP21CustomAttributesCache
qKe:__ZL60FontData_t746620069_CustomAttributesCacheGenerator_m_MinSizeP21CustomAttributesCache
Uba:__ZN9Scripting11UnityEngine24AssemblyIsEditorAssembly12CleanupProxyEv
wMg:_Char_System_IConvertible_ToDateTime_m3564102661
lWj:__ZN15dense_hashtableINSt3__24pairIK10KeyWrapperINS1_IPK9FieldInfoP11Il2CppClassEEEjEES9_17ReflectionMapHashIS8_EN14dense_hash_mapIS9_jSD_NS9_14EqualsComparerINS0_8equal_toIS8_EEEENS0_9allocatorISB_EEE9SelectKeyESI_SK_E16reset_thresholdsEv
ox:__ZN13RuntimeStaticINSt3__26vectorI12WebCamDeviceNS0_9allocatorIS2_EEEELb0EE13StaticDestroyEPv
NGa:__ZN6Sprite17MainThreadCleanupEv
HCk:_glBlendFuncSeparate__wrapper
bye:__ZL116PlayerConnectionInternal_t3892293164_CustomAttributesCacheGenerator_PlayerConnectionInternal_SendMessage_m2378413408P21CustomAttributesCache
eC:__ZN10AudioMixer14UpdateMuteSoloEv
wV:__Z17GetMonoManagerPtrv
Fla:__ZN12BaseRenderer25FlattenSharedMaterialDataILb0EEEbRKS_R22PerThreadPageAllocatorR10RenderNode
Lha:__ZN9Transform35SetLocalPositionWithoutNotificationERKN4math7_float3Ey
XCe:__ZL87GUIUtility_t1868551600_CustomAttributesCacheGenerator_U3CguiIsExitingU3Ek__BackingFieldP21CustomAttributesCache
Vpe:__ZL101MonoBehaviour_t3962482529_CustomAttributesCacheGenerator_MonoBehaviour_StartCoroutine_Auto_m594129169P21CustomAttributesCache
Yi:_JS_Eval_ClearTimeout
zje:__ZL64ThreadStaticAttribute_t3840787420_CustomAttributesCacheGeneratorP21CustomAttributesCache
R7a:__ZN7ApiGLES16SetPatchVerticesEi
ilj:_CharacterClass_Compile_m3296067317
ygk:__ZN6il2cpp2gc16GarbageCollector16InvokeFinalizersEv
KEj:_OnOverrideControllerDirtyCallback_EndInvoke_m2432606376
LLg:_Byte_System_IConvertible_ToInt64_m285584218_AdjustorThunk
zDf:_Rect_get_size_m477575021_AdjustorThunk
wIj:__ZN6il2cpp2vm5Class20FromGenericParameterEPK22Il2CppGenericParameter
zM:__ZN19CloudServiceHandler11FlushEventsEv
a0:__ZN15GlobalCallbacksC2Ev
q$d:_MethodCall_System_Runtime_Remoting_Messaging_IInternalMessage_set_Uri_m1919576807
OKc:__ZN7b2World10CreateBodyEPK9b2BodyDef
Gff:_Comparer_1_System_Collections_IComparer_Compare_m2016223770_gshared
f5h:_ReadOnlyCollection_1_System_Collections_Generic_ICollectionU3CTU3E_Add_m1738170497_gshared
ZOe:__ZL57BaseMeshEffect_t2440176439_CustomAttributesCacheGeneratorP21CustomAttributesCache
iui:__Z74RuntimeInvoker_DateTime_t3738529785_DateTime_t3738529785_Int32_t2950945753PFvvEPK10MethodInfoPvPS4_
g5c:_UNITY_FT_New_Memory_Face
y7i:_Collection_1_System_Collections_IList_IndexOf_m3271188411_gshared
_0d:__ZL52IComparable_t36111218_CustomAttributesCacheGeneratorP21CustomAttributesCache
N2g:_MonoIO_GetFileStat_m678141354
R8c:_UNITY_FT_Load_Sfnt_Table
gId:__Z15CastclassSealedP12Il2CppObjectP11Il2CppClass
scc:__ZN15ApplicationInfo14GetSandboxTypeEv
pdb:__Z18Transfer_BlittableI17RemapPPtrTransferLb1EhEvRK29SerializationCommandArgumentsR31RuntimeSerializationCommandInfo
Pfh:_Decimal_IsZero_m4250358244_AdjustorThunk
AQe:_UnmanagedMemoryStream_get_CanRead_m3770815400
_Ub:__ZN16ReflectionProbes40UpdateRealtimeReflectionProbesTimeslicedEv
bHa:__ZN14SafeBinaryRead21TransferSTLStyleArrayI13dynamic_arrayI8Vector2fLj0EEEEvRT_17TransferMetaFlags
Cuj:__ZN23InterfaceActionInvoker1IP24SingleU5BU5D_t1444911251E6InvokeEjP11Il2CppClassP12Il2CppObjectS1_
tbk:__ZNSt3__26__treeINS_12__value_typeIP24Il2CppReflectionAssemblyPvEENS_19__map_value_compareIS3_S5_NS_4lessIS3_EELb1EEENS_9allocatorIS5_EEE16__insert_node_atEPNS_16__tree_node_baseIS4_EERSF_SF_
a7g:_Decimal_u64_m3374804932
OXh:_UInt16_System_IConvertible_ToInt32_m1950778303_AdjustorThunk
ZQa:__ZNK30RuntimeInitializeOnLoadManager22GetTypeVirtualInternalEv
DNj:__ZN15dense_hashtableINSt3__24pairIK10KeyWrapperIN6il2cpp5utils13dynamic_arrayIPK10Il2CppTypeLj4EEEEPFvvEEESA_NS3_8metadata19Il2CppSignatureHashEN14dense_hash_mapISA_SD_SG_NSA_14EqualsComparerINSF_22Il2CppSignatureCompareEEENS0_9allocatorISE_EEE9SelectKeyESK_SM_E12resize_deltaEjj
Tjc:__ZN16ReflectionProbes15InitializeClassEv
IJ:__ZN13dynamic_arrayIN11UnityEngine15CloudWebService14DataErrorEvent15FileErrorDetailELj0EE18resize_initializedEj12ResizePolicy
V2d:__ZL71Enum_t4135868527_CustomAttributesCacheGenerator_Enum_Format_m2588135982P21CustomAttributesCache
RJc:__ZNK12b2WheelJoint17GetReactionTorqueEf
VOj:__ZNK15dense_hashtableINSt3__24pairIK10KeyWrapperIPK11Il2CppClassEPKcEES6_N6il2cpp5utils11PointerHashIS3_EEN14dense_hash_mapIS6_S9_SE_NS6_14EqualsComparerINS0_8equal_toIS5_EEEENS0_9allocatorISA_EEE9SelectKeyESJ_SL_E12test_deletedEj
n5h:_ReadOnlyCollection_1_System_Collections_ICollection_CopyTo_m2527663815_gshared
oak:__ZN6il2cpp2vm5Image9GetCorlibEv
yJf:_Vector3_get_left_m2428419009
xek:__ZN6il2cpp2vm11MethodStack17GetStackFramesRawEv
n9d:__ZL50Pointer_t2088917139_CustomAttributesCacheGeneratorP21CustomAttributesCache
pnk:_GC_reclaim_uninit
nUa:__ZN16LightmapSettings11UnshareDataEv
NAd:_ExecuteEvents_Execute_m113814934
wY:__ZN13RuntimeStaticINSt3__23mapIN4core12basic_stringIcNS2_20StringStorageDefaultIcEEEES6_NS0_4lessIS6_EE13stl_allocatorINS0_4pairIKS6_S6_EEL18MemLabelIdentifier13ELi16EEEELb0EE13StaticDestroyEPv
Dsf:_Coroutine_ReleaseCoroutine_m947702340
Mff:_Enumerator_System_Collections_IEnumerator_get_Current_m2979767597_AdjustorThunk
jgi:__ZN30GenericInterfaceActionInvoker1I17Color_t2555686324E6InvokeEPK10MethodInfoP12Il2CppObjectS0_
RTf:_MD5CryptoServiceProvider_ProcessFinalBlock_m2241588515
H2f:_ScrollRect_GetBounds_m449872505
Wj:_glIsVertexArray
ZFg:_SmallXmlParser_Read_m3485223434
EYg:_Int16_Parse_m2276856944
M8e:_InternalEnumerator_1__ctor_m3443175323_AdjustorThunk
Khd:__ZL42__ManagedRegistrationHelperFunction_CanvasPv
Ida:__ZN5Unity9Component8TransferI18StreamedBinaryReadILb0EEEEvRT_
S8d:__ZL131CustomAttributeData_t1084486650_CustomAttributesCacheGenerator_CustomAttributeData_t1084486650____ConstructorArguments_PropertyInfoP21CustomAttributesCache
fa:invoke_fff
qvk:_mbsinit
nBk:b14
Kfg:_RepeatContext_get_Expression_m255006542
_qc:__Z34RenderTexture_Get_Custom_PropWidthP12Il2CppObject
lid:__ZN2UI6Canvas17MainThreadCleanupEv
M3:__ZN6prcoreL12RemapGenericI17TexFormatARGB155517TexFormatRGBA8888EEvPKNS_9InnerInfoE
pKj:__ZN13Il2CppHashMapIPK19Il2CppGenericMethodPK26Il2CppGenericMethodIndicesN6il2cpp8metadata23Il2CppGenericMethodHashENS7_26Il2CppGenericMethodCompareENSt3__29allocatorINSA_4pairIK10KeyWrapperIS2_ES5_EEEEEC2EjRKS8_RKS9_
SOd:_TypeBuilder_HasElementTypeImpl_m1871001960
Uxg:_SecurityFrame__ctor_m2140076703_AdjustorThunk
sPi:_Array_Resize_TisVector2_t2156229523_m3382835435_gshared
$Dh:_DefaultComparer_Equals_m2458578172_gshared
j8a:__ZN7ApiGLES13CreateProgramEv
Qsa:__ZN11HaloManager7AddHaloEv
lgf:_Enumerator_VerifyState_m4003066746_gshared
RBa:__ZN4crnd12crn_unpackerD2Ev
Ex:__ZN9Scripting11UnityEngine12Experimental5Audio19AudioSampleProvider9InitProxyEv
lk:_emscripten_glTexImage2D
Aef:_Comparer_1_System_Collections_IComparer_Compare_m2537217645_gshared
Ena:__ZN16MeshVertexFormat20GetVertexDeclarationER9GfxDevice16VertexInputMasksPKS_
hS:__ZN18ScriptingArguments9AddStringEPKc
Jnk:_setup_header
oNg:_Char_ToString_m3588025615
dmh:_SetPropertyUtility_SetStruct_TisAspectMode_t3417192999_m1565063249_gshared
g5i:_Collection_1_get_Count_m2853642267_gshared
A5h:_ReadOnlyCollection_1_System_Collections_IList_get_IsReadOnly_m375760151_gshared
$be:__ZL53IEnvoyInfo_t2180778907_CustomAttributesCacheGeneratorP21CustomAttributesCache
dxh:_CryptoConvert_ToCapiKeyBlob_m3371450375
iza:__ZL23stbir__resize_arbitraryPvPKviiiS_iiiffffPfiij14stbir_datatype12stbir_filterS4_10stbir_edgeS5_16stbir_colorspace
u7b:__ZN19SpriteMeshGenerator4maskC2EP11ColorRGBA32iihj
Ifb:__Z18Transfer_BlittableI24GenerateTypeTreeTransferLb1E8Vector4fEvRK29SerializationCommandArgumentsR31RuntimeSerializationCommandInfo
rBk:b18
wk:_pthread_detach
ZRj:__ZN6il2cpp2vm19SocketPollingThread7RunLoopEv
jKd:_FontUpdateTracker_UntrackText_m1981515690
QYi:_List_1_System_Collections_ICollection_get_SyncRoot_m1937857346_gshared
XFe:__ZL64AnalyticsEventTracker_t2285229262_CustomAttributesCacheGeneratorP21CustomAttributesCache
Lob:__ZNSt3__213__stable_sortIRN10vector_mapI17ScriptingClassPtrPKN5Unity4TypeENS_4lessIS2_EENS_9allocatorINS_4pairIS2_S6_EEEEE13value_compareENS_11__wrap_iterIPSB_EEEEvT0_SJ_T_NS_15iterator_traitsISJ_E15difference_typeEPNSM_10value_typeEi
Mth:_SimpleCollator_FillSurrogateSortKeyRaw_m725998232
UZi:_List_1_AddEnumerable_m1284696147_gshared
a9f:_IPAddress_Equals_m1823478787
cZd:_Context_CreateNewContext_m3053563976
Qse:__ZL83RectOffset_t1369453676_CustomAttributesCacheGenerator_RectOffset_set_top_m713260669P21CustomAttributesCache
D2b:__ZN9ShaderLab25SerializedTextureProperty8TransferI24GenerateTypeTreeTransferEEvRT_
RQi:_Array_swap_TisVector2_t2156229523_TisVector2_t2156229523_m345092822_gshared
z4i:_Collection_1_get_Item_m1773274637_gshared
YZj:__ZN6il2cpp2gc19AppendOnlyGCHashMapINSt3__24pairIPK14Il2CppAssemblyP11Il2CppClassEEP24Il2CppReflectionAssembly17ReflectionMapHashIS9_ENS2_8equal_toIS9_EEEC2Ev
hbd:_tt_cmap14_char_next
uib:__Z18Transfer_BlittableI19StreamedBinaryWriteILb0EELb0EdEvRK29SerializationCommandArgumentsR31RuntimeSerializationCommandInfo
cN:__GLOBAL__sub_I_Runtime_Camera_RenderLoops_2_cpp
Rea:__ZN11NamedObject8TransferI18StreamedBinaryReadILb0EEEEvRT_
AEb:__ZNK17GPUSkinPoseBuffer12GetBoneCountEv
huf:_InvokableCall_remove_Delegate_m1376110510
LRg:_Hashtable_Clear_m3112193608
TRh:_UTF8Encoding_InternalGetByteCount_m771565606
V9j:__ZNK15dense_hashtableINSt3__24pairIK10KeyWrapperIP14Il2CppIUnknownEjEES5_N6il2cpp5utils11PointerHashIS3_EEN14dense_hash_mapIS5_jSB_NS5_14EqualsComparerINS0_8equal_toIS4_EEEENS0_9allocatorIS7_EEE9SelectKeyESG_SI_E12test_deletedEj
BDc:__Z18Transfer_BlittableI8JSONReadLb1EyEvRK29SerializationCommandArgumentsR31RuntimeSerializationCommandInfo
bVi:_List_1_System_Collections_IList_Remove_m3654336679_gshared
zxe:__ZL51GUILayer_t2783472903_CustomAttributesCacheGeneratorP21CustomAttributesCache
B5d:__ZL56IDictionary_2_t3177279192_CustomAttributesCacheGeneratorP21CustomAttributesCache
Gna:__ZN9GfxDevice20GetVertexDeclarationERK18VertexChannelsInfoNS_30VertexDeclarationMRUCacheIndexE
fnh:_Array_InternalArray__IEnumerable_GetEnumerator_TisUInt64_t4134040092_m1382862496_gshared
Tk:_emscripten_glMatrixMode
Q_f:_MaskableGraphic_UnityEngine_UI_IClippable_get_gameObject_m1739855597
eWg:_NumberFormatInfo_get_RawPercentGroupSizes_m97703232
Xxg:_SecurityFrame_get_Assembly_m2874566710
rXg:_Guid__ctor_m3562600567_AdjustorThunk
Ich:_DateTime_System_IConvertible_ToInt16_m3239820399
SI:__ZN11UnityEngine15CloudWebService14DataDispatcher16PrepareDataBlockERNS0_16SessionContainerE
$Eb:__ZN18GfxFramebufferGLES5ClearE13GfxClearFlagsRK10ColorRGBAffib
HVi:_List_1_Sort_m2163953164_gshared
Qph:_MonoProperty_StaticGetterAdapterFrame_TisRuntimeObject_m4131530968_gshared
knb:__ZL26Transfer_SimpleNativeClassI18StreamedBinaryReadILb0EE10RectOffsetLb0EEvRK29SerializationCommandArgumentsR31RuntimeSerializationCommandInfo
J7e:_InternalEnumerator_1_get_Current_m2316281569_gshared
iLb:__ZL12DepthPassJobPN21GfxDeviceAsyncCommand10ArgScratchEPKNS_3ArgE
W0b:__ZNSt3__26vectorIN9ShaderLab20SerializedSubProgram16TextureParameterENS_9allocatorIS3_EEE6assignINS_11__wrap_iterIPS3_EEEENS_9enable_ifIXaasr21__is_forward_iteratorIT_EE5valuesr16is_constructibleIS3_NS_15iterator_traitsISC_E9referenceEEE5valueEvE4typeESC_SC_
izf:_MonoBehaviour_IsInvoking_m3285132449
qmf:_Transform_1_EndInvoke_m1701794896_gshared
Syc:__ZN5Unity9rapidjson6WriterI16TempBufferWriterNS0_4UTF8IcEES4_13JSONAllocatorE11WriteDoubleEd
BTh:_Thread_SetCachedCurrentUICulture_m1729523031
v6a:__ZN14GfxDeviceStats16CopyAllDrawStatsERKS_
GXf:_InputField_get_minHeight_m2822964544
slf:__ZN23GenericVirtFuncInvoker1I27DictionaryEntry_t3123975638iE6InvokeEPK10MethodInfoP12Il2CppObjecti
ong:_ClientContext_set_ClientHelloProtocol_m4189379912
Vm:FUNCTION_TABLE_iiiiiiiiiiii
bjf:_KeyCollection_System_Collections_Generic_IEnumerableU3CTKeyU3E_GetEnumerator_m1982109872_gshared
Lpa:__ZN16GraphicsSettingsD0Ev
cP:__Z12FormatBufferPciPKcz
Xrd:__ZNSt3__26__treeINS_12__value_typeIN4core12basic_stringIcNS2_20StringStorageDefaultIcEEEE14CallbackArray3IRKS6_R8JSONReadbEEENS_19__map_value_compareIS6_SD_NS_4lessIS6_EELb1EEE13stl_allocatorISD_L18MemLabelIdentifier6ELi16EEE7destroyEPNS_11__tree_nodeISD_PvEE
n:cttz_i8
h6c:_UNITY_FT_GlyphLoader_Add
dvd:__ZN9Scripting11UnityEngine10Networking29UnityWebRequestAsyncOperation9InitProxyEv
ovj:_AudioListener_INTERNAL_CALL_ReadExtensionPropertyName_m330480156
pOe:__ZL78LayoutRebuilder_t541313304_CustomAttributesCacheGenerator_U3CU3Ef__mgU24cache0P21CustomAttributesCache
ixi:__Z53RuntimeInvoker_Interval_t1802865632_Int32_t2950945753PFvvEPK10MethodInfoPvPS4_
ibh:_Convert_ToUInt16_m867476252
Ql:_emscripten_glViewport
elc:__Z21GenerateTilingAreaJobP22GenerateTilingAreaInfoj
mkk:__ZN6il2cpp6icalls8mscorlib6System15MonoCustomAttrs17IsDefinedInternalEP12Il2CppObjectP20Il2CppReflectionType
dLh:_Enumerator__ctor_m40451936_AdjustorThunk
Uyi:__Z53RuntimeInvoker_Vector3_t3722313464_Single_t1397266774PFvvEPK10MethodInfoPvPS4_
SEj:_SkeletonBone_t4134054672_marshal_pinvoke_back
qbe:__ZL115SynchronizationAttribute_t3946661254_CustomAttributesCacheGenerator_SynchronizationAttribute_IsContextOK_m324067792P21CustomAttributesCache
tba:__ZN9Scripting11UnityEngine10CacheIndex9InitProxyEv
HXe:_CustomAttributeData_get_Constructor_m489601093
E7c:_cff_parse_font_bbox
Vsh:_MSCompatUnicodeTable_Category_m1834196420
ccc:__Z35Application_Get_Custom_PropIsEditorv
nPa:__ZN14PlayerSettings23VirtualRedirectTransferER18StreamedBinaryReadILb0EE
Wni:__Z85RuntimeInvoker_Void_t1185182177_Int32_t2950945753_Int32_t2950945753_Int32_t2950945753PFvvEPK10MethodInfoPvPS4_
Rhh:_Double_CompareTo_m3151899116
Tsk:__ZN6il2cpp2os5Event5ResetEv
Tad:_tt_name_ascii_from_other
Ptj:_ToggleGroup__ctor_m3308114662
rck:__ZN6il2cpp8metadata15GenericMetadata17InflateParametersEPK13ParameterInfohPK20Il2CppGenericContextb
Qsg:_RSAParameters_t1728406613_marshal_pinvoke_back
gQi:_Array_Sort_TisUILineInfo_t4195266810_m3737783007_gshared
mBf:_PlayableAsset_Internal_CreatePlayable_m2550417712
rFf:_RenderTexture_get_width_m2160921386
Fog:_Context_get_LastHandshakeMsg_m2730646725
rje:__ZL59ResolveEventArgs_t1779456501_CustomAttributesCacheGeneratorP21CustomAttributesCache
h5c:__ZN13dynamic_arrayIN4core17string_with_labelILi35EEELj0EE6insertEPS2_jRKS2_
Sea:__ZN4PPtrI6SpriteE8TransferI18StreamedBinaryReadILb0EEEEvRT_
RCe:__ZL64GUIUtility_t1868551600_CustomAttributesCacheGenerator_s_SkinModeP21CustomAttributesCache
QQc:__ZN34b2SolveDiscreteIslandBodySleepTask7TaskJobEPS_j
P9c:_otv_LigatureSubst_validate
Kwj:__ZL24UnresolvedVirtualCall_19P12Il2CppObject25DSAParameters_t1885824122PK10MethodInfo
tsb:__Z25SetNeedToPerformRenderingb
jxk:__ZN10__cxxabiv116__shim_type_infoD2Ev
gHf:_Touch_get_phase_m214549210
ekj:_Alternation__ctor_m1629257642
And:__ZN8JSONRead12TransferPairINSt3__24pairIN4core12basic_stringIcNS3_20StringStorageDefaultIcEEEEN11UnityEngine9Analytics16LimitEventConfigEEEEEvRT_17TransferMetaFlagsPKN5Unity9rapidjson12GenericValueINSG_4UTF8IcEE13JSONAllocatorEE
Vga:__ZN10GameObjectD2Ev
wLb:__ZN14qsort_internal30FindAndMovePivotToLastPositionIP15RODataDepthPassi17ROSorterDepthPassEEvT_S4_T0_T1_
sRe:_MethodAccessException__ctor_m3411913042
NGh:_EqualityComparer_1__ctor_m1767308726_gshared
YTb:__ZN12CullingGroup10SendEventsEPK17CullingGroupEventj
ESj:__ZNSt3__214__split_bufferI6pollfdRNS_9allocatorIS1_EEED2Ev
iWg:_NumberFormatInfo_get_PerMilleSymbol_m1360140831
flg:_EncryptedData_get_EncryptionAlgorithm_m905084934
Qmh:_Array_InternalArray__IEnumerable_GetEnumerator_TisCustomAttributeTypedArgument_t2723150157_m1333528454_gshared
nCd:_PointerInputModule__ctor_m3728889932
SEa:__ZThn32_NK8Renderer8GetLayerEv
CLh:_Enumerator_System_Collections_IEnumerator_Reset_m2915500989_gshared
J7c:_cff_parse_vsindex
Qak:__ZN30dense_hashtable_const_iteratorINSt3__24pairIK10KeyWrapperINS1_IPKcS4_EEEiEES6_24NamespaceAndNamePairHashN14dense_hash_mapIS6_iS9_NS6_14EqualsComparerI26NamespaceAndNamePairEqualsEENS0_9allocatorIS8_EEE9SelectKeyESD_SF_E30advance_past_empty_and_deletedEv
PYg:_Int32_ValidDigit_m1059003769
RGk:_emscripten_glTexParameterfv__wrapper
FEf:_RectTransform_INTERNAL_get_sizeDelta_m2173368204
Lje:__ZL54MemberFilter_t426314064_CustomAttributesCacheGeneratorP21CustomAttributesCache
EYf:_LayoutGroup_get_rectTransform_m442863741
Q9a:__Z18Transfer_BlittableI14SafeBinaryReadLb1E9BoundsIntEvRK29SerializationCommandArgumentsR31RuntimeSerializationCommandInfo
dgc:__ZN2UI13RectTransform17GetLocalPositionZEv
UDk:b63
P2j:_il2cpp_method_get_param_count
_X:__ZNK5Unity4Type21FindAllDerivedClassesER13dynamic_arrayIPKS0_Lj0EENS0_17TypeFilterOptionsE
vcc:__ZN10systeminfo19ISOToSystemLanguageERN4core12basic_stringIcNS0_20StringStorageDefaultIcEEEE
RYj:__ZNK15dense_hashtableINSt3__24pairIK10KeyWrapperINS1_IPK12PropertyInfoP11Il2CppClassEEEjEES9_17ReflectionMapHashIS8_EN14dense_hash_mapIS9_jSD_NS9_14EqualsComparerINS0_8equal_toIS8_EEEENS0_9allocatorISB_EEE9SelectKeyESI_SK_E3endEv
zYc:__ZN11Rigidbody2D8TransferI19StreamedBinaryWriteILb0EEEEvRT_
Lai:__ZN28GenericInterfaceFuncInvoker2Ii39CustomAttributeNamedArgument_t287865710S0_E6InvokeEPK10MethodInfoP12Il2CppObjectS0_S0_
bSi:_LayoutGroup_SetProperty_TisAxis_t3613393006_m3591044743_gshared
r_h:_UnauthorizedAccessException__ctor_m40101894
j3d:__ZL69RuntimeArray_CustomAttributesCacheGenerator_Array_SetValue_m282347242P21CustomAttributesCache
rud:__ZN22BaseUnityConnectClient14AppRunningTickEj
Ped:_ps_dimension_done
rgd:__Z46Register_UnityEngine_TextGenerator_Dispose_cppv
Zqi:__Z67RuntimeInvoker_GCHandle_t3351438187_RuntimeObject_Int32_t2950945753PFvvEPK10MethodInfoPvPS4_
Vhh:_Double_Parse_m4153729520
mii:_IndexedSet_1_AddUnique_m861843892_gshared
Oke:__ZL59HybridDictionary_t4070033136_CustomAttributesCacheGeneratorP21CustomAttributesCache
RFa:__ZN16LightmapSettings8TransferI14SafeBinaryReadEEvRT_
nzb:__ZN17BufferManagerGLES13ReleaseBufferEP14DataBufferGLES
nmg:_CipherSuite_Write_m1172814058
KPe:_SynchronizedWriter_Write_m301917713
SP:__ZN9profiling6MarkerC2EPKc13ProfilerGroupNS0_5FlagsE
def:__ZN21InterfaceFuncInvoker1Ii22UILineInfo_t4195266810E6InvokeEjP11Il2CppClassP12Il2CppObjectS0_
yDc:__Z18Transfer_BlittableI8JSONReadLb1EjEvRK29SerializationCommandArgumentsR31RuntimeSerializationCommandInfo
CYe:_ConstructorBuilder_get_IsCompilerContext_m3364441562
htf:_Debug_LogWarning_m3752629331
lfc:__Z13RegisterClassIN2UI13RectTransformEEvPKc
$aa:__ZN9Scripting11UnityEngine7Texture9InitProxyEv
U9h:_ReadOnlyCollection_1_System_Collections_Generic_IListU3CTU3E_RemoveAt_m4037795630_gshared
tsi:__Z117RuntimeInvoker_Void_t1185182177_RuntimeObject_Int32_t2950945753_Int32_t2950945753_Int32_t2950945753_Int32_t2950945753PFvvEPK10MethodInfoPvPS4_
bJa:__ZNK13ScreenManager17GetFullscreenModeEv
KC:__Z30GetAudioSpatializerDefinitionsR13dynamic_arrayIP29AudioEffectInternalDefinitionLj0EE31UnityAudioEffectDefinitionFlags
FLe:__ZL81U3CMouseDragOutsideRectU3Ec__Iterator1_t3909241878_CustomAttributesCacheGeneratorP21CustomAttributesCache
_Ed:_U3COnFinishSubmitU3Ec__Iterator0_Reset_m3632769946
ip:stackSave
qL:__ZN5Unity9rapidjson15GenericDocumentINS0_4UTF8IcEE13JSONAllocatorNS0_12CrtAllocatorEE6StringEPKcjb
bHd:_ColorTween_get_targetColor_m1724075482_AdjustorThunk
ifd:_ps_dimension_end
Isc:__Z41Register_UnityEngine_Mesh_Internal_Createv
M1a:__ZN16MemoryFileSystem5TouchER13FileEntryData
dLa:__ZN14SpriteRenderer23VirtualRedirectTransferER24GenerateTypeTreeTransfer
pck:__ZNK15dense_hashtableI10KeyWrapperIP18Il2CppGenericClassES3_N6il2cpp8metadata22Il2CppGenericClassHashEN14dense_hash_setIS3_S6_NS3_14EqualsComparerINS5_25Il2CppGenericClassCompareEEENSt3__29allocatorIS3_EEE8IdentityESA_SD_E12test_deletedERK30dense_hashtable_const_iteratorIS3_S3_S6_SF_SA_SD_E
rOc:__ZNSt3__27__sort3IRN18Overlap2DQueryBase29ColliderHitsByDepthComparitorEPP10Collider2DEEjT0_S7_S7_T_
dMh:_Enumerator_Dispose_m2498245804_AdjustorThunk
v6g:_Console_Open_m3077673205
cgj:_X509StoreManager_get_CurrentUser_m4040993045
FVb:__ZN6Camera9SetAspectEf
Poh:_Array_InternalArray__IndexOf_TisDateTime_t3738529785_m2463359116_gshared
wa:invoke_viiffiii
G6e:_InternalEnumerator_1_MoveNext_m4138204635_gshared
hIk:_emscripten_glBindVertexArray__wrapper
Sek:__ZN6il2cpp6icalls8mscorlib6System4Enum19get_underlying_typeEP20Il2CppReflectionType
Slj:_Parser_IsECMAScript_m674158805
Sx:__ZN10ObjectPoolIN4FMOD3DSPENS0_4DSPIEE7GetFreeEi
Uha:__ZN9Transform37InitializeTransformHierarchyRecursiveER18TransformHierarchyRii
u8a:__ZN26SinglePassStereoSupportExt23SetupStereoMatrixParamsE21MonoOrStereoscopicEye24BuiltinShaderMatrixParamRK10Matrix4x4f
rPi:_Array_Resize_TisVector2_t2156229523_m1564542050_gshared
c5a:__ZN9GfxDevice23CreateAsyncReadbackDataEv
Sud:__GLOBAL__sub_I_artifacts_WebGL_codegenerator_0_cpp_7008
rvd:__ZNK25UnityWebRequestJavaScript16GetUploadedBytesEv
bF:__Z46AudioListener_CUSTOM_GetNumExtensionPropertiesP12Il2CppObject
iTj:__ZN6il2cpp6icalls8mscorlib6SystemL16CheckMemberMatchI9FieldInfoNS_5utils10functional6FilterINSt3__212basic_stringIcNS8_11char_traitsIcEENS8_9allocatorIcEEEENS5_13VmStringUtils23CaseInsensitiveComparerEEEEEbPKT_PK11Il2CppClassSN_iRKT0_
Wxi:__Z84RuntimeInvoker_RuntimeObject_RayU26_t3515555043_Single_t1397266774_Int32_t2950945753PFvvEPK10MethodInfoPvPS4_
Hva:__ZN19ShaderPropertySheet38CopyTextureWithAuxiliaryPropertiesFromERKN9ShaderLab16FastPropertyNameERKS_
aph:_Array_InternalArray__IndexOf_TisMonoResource_t4103430009_m1351751258_gshared
ISg:_FieldAccessException__ctor_m3583219052
mfh:_Decimal_System_IConvertible_ToDouble_m3125524987
rdc:__Z57Register_UnityEngine_Transform_INTERNAL_set_localPositionv
Vye:__ZL105RectTransform_t3704657025_CustomAttributesCacheGenerator_RectTransform_INTERNAL_get_anchorMax_m1239315619P21CustomAttributesCache
cyb:__ZN13GfxDeviceGLES26SetRandomWriteTargetBufferEi15ComputeBufferID
Ink:_GC_split_block
mPi:_Array_Resize_TisUICharInfo_t75501106_m3903846016_gshared
y6h:_ReadOnlyCollection_1_System_Collections_Generic_ICollectionU3CTU3E_get_IsReadOnly_m3887826072_gshared
IYj:__ZNK15dense_hashtableINSt3__24pairIK10KeyWrapperINS1_IPK12PropertyInfoP11Il2CppClassEEEjEES9_17ReflectionMapHashIS8_EN14dense_hash_mapIS9_jSD_NS9_14EqualsComparerINS0_8equal_toIS8_EEEENS0_9allocatorISB_EEE9SelectKeyESI_SK_E8min_sizeEjj
NGb:__ZZ23InitPlayerLoopCallbacksvEN49EarlyUpdateResetFrameStatsAfterPresentRegistrator7ForwardEv
Nvk:_poll
A6h:_ReadOnlyCollection_1_System_Collections_IEnumerable_GetEnumerator_m1671097018_gshared
c_h:_UInt64_ToString_m1529093114_AdjustorThunk
RXe:__ZN21InterfaceFuncInvoker1I39CustomAttributeNamedArgument_t287865710iE6InvokeEjP11Il2CppClassP12Il2CppObjecti
oWd:_TypeLibImportClassAttribute__ctor_m2302178978
uuh:_Escape_t3294788190_marshal_pinvoke
_Wf:_InputField_OnUpdateSelected_m1118869681
sak:__ZN6il2cpp2vmL36AddNestedTypesToNametoClassHashTableEP40Il2CppNameToTypeDefinitionIndexHashTablePKcRKNSt3__212basic_stringIcNS5_11char_traitsIcEENS5_9allocatorIcEEEEP11Il2CppClass
dPf:_SerializationException__ctor_m3131447373
_Ba:__ZN4crnd12crn_unpacker11unpack_dxt1EPPhjjj
g$j:__ZN15dense_hashtableINSt3__24pairIK10KeyWrapperIPK10Il2CppTypeEjEES6_N6il2cpp8metadata14Il2CppTypeHashEN14dense_hash_mapIS6_jSB_NS6_14EqualsComparerINSA_26Il2CppTypeEqualityComparerEEENS0_9allocatorIS8_EEE9SelectKeyESF_SH_E14squash_deletedEv
iw:__ZL55__ManagedRegistrationHelperFunction_CoordinateFramePairPv
k5b:__ZNK11ICallString6ToUTF8Ev
tKi:__Z39RuntimeInvoker_MonoResource_t4103430009PFvvEPK10MethodInfoPvPS4_
CIj:__ZN15dense_hashtableINSt3__24pairIK10KeyWrapperIPK22Il2CppGenericParameterEP11Il2CppClassEES6_N6il2cpp5utils11PointerHashIS4_EEN14dense_hash_mapIS6_S9_SE_NS6_14EqualsComparerINS0_8equal_toIS5_EEEENS0_9allocatorISA_EEE9SelectKeyESJ_SL_E15insert_noresizeERKSA_
Vkf:_Transform_1_Invoke_m2468053724_gshared
iri:__Z51RuntimeInvoker_Void_t1185182177_TimeSpan_t881159249PFvvEPK10MethodInfoPvPS4_
YH:__ZL60__ManagedRegistrationHelperFunction_ClothSkinningCoefficientPv
xLb:__ZNSt3__211__sift_downIR17ROSorterDepthPassP15RODataDepthPassEEvT0_S5_T_NS_15iterator_traitsIS5_E15difference_typeES5_
Uwa:__ZN18UnityPropertySheet11UnityTexEnvC2Ev
IHg:_ArgumentException__ctor_m3200406061
MW:__ZN12FileAccessor4ReadEyyPvPy
Gzj:__ZL25UnresolvedVirtualCall_177P12Il2CppObject25RaycastResult_t3360306849PK10MethodInfo
rob:__Z29Transfer_Blittable_ArrayFieldI18StreamedBinaryReadILb0EE11QuaternionfEvRT_R9ArrayInfoRK23StaticTransferFieldInfo
n$i:_List_1_set_Capacity_m2777925136_gshared
hVb:__ZN13RenderTexture9SetHeightEi
qV:__ZN17PersistentManager25PreallocateObjectThreadedEiNS_9LockFlagsE
ipe:__ZL59LightmapBakeType_t1497855756_CustomAttributesCacheGeneratorP21CustomAttributesCache
$mg:_CipherSuiteCollection_get_IsFixedSize_m3127823890
Cpa:__ZN16LevelGameManager8TransferI24GenerateTypeTreeTransferEEvRT_
adf:_InternalEnumerator_1_System_Collections_IEnumerator_get_Current_m3537550566_gshared
O0f:_Scrollbar_UpdateVisuals_m2492252165
Uej:_PKCS12_get_Keys_m2165478388
T6j:__ZN6il2cpp6icalls8mscorlib6System2IO6MonoIO17GetFileAttributesEP12Il2CppStringPi
gTf:_HMACMD5__ctor_m3008609295
Zce:__ZL61X509KeyStorageFlags_t441861693_CustomAttributesCacheGeneratorP21CustomAttributesCache
Vdh:_DateTime_ToString_m2992030064_AdjustorThunk
Lbd:_tt_cmap8_char_index
S6b:__Z14tessMeshDeleteP8TESSmeshP12TESShalfEdge
GS:__Z24scripting_class_get_name17ScriptingClassPtr
lag:_Oid__ctor_m911618594
muj:_VerticalLayoutGroup_CalculateLayoutInputHorizontal_m1404590745
UY:__ZN13RuntimeStaticI15GUIEventManagerLb0EE13StaticDestroyEPv
wSe:_ShortComparer_Compare_m1881262465
Gbb:__Z29Transfer_Blittable_ArrayFieldI14SafeBinaryReadjEvRT_R9ArrayInfoRK23StaticTransferFieldInfo
ie:_emscripten_set_keydown_callback
bDg:_EncoderReplacementFallback__ctor_m1483565116
Ofg:_Interpreter_IsWordChar_m2858055765
JRg:_Hashtable_CopyTo_m2905447224
Waa:__ZN9Scripting11UnityEngine29CustomRenderTextureUpdateZone12CleanupProxyEv
UW:__ZN12FileAccessorC2Ev
_Ii:__Z96RuntimeInvoker_Void_t1185182177_BooleanU5BU5DU26_t3454195888_Int32_t2950945753_Int32_t2950945753PFvvEPK10MethodInfoPvPS4_
Vxi:__Z73RuntimeInvoker_Void_t1185182177_Vector2U26_t2376273893_RayU26_t3515555043PFvvEPK10MethodInfoPvPS4_
LGh:_EqualityComparer_1_System_Collections_IEqualityComparer_Equals_m3855544238_gshared
cFa:__ZNK8Renderer29FlattenPerMaterialCustomPropsER22PerThreadPageAllocatorR10RenderNode
cii:_EventFunction_1_Invoke_m2429482587_gshared
fRj:_CertificateHandler_Dispose_m2100863831
qZc:__ZN23ColliderTilingExtensionC2Ev
xUj:__ZN6il2cpp2vm7Runtime12GetConfigDirEv
luj:_VerticalLayoutGroup__ctor_m321345421
Cv:__ZN4PPtrI13MonoBehaviourE8TransferI18StreamedBinaryReadILb0EEEEvRT_
_Nc:__ZNSt3__27__sort3IR22InverseDepthComparitorP8DepthHitEEjT0_S5_S5_T_
aLh:_Enumerator_MoveNext_m1177880931_AdjustorThunk
vQc:__ZN14qsort_internal18QSortSingleJobDataIPN25b2SynchronizeFixturesTask14b2DeferredMoveEiPFbRKS2_S5_EE7SortJobEPS8_
SFf:_SendMouseEvents_SetMouseMoved_m2822596724
tBe:__ZL82Event_t2956885303_CustomAttributesCacheGenerator_Event_get_commandName_m4275147343P21CustomAttributesCache
lCj:_TextGenerator_Populate_m194003733
zZe:_DerivedType_get_FullName_m1025358827
mRf:_CryptoConfig_MapNameToOID_m2044758263
S6:__ZL50__ManagedRegistrationHelperFunction_SetupCoroutinePv
Lr:__ZN13ConstraintJob23ConstraintComponentDataC2ERKS0_
lLe:__ZL70InputField_t3762917431_CustomAttributesCacheGenerator_m_OnValueChangedP21CustomAttributesCache
Wqb:__Z39WriteQueueForTransferSignatureIntoCacheRK31TransferFunctionScriptingTraitsRK24TransferRequestSignature17ScriptingClassPtrR23CachedSerializationDataRb
$Ta:__ZN13RenderManager18UpdateAllRenderersEv
IDg:_Encoding_get_UTF8UnmarkedUnsafe_m320312322
KTh:_Thread_Thread_free_internal_m333849022
lAc:__Z35Transfer_Blittable_FixedBufferFieldI9JSONWritexEvRK29SerializationCommandArgumentsR31RuntimeSerializationCommandInfo
nTc:__ZN12FixedJoint2D23VirtualRedirectTransferER17RemapPPtrTransfer
dhj:_CostDelegate_BeginInvoke_m2828452701
Cpd:__ZN22BaseUnityConnectClient30OnEnteringStatePausedOrStoppedEv
sVc:__ZN10ClipperLib7Clipper18SwapPositionsInAELEPNS_5TEdgeES2_
r9i:_Collection_1_ConvertItem_m1556170494_gshared
Spc:__Z25scripting_raise_exception21ScriptingExceptionPtr
c8g:_DateTime_ToUniversalTime_m1945318289
ihh:_DllNotFoundException__ctor_m1156705135
iOg:_ArrayList_ToArray_m3827492363
G4f:_Slider_get_stepSize_m1423227661
ZZh:_UInt64_Parse_m819899889
Fug:_SymmetricAlgorithm_set_IV_m3196220308
u$e:_GenericTypeParameterBuilder_GetHashCode_m852224381
Abh:_Convert_ToUInt32_m1453583008
OTg:_CompareInfo_Compare_m894311506
zha:__Z24MergeTransformComponentsR9TransformS0_b
WMj:__ZNK15dense_hashtableI10KeyWrapperIPK19Il2CppGenericMethodES4_N6il2cpp8metadata23Il2CppGenericMethodHashEN14dense_hash_setIS4_S7_NS4_14EqualsComparerINS6_26Il2CppGenericMethodCompareEEENSt3__29allocatorIS4_EEE8IdentityESB_SE_E10test_emptyEj
Yyd:_EventSystem_UpdateModules_m3643806022
vgk:__ZN6il2cpp2gc16GarbageCollector10StartWorldEv
yNc:__ZN15b2CircleContactD0Ev
rEj:_AnimationOffsetPlayable__cctor_m1029460816
sfi:_InvokableCall_1__ctor_m2610016537_gshared
Dwg:_Evidence_get_SyncRoot_m2835084965
cmh:_SetPropertyUtility_SetStruct_TisTouchScreenKeyboardType_t1530597702_m2455393348_gshared
ZCh:_DefaultComparer__ctor_m2280347240_gshared
zde:__ZL59ICryptoTransform_t2733259762_CustomAttributesCacheGeneratorP21CustomAttributesCache
HHc:__ZN15AnchoredJoint2D16CheckConsistencyEv
unb:__Z35Transfer_Blittable_FixedBufferFieldI18StreamedBinaryReadILb0EEyEvRK29SerializationCommandArgumentsR31RuntimeSerializationCommandInfo
Goa:__Z37GetBarycentricCoordinatesForOuterCellPPK8Vector3fRK13dynamic_arrayIS_Lj0EERS0_RK11TetrahedronR8Vector4f
Uj:_emscripten_glVertexAttribPointer
Jxk:__ZNSt11logic_errorD0Ev
Jtb:__ZN14PreloadManager26UpdatePreloadingSingleStepENS_21UpdatePreloadingFlagsEi
Oii:_TweenRunner_1__ctor_m340723704_gshared
u3f:_ScrollRect_SetLayoutHorizontal_m3078869633
u6g:_Console_OpenStandardInput_m3262421490
jth:_SimpleCollator__ctor_m1587210019
zzj:__ZL25UnresolvedVirtualCall_170P12Il2CppObject40CustomAttributeTypedArgument_t2723150157S1_PK10MethodInfo
Y8b:__Z57Register_UnityEngine_RectTransform_INTERNAL_set_anchorMinv
rbh:_Convert_ToUInt16_m1480956416
g4:__ZN6prcoreL25inner_stretch_i8_bilinearEPKNS_9InnerInfoE
HVa:__ZL30RegisterFilteredObjectCallbackPP12Il2CppObjectiPv
q9h:_ReadOnlyCollection_1_System_Collections_Generic_IListU3CTU3E_RemoveAt_m3317217538_gshared
$Ae:__ZL54AudioSource_t3935305588_CustomAttributesCacheGeneratorP21CustomAttributesCache
eLc:__ZN16PhysicsManager2D19ApplyParticleForcesER13dynamic_arrayI21BatchedColliderResultLj0EE
nJ:__ZN11UnityEngine15CloudWebService16SessionContainer24GetSessionHeaderJsonDataERKN4core12basic_stringIcNS2_20StringStorageDefaultIcEEEERNS2_13StringBuilderE
cZe:_DerivedType_GetEvent_m4157575360
kY:__ZN13RuntimeStaticI21AssetReferenceStorageLb0EE13StaticDestroyEPv
Gae:__ZL56_MethodBuilder_t600455149_CustomAttributesCacheGeneratorP21CustomAttributesCache
VQg:_Comparer__ctor_m2831654082
gre:__ZL54PhysicsUpdate_t81124440_CustomAttributesCacheGeneratorP21CustomAttributesCache
i2h:_Collection_1_ConvertItem_m618594517_gshared
DDi:__Z72RuntimeInvoker_Bounds_t2266837910_RuntimeObject_Matrix4x4U26_t3606180965PFvvEPK10MethodInfoPvPS4_
yci:__ZN28GenericInterfaceFuncInvoker2IbiiE6InvokeEPK10MethodInfoP12Il2CppObjectii
Fgk:__ZN6il2cpp6icalls8mscorlib6System9AppDomain22InternalGetProcessGuidEP12Il2CppString
Q5c:_cf2_builder_moveTo
Whe:__ZL79Convert_t2465617642_CustomAttributesCacheGenerator_Convert_ToUInt32_m3188121845P21CustomAttributesCache
imi:__Z48RuntimeInvoker_RuntimeObject_Decimal_t2948259380PFvvEPK10MethodInfoPvPS4_
_Th:_ThreadStart_EndInvoke_m3768045394
Et:__ZN9Scripting11UnityEngine10Animations16ConstraintSource9InitProxyEv
jrc:__Z34Quaternion_CUSTOM_Inverse_InjectedRK11QuaternionfRS_
pTj:__ZNSt3__214__split_bufferIP9FieldInfoRNS_9allocatorIS2_EEEC2EjjS5_
uPf:_StreamingContext__ctor_m2604757771_AdjustorThunk
dgb:__Z18Transfer_BlittableI24GenerateTypeTreeTransferLb1EjEvRK29SerializationCommandArgumentsR31RuntimeSerializationCommandInfo
mYj:__ZNK15dense_hashtableINSt3__24pairIK10KeyWrapperINS1_IPK11Il2CppImageP11Il2CppClassEEEjEES9_17ReflectionMapHashIS8_EN14dense_hash_mapIS9_jSD_NS9_14EqualsComparerINS0_8equal_toIS8_EEEENS0_9allocatorISB_EEE9SelectKeyESI_SK_E10test_emptyERK30dense_hashtable_const_iteratorISB_S9_SD_SM_SI_SK_E
AIj:__ZN6il2cpp2os12FastAutoLockD2Ev
v8d:__ZL68AssemblyCopyrightAttribute_t836190902_CustomAttributesCacheGeneratorP21CustomAttributesCache
wfc:__ZNK28RectTransformPropertyBinding9BindValueER6ObjectRKN11UnityEngine9Animation14GenericBindingERNS3_10BoundCurveE
tra:__ZN11ColorRGBA328TransferI14SafeBinaryReadEEvRT_
E5i:_Collection_1_Add_m1736908447_gshared
X7c:_cff_vstore_done
wxi:__Z68RuntimeInvoker_Void_t1185182177_UInt16_t2177724958_SByte_t1669577662PFvvEPK10MethodInfoPvPS4_
z_h:__ZN25GenericVirtActionInvoker2IP12Il2CppObjectP39UnhandledExceptionEventArgs_t2886101344E6InvokeEPK10MethodInfoS1_S1_S3_
ySa:__ZN15ResourceManager10Dependency8TransferI24GenerateTypeTreeTransferEEvRT_
FTf:_MACTripleDES_HashFinal_m3613553534
tZh:_UInt64_System_IConvertible_ToChar_m2074245892
Hr:__ZN4core8hash_setIPN5Unity9ComponentENS_4hashIS3_EENSt3__28equal_toIS3_EEE4growEi
XRh:_UTF8Encoding_InternalGetBytes_m1965760031
Nf:_emscripten_glClearDepth
shc:__ZNK8GUILayer22GetTypeVirtualInternalEv
GDa:__ZN14SafeBinaryRead21TransferSTLStyleArrayINSt3__26vectorIN15QualitySettings14QualitySettingENS1_9allocatorIS4_EEEEEEvRT_17TransferMetaFlags
Ofi:_UnityAction_1__ctor_m3007623985_gshared
Kif:_KeyCollection__ctor_m2388548663_gshared
$Fi:__Z56RuntimeInvoker_Boolean_t97287965_ILTokenInfo_t2325775114PFvvEPK10MethodInfoPvPS4_
GQa:__ZNSt3__26vectorINS_4pairIPKN5Unity4TypeE7Hash128EENS_9allocatorIS7_EEE8__appendEj
es:__ZN4core8hash_setIPN5Unity9ComponentENS_4hashIS3_EENSt3__28equal_toIS3_EEE4growEv
lEc:__ZN8JSONRead21TransferSTLStyleArrayI13dynamic_arrayIaLj0EEEEvRT_17TransferMetaFlags
_7c:_cff_font_load
jhk:__GLOBAL__sub_I_LibraryLoader_cpp
Ipc:__Z13IsPathCreatedRKN4core12basic_stringIcNS_20StringStorageDefaultIcEEEE
ZJe:__ZL99Dropdown_t2274391225_CustomAttributesCacheGenerator_Dropdown_DelayedDestroyDropdownList_m2082128994P21CustomAttributesCache
jtf:_Debug_LogWarningFormat_m2535776735
oza:__ZL22stbir__encode_scanlineP11stbir__infoiPvPfiii
Twj:__ZL24UnresolvedVirtualCall_28P12Il2CppObjectS0_iiPK10MethodInfo
AVd:_ExternalException__ctor_m2877839282
O0c:__ZN20QuadTreeNodeRenderer13StaticDestroyEPv
jK:__ZN11UnityEngine15CloudWebService20WebRequestRestClient5AbortEv
S9i:_Collection_1_InsertItem_m954500348_gshared
ckj:_Regex_Matches_m2080913806
rgc:__ZN9Transform12CleanupClassEv
mKe:__ZL57FontData_t746620069_CustomAttributesCacheGenerator_m_FontP21CustomAttributesCache
xxf:_Mathf_Sin_m3411839043
j5c:_UNITY_FT_Set_Pixel_Sizes
WVe:_OperatingSystem_Clone_m1122165140
sTi:_GameObject_AddComponent_TisRuntimeObject_m3469369570_gshared
qAe:__ZL81AudioListenerExtension_t3242956547_CustomAttributesCacheGenerator_m_audioListenerP21CustomAttributesCache
Cge:__ZL59AttributeTargets_t1784037988_CustomAttributesCacheGeneratorP21CustomAttributesCache
lse:__ZL61ThreadedLoadingDebug_t53594427_CustomAttributesCacheGeneratorP21CustomAttributesCache
x3j:__ZN6il2cpp2vmL24thread_cleanup_on_cancelEPv
vXi:_List_1_RemoveAll_m3165362277_gshared
tWh:_Type_type_is_subtype_of_m1406623598
W6:__ZL54__ManagedRegistrationHelperFunction_SpriteAtlasManagerPv
wSh:_Thread_get_CurrentThread_m4142136012
Una:__Z30ProcessDynamicBatchGeometryJobP25DynamicVBOGeometryJobDataj
_Lb:__ZNSt3__27__sort4IRNS_6__lessI11CulledLightS2_EEPS2_EEjT0_S6_S6_S6_T_
p0j:__ZN6il2cpp2vm14TypeNameParser26ParseArrayModifierOptionalEv
_T:__Z26scripting_object_get_class18ScriptingObjectPtr
W5j:__ZN6il2cpp6icalls8mscorlib6System10Reflection8Assembly13get_code_baseEP24Il2CppReflectionAssemblyb
PQc:__ZN34b2SolveDiscreteIslandBodySleepTaskD0Ev
zRa:__ZNSt3__26vectorIN4core12basic_stringIcNS1_20StringStorageDefaultIcEEEE13stl_allocatorIS5_L18MemLabelIdentifier13ELi16EEE7reserveEj
uSf:_DSASignatureDeformatter__ctor_m2889130126
Cdg:_X509ChainElementCollection_Clear_m2271223414
qic:__ZNK28MonoBehaviourPropertyBinding15GenerateBindingERKN4core12basic_stringIcNS0_20StringStorageDefaultIcEEEEbRN11UnityEngine9Animation14GenericBindingE
LEf:_RectTransform_INTERNAL_set_pivot_m1160676233
m0i:_List_1_set_Item_m35836043_gshared
EMe:__ZL70ScrollRect_t4137855814_CustomAttributesCacheGenerator_m_OnValueChangedP21CustomAttributesCache
tdg:_X509ChainElementCollection__ctor_m3424079155
uTf:_HMACSHA512__cctor_m4155933671
lhj:_LinkStack_Push_m3081279930
whf:_Enumerator_MoveNext_m1107569389_gshared
qTj:__ZNSt3__26vectorIP9FieldInfoNS_9allocatorIS2_EEE26__swap_out_circular_bufferERNS_14__split_bufferIS2_RS4_EE
Zhi:_UnityEvent_3_GetDelegate_m1156357290_gshared
$hk:__ZN6il2cpp6icalls8mscorlib6System11Environment15internalGetHomeEv
r8e:_InternalEnumerator_1__ctor_m4200721464_gshared
Yxf:_Matrix4x4_GetHashCode_m4034747639_AdjustorThunk
DUd:_ResourceCacheItem_t51292791_marshal_pinvoke_cleanup
Mca:__ZNK5Unity9Component7GetNameEv
UTj:__ZNSt3__214__split_bufferIN6il2cpp6icalls8mscorlib6System12PropertyPairERNS_9allocatorIS5_EEEC2EjjS8_
eWb:__Z23FindMonoScriptFromClass17ScriptingClassPtr
Iug:_SymmetricAlgorithm_get_KeySize_m4185004893
wVi:_List_1_GetEnumerator_m232588170_gshared
hZf:_U3CDelayedSetDirtyU3Ec__Iterator0_Reset_m160466733
fVc:__ZNSt3__26vectorIPN10ClipperLib6OutRecENS_9allocatorIS3_EEE21__push_back_slow_pathIRKS3_EEvOT_
F_i:_List_1_System_Collections_IList_Remove_m1070694895_gshared
yoj:_LayoutCache__ctor_m3885940174
GIa:__ZN13ScreenManagerD0Ev
jEj:_AnimationMotionXToDeltaPlayable_GetHandle_m1319190040_AdjustorThunk
nJc:__ZNK11b2RopeJoint16GetReactionForceEf
Wcj:_TlsServerSettings__ctor_m373357120
sZh:_UInt64_System_IConvertible_ToByte_m1501504925_AdjustorThunk
ZBj:_TextGenerator_Invalidate_m1072346986
Lpg:_TlsClientHello_ProcessAsTls1_m2549285167
FLi:__Z74RuntimeInvoker_Boolean_t97287965_UIVertex_t4057497605_UIVertex_t4057497605PFvvEPK10MethodInfoPvPS4_
h7h:_ReadOnlyCollection_1_System_Collections_IList_Clear_m3591436538_gshared
b2f:_ScrollRect_set_decelerationRate_m723367336
SCg:_EncoderExceptionFallback_Equals_m2760188920
Oaf:_InternalEnumerator_1__ctor_m43405049_AdjustorThunk
reb:__Z18Transfer_BlittableI17RemapPPtrTransferLb1EjEvRK29SerializationCommandArgumentsR31RuntimeSerializationCommandInfo
bUf:_RC2CryptoServiceProvider_get_EffectiveKeySize_m3835262416
OTb:__ZNK15LODGroupManager17CalculateLODMasksERK13LODParametersfPhPf
UA:__ZN4FMOD6System7releaseEv
cib:__Z18Transfer_BlittableI19StreamedBinaryWriteILb0EELb1E8BitFieldEvRK29SerializationCommandArgumentsR31RuntimeSerializationCommandInfo
cLg:_Boolean_CompareTo_m3665076258
Nzg:_String_Split_m3580120853
zyh:_PrivateKeyInfo__ctor_m2811023496
pW:__Z18PathToAbsolutePathRKN4core12basic_stringIcNS_20StringStorageDefaultIcEEEE
LNd:_PropertyBuilder_GetCustomAttributes_m2917594003
upj:_GUILayoutUtility_LayoutFromEditorWindow_m2914699782
$gg:_BigInteger_SetBit_m1723423691
haa:__ZN9Scripting11UnityEngine12Experimental10PlayerLoop13PreLateUpdate9InitProxyEv
MEi:__Z78RuntimeInvoker_RuntimeObject_ObjectU26_t2146539884_RuntimeObject_RuntimeObjectPFvvEPK10MethodInfoPvPS4_
Knd:__ZN21UnityAnalyticsManager15ThreadedCleanupEv
gXc:__ZThn160_N17PolygonCollider2D5ResetEv
Uya:__ZL13BlitImageImplR14ImageReferenceiiRKS_NS_10ColorSpaceENS_8BlitModeEb
EFj:_Joint2D_get_connectedBody_m3200001184
aHa:__Z14resize_trimmedINSt3__26vectorI13dynamic_arrayI8Vector2fLj0EENS0_9allocatorIS4_EEEEEvRT_j
eOi:_Array_InternalArray__set_Item_TisColor32_t2600501292_m1891325855_gshared
tpb:__ZN10MonoScript23VirtualRedirectTransferER17RemapPPtrTransfer
vTi:_GameObject_GetComponentInChildren_TisRuntimeObject_m1310240902_gshared
Dkg:__ZN30GenericInterfaceActionInvoker2IP12Il2CppObjectP21EventArgs_t3591816995E6InvokeEPK10MethodInfoS1_S1_S3_
lue:__ZL69PersistentCall_t3407714124_CustomAttributesCacheGenerator_m_ArgumentsP21CustomAttributesCache
_za:__ZN29SerializeTraitsForStringTypesIN4core12basic_stringIcNS0_20StringStorageDefaultIcEEEEE8TransferI24GenerateTypeTreeTransferEEvRS4_RT_
Zpg:_TlsServerCertificateRequest_ProcessAsSsl3_m1084200341
Wra:__ZN16ReflectionProbes28GetMinBakedCubemapResolutionEv
vwg:_PermissionSet__ctor_m2328457660
ymf:_Enumerator__ctor_m1849900510_gshared
Hjk:__GLOBAL__sub_I_String_cpp
zIj:__ZN15dense_hashtableINSt3__24pairIK10KeyWrapperIPK22Il2CppGenericParameterEP11Il2CppClassEES6_N6il2cpp5utils11PointerHashIS4_EEN14dense_hash_mapIS6_S9_SE_NS6_14EqualsComparerINS0_8equal_toIS5_EEEENS0_9allocatorISA_EEE9SelectKeyESJ_SL_E6insertERKSA_
hXf:_InputField_GenerateCaret_m1459647218
fze:__ZL101SpriteAtlasManager_t3158462485_CustomAttributesCacheGenerator_SpriteAtlasManager_Register_m2413332465P21CustomAttributesCache
Mej:_X509CertificateEnumerator__ctor_m85694331
hzb:__ZN14DataBufferGLES16RecreateWithDataEjPKv
ida:__Z29GetGlobalAllowNameConversionsv
ash:_Array_InternalArray__Insert_TisTableRange_t3332867892_m558285859_gshared
WWb:__ZN8Material8SetColorEN9ShaderLab16FastPropertyNameERK10ColorRGBAf
GHe:__ZL77ExecuteEvents_t3484638744_CustomAttributesCacheGenerator_U3CU3Ef__mgU24cacheFP21CustomAttributesCache
IMh:_Enumerator_System_Collections_IEnumerator_Reset_m3754523291_gshared
jsd:__ZN11UnityEngine7Connect20RemoteConfigSettings19ConfigUpdatedStaticEPS1_bbi
Nge:__ZL77Convert_t2465617642_CustomAttributesCacheGenerator_Convert_ToByte_m2375887898P21CustomAttributesCache
jdg:_X509CertificateEnumerator__ctor_m943731472
oug:_SHA512Managed_processLength_m2162821715
JCf:_RangeInt_get_end_m4128831787
qfi:_InvokableCall_1_Find_m1741895083_gshared
Jib:__ZN10RectOffset8TransferI19StreamedBinaryWriteILb0EEEEvRT_
TBi:__Z79RuntimeInvoker_Void_t1185182177_RuntimeObject_RuntimeObject_RectU26_t1284589061PFvvEPK10MethodInfoPvPS4_
Vtd:__Z25GetUnityConnectModuleSpecv
yZi:_List_1_set_Item_m2082115010_gshared
zDg:_Encoding_GetBytes_m3735967069
bTc:__ZN23ColliderTilingExtension5ResetEv
eJg:_Array_Initialize_m3004991267
yCb:__ZN14GfxContextGLES43AddRenderSurfaceToDeferredFBOInvalidateListEPK17RenderSurfaceGLES
w6j:__ZN6il2cpp6icalls8mscorlib6System9Threading6Thread15Thread_internalEP12Il2CppThreadP14Il2CppDelegate
ifa:__ZN11NamedObject23VirtualRedirectTransferER14SafeBinaryRead
A5f:_Text_get_resizeTextMinSize_m1002355407
Z4c:__ZNSt3__26vectorIN20TextRenderingPrivate8FontImpl13CharacterInfoE13stl_allocatorIS3_L18MemLabelIdentifier1ELi16EEE6insertENS_11__wrap_iterIPKS3_EERS9_
HSa:__ZN23PreloadManagerOperation6IsDoneEv
IUj:__ZN6il2cpp2vm7Runtime15InvokeWithThrowEPK10MethodInfoPvPS5_
uXj:__ZNK15dense_hashtableINSt3__24pairIK10KeyWrapperINS1_IPK10MethodInfoP11Il2CppClassEEEjEES9_17ReflectionMapHashIS8_EN14dense_hash_mapIS9_jSD_NS9_14EqualsComparerINS0_8equal_toIS8_EEEENS0_9allocatorISB_EEE9SelectKeyESI_SK_E8min_sizeEjj
z1f:_Selectable_get_navigation_m3508916916
q_c:__ZN10Effector2D10EndContactEP9b2Contact
ijk:__ZN6il2cpp5utils11StringUtils11Utf16ToUtf8ERKNSt3__212basic_stringIDsNS2_11char_traitsIDsEENS2_9allocatorIDsEEEE
Fjg:_MD4Managed_Decode_m4273685594
wti:__Z50RuntimeInvoker_Int64_t3736567304_Int16_t2552820387PFvvEPK10MethodInfoPvPS4_
RHj:_UnityEngineModuleAssembly__ctor_m242195730
NUa:__ZN21LightProbeProxyVolume18HasHardwareSupportEv
kPb:__ZN26LightProbeProxyVolumeCacheC2ER13BatchRendererR15RenderLoopStats
e$g:_IntPtr__ctor_m620280096
f4:__ZN6prcoreL31inner_stretch_argb8888_bilinearEPKNS_9InnerInfoE
ikb:__Z18Transfer_BlittableI18StreamedBinaryReadILb1EELb1E8BitFieldEvRK29SerializationCommandArgumentsR31RuntimeSerializationCommandInfo
pcd:_UNITY_FT_Outline_Decompose
e_g:_Int64_System_IConvertible_ToChar_m1509243576_AdjustorThunk
EDb:__ZNK12GraphicsCaps24GetFallbackSampledFormatE14GraphicsFormat
Ydj:_GeneralNames_get_IPAddresses_m4242915644
$8g:_Decimal_op_Implicit_m3873897383
NKh:_Enumerator_Dispose_m3500272053_AdjustorThunk
_nk:_GC_init_size_map
CAe:__ZL84AudioSampleProvider_t3950279772_CustomAttributesCacheGenerator_sampleFramesAvailableP21CustomAttributesCache
nka:__Z20scripting_object_new17ScriptingClassPtr
F3d:__ZL69RuntimeArray_CustomAttributesCacheGenerator_Array_Reverse_m3714848183P21CustomAttributesCache
gca:__ZN9Scripting5Unity11Collections39NativeMatchesParallelForLengthAttribute12CleanupProxyEv
Myh:_KeyGeneratedEventHandler_Invoke_m2527485594
tNd:_Image_get_layoutPriority_m1290204116
Itc:__Z58Register_UnityEngine_Object_Internal_CloneSingleWithParentv
wWj:__ZN24dense_hashtable_iteratorINSt3__24pairIK10KeyWrapperINS1_IPK9FieldInfoP11Il2CppClassEEEjEES9_17ReflectionMapHashIS8_EN14dense_hash_mapIS9_jSD_NS9_14EqualsComparerINS0_8equal_toIS8_EEEENS0_9allocatorISB_EEE9SelectKeyESI_SK_E30advance_past_empty_and_deletedEv
bmj:_Repetition_get_Expression_m2673886232
Yeh:_Decimal__ctor_m1925875020_AdjustorThunk
Maa:__ZN9Scripting11UnityEngine6Events14UnityEventBase12CleanupProxyEv
Ww:__ZN23PreloadManagerOperation21MustCompleteNextFrameEv
Oce:__ZL59SerializationInfo_t950877179_CustomAttributesCacheGeneratorP21CustomAttributesCache
P:Math_exp
hta:__Z19GetMaxBytesPerPixel13TextureFormat
Ko:FUNCTION_TABLE_iiifi
Mek:__ZN6il2cpp2os5posix13PosixAutoLockD2Ev
edj:_TlsServerSettings_set_CertificateTypes_m2047242411
Aqj:_SymmetricTransform_OFB_m3690147804
jcf:_InternalEnumerator_1_MoveNext_m3713722659_AdjustorThunk
C5c:_cff_get_advances
qqb:__ZN13MonoBehaviour9SetScriptERK4PPtrI10MonoScriptE18ScriptingObjectPtr
kGj:_RaycastHit2D_get_collider_m1549426026
Adb:__Z18Transfer_BlittableI17RemapPPtrTransferLb0E8Vector2fEvRK29SerializationCommandArgumentsR31RuntimeSerializationCommandInfo
N9j:__ZNSt3__218uninitialized_copyIPNS_4pairIK10KeyWrapperIP14Il2CppIUnknownEjEES8_EET0_T_SA_S9_
rJi:__Z77RuntimeInvoker_Void_t1185182177_Vector2U5BU5DU26_t476646542_Int32_t2950945753PFvvEPK10MethodInfoPvPS4_
VEg:_PKCS12_get_RNG_m2649456600
h_a:__ZNK10FileSystem16LastErrorMessageEv
nNi:_Array_InternalArray__Insert_TisVector3_t3722313464_m3862657277_gshared
Sne:__ZL104NativeClassAttribute_t2601352714_CustomAttributesCacheGenerator_U3CQualifiedNativeNameU3Ek__BackingFieldP21CustomAttributesCache
wHa:__ZN15SerializeTraitsI13dynamic_arrayI12SpriteVertexLj0EEE19ResizeSTLStyleArrayERS2_i
Xwg:_SecurityException__ctor_m1631242336
AKj:__ZN15dense_hashtableINSt3__24pairIK10KeyWrapperIPK11Il2CppClassEPKcEES6_N6il2cpp5utils11PointerHashIS3_EEN14dense_hash_mapIS6_S9_SE_NS6_14EqualsComparerINS0_8equal_toIS5_EEEENS0_9allocatorISA_EEE9SelectKeyESJ_SL_E14squash_deletedEv
Zzd:_EventSystem_Update_m1662072334
Cwd:__ZN22UnityWebRequestManager10InitializeEv
vSa:__ZNSt3__26__treeINS_12__value_typeIN4core12basic_stringIcNS2_20StringStorageDefaultIcEEEE4PPtrI6ObjectEEENS_19__map_value_compareIS6_SA_NS_4lessIS6_EELb1EEE13stl_allocatorISA_L18MemLabelIdentifier52ELi16EEE15__emplace_multiIJRNS_4pairIS6_S9_EEEEENS_15__tree_iteratorISA_PNS_11__tree_nodeISA_PvEEiEEDpOT_
u4c:_raccess_guess_darwin_newvfs
keb:__ZL26Transfer_SimpleNativeClassI17RemapPPtrTransfer8GradientLb1EEvRK29SerializationCommandArgumentsR31RuntimeSerializationCommandInfo
Bzd:_RaycasterManager_RemoveRaycasters_m3057093063
I5b:__ZN12CachedWriter9InitWriteER15CacheWriterBase
cnc:__Z21UnsignedInt64ToStringy
Z$f:_GetRaycastNonAllocCallback_BeginInvoke_m3984885848
H6e:_InternalEnumerator_1_MoveNext_m4138204635_AdjustorThunk
nij:_PatternCompiler_BeginLink_m1295557963
ENe:__ZL70CanvasScaler_t2767979955_CustomAttributesCacheGenerator_m_PhysicalUnitP21CustomAttributesCache
imb:__ZN18StreamedBinaryReadILb1EE8TransferI13dynamic_arrayIiLj0EEEEvRT_PKc17TransferMetaFlags
jXg:_GuidParser_ThrowFormatException_m3223388534
Blj:_Group_GetAnchorInfo_m3730312864
AKe:__ZL50Graphic_t1660335611_CustomAttributesCacheGeneratorP21CustomAttributesCache
ljf:_KeyCollection_System_Collections_Generic_ICollectionU3CTKeyU3E_Add_m454648927_gshared
MVh:_TimeSpan_op_LessThanOrEqual_m300470010
cAe:__ZL139AnimatorOverrideController_t3582062219_CustomAttributesCacheGenerator_AnimatorOverrideController_OnInvalidateOverrideController_m3380737075P21CustomAttributesCache
qZd:_ContextAttribute_Freeze_m3288175579
Ddc:__Z66Register_UnityEngine_Transform_INTERNAL_CALL_InverseTransformPointv
kMj:__ZNSt3__218uninitialized_fillIPNS_4pairIK10KeyWrapperIPK19Il2CppGenericMethodEPK26Il2CppGenericMethodIndicesEESB_EEvT_SD_RKT0_
G_:__ZZN15DirectorManager15InitializeClassEvEN41FixedUpdateDirectorFixedUpdateRegistrator7ForwardEv
$2g:_MemoryStream_get_Position_m3733941202
qji:_ListPool_1_Clear_m2587502754_gshared
ruj:_AudioClipPlayable_Equals_m3705880618
j_b:__ZL10KeyHandleriPK23EmscriptenKeyboardEventPv
Q4g:_Slot_t3975888750_marshal_pinvoke
SHk:_glLinkProgram__wrapper
BYa:__ZN18ScriptingArguments8AddInt64Ex
q3:__ZN6prcoreL12RemapGenericI17TexFormatARGB888815TexFormatBGR888EEvPKNS_9InnerInfoE
o8a:__ZN26SinglePassStereoSupportExt19SaveStereoConstantsEv
f0:__ZNSt3__26vectorIP10MemoryPool13stl_allocatorIS2_L18MemLabelIdentifier76ELi16EEE21__push_back_slow_pathIRKS2_EEvOT_
SWg:_TextInfo_get_ListSeparator_m1628160079
xHe:__ZL77ExecuteEvents_t3484638744_CustomAttributesCacheGenerator_U3CU3Ef__mgU24cache6P21CustomAttributesCache
V3f:_Selectable_OnCanvasGroupChanged_m472903475
FSh:_EventWaitHandle_Reset_m3348053200
Ttd:__ZN28UnityConnectScriptingClasses23CallSessionStateChangedEixxbP21ScriptingExceptionPtr
nng:_ClientContext_get_SslStream_m1583577309
d9j:__ZN6il2cpp6icalls8mscorlib6System13Globalization11CultureInfo35construct_internal_locale_from_nameEP17Il2CppCultureInfoP12Il2CppString
sgb:__ZL22Transfer_ManagedObjectI24GenerateTypeTreeTransferLb1EEvRK29SerializationCommandArgumentsR31RuntimeSerializationCommandInfo
fli:__Z100RuntimeInvoker_Boolean_t97287965_RuntimeObject_Int32_t2950945753_RuntimeObject_UInt16U26_t2814738322PFvvEPK10MethodInfoPvPS4_
MJi:__Z56RuntimeInvoker_ILTokenInfo_t2325775114_Int32_t2950945753PFvvEPK10MethodInfoPvPS4_
QSf:_HMAC_get_BlockSizeValue_m455678067
xJb:__ZN15RenderNodeQueueC2E10MemLabelId
zUd:_ResourceEnumerator_FillCache_m1661715061
k7h:_ReadOnlyCollection_1_System_Collections_IList_IndexOf_m3664838805_gshared
Dhd:__ZL17CleanupModule_TLSv
Pee:__ZL72SecuritySafeCriticalAttribute_t3505979402_CustomAttributesCacheGeneratorP21CustomAttributesCache
dk:_emscripten_set_main_loop_timing
Nqf:_Bounds_get_min_m3755135869
kbh:_Convert_ToUInt16_m3523269149
zqf:_Bounds_get_center_m1418449258
xAb:__ZN14DataBufferGLES12RecordRenderEv
YAd:_ExecuteEvents_get_endDragHandler_m2879610446
AWb:__ZN14ImageReference10FlipImageYEv
PHj:_UsedByNativeCodeAttribute__ctor_m2647015777
Uia:__ZN21ScalableBufferManager20GetHeightScaleFactorEv
f1b:__ZNSt3__26vectorIN9ShaderLab20SerializedSubProgram15VectorParameterENS_9allocatorIS3_EEE8__appendEj
Qx:__ZN4FMOD3DSP9setBypassEb
a_b:__Z19NormalizeWheelInputf
ZKd:_Graphic_DoMeshGeneration_m3548487693
$Yb:__Z29StdTemplateConversionFunctionIsaEbPvR14SafeBinaryRead
kv:__ZN11KeyframeTplIfE8TransferI14SafeBinaryReadEEvRT_
Tu:__ZNK4PPtrI13MonoBehaviourEcvPS0_Ev
Ajj:_Repetition__ctor_m1672362629
zFc:__Z29Transfer_Blittable_ArrayFieldI8JSONReadhEvRT_R9ArrayInfoRK23StaticTransferFieldInfo
$xg:_SecurityFrame_ToString_m339310712_AdjustorThunk
yOd:_TypeBuilder_create_runtime_class_m2581270900
a5b:__ZN11MonoManager25GetImageFromAssemblyIndexEi
L4e:_InternalEnumerator_1_get_Current_m3008260692_gshared
wsk:__ZN6il2cpp2os20ThreadLocalValueImpl8SetValueEPv
Wka:__ZN22RenderingCommandBuffer20CleanupCommandBufferEv
b9g:_Decimal_op_Implicit_m2299919277
nAc:__Z18Transfer_BlittableI9JSONWriteLb1EtEvRK29SerializationCommandArgumentsR31RuntimeSerializationCommandInfo
tQe:_UnexceptionalStreamReader_ReadToEnd_m920589220
Sch:_DateTime_System_IConvertible_ToType_m1242864300
kAg:_String_IndexOf_m1298810678
yk:___syscall85
ald:__ZN2UI14CanvasRenderer18UpdateTRSHierarchyEb
PTi:_Mesh_GetAllocArrayFromChannel_TisVector3_t3722313464_m2332439905_gshared
CJb:__ZNSt3__26__sortIRPFbP10GUIElementS2_EPS2_EEvT0_S7_T_
ehc:__ZN16GraphicsSettings12CleanupClassEv
SYe:_ConstructorBuilder_GetILGenerator_m1750792206
yBg:_EncoderFallback_get_ReplacementFallback_m818398284
fhk:__ZN6il2cpp2os6Thread19DetachCurrentThreadEv
sAd:_EventTrigger_OnBeginDrag_m4203438710
VIj:__ZN6il2cpp2vmL21SetupInterfacesLockedEP11Il2CppClassRKNS_2os12FastAutoLockE
U8a:__ZN11MonoManager23VirtualRedirectTransferER24GenerateTypeTreeTransfer
aRi:_Dictionary_2_Do_CopyTo_TisRuntimeObject_TisRuntimeObject_m2344529027_gshared
tgk:__ZN6il2cpp2gc16GarbageCollector22MakeDescriptorForArrayEv
LKi:__Z37RuntimeInvoker_UILineInfo_t4195266810PFvvEPK10MethodInfoPvPS4_
Jsf:_CullingGroup_Dispose_m782801025
QBh:_Dictionary_2_System_Collections_IDictionary_GetEnumerator_m529247385_gshared
Iba:__ZN9Scripting11UnityEngine9Component12CleanupProxyEv
jJ:__ZN11UnityEngine15CloudWebService14DataDispatcher15SetupWebRequestEv
xGh:_EqualityComparer_1_get_Default_m1038871402_gshared
crd:__ZN11UnityEngine15PlatformWrapper13GetShaderCapsEv
LRb:__ZNSt3__211__sift_downIR26RenderDeferredObjectSorterP16RenderObjectDataEEvT0_S5_T_NS_15iterator_traitsIS5_E15difference_typeES5_
SFe:__ZL99CertificateHandler_t2739891000_CustomAttributesCacheGenerator_CertificateHandler_Release_m648790222P21CustomAttributesCache
c$e:_GenericTypeParameterBuilder_IsDefined_m98179866
EDe:__ZL82Physics2D_t1528932956_CustomAttributesCacheGenerator_Physics2D_Raycast_m1377762210P21CustomAttributesCache
Jxh:_KeyPairPersistence_get_MachinePath_m3812267291
j6g:_Stack_Peek_m2216191248
Fch:_DateTime_System_IConvertible_ToDecimal_m1044850612_AdjustorThunk
Khc:__ZN21FixedBehaviourManager6UpdateEv
Ycc:__ZN9Transform9SetParentEPS_NS_15SetParentOptionE
xTc:__ZN13SliderJoint2D5ResetEv
dna:__ZN19ShaderPropertySheet8SetFloatEN9ShaderLab16FastPropertyNameEfNS_8SetFlagsE
jTa:__ZN19RuntimeSceneManager24BeginIntegrateMainThreadEP10UnityScene
Rpg:_TlsServerCertificate_ProcessAsSsl3_m1306583193
Thk:__ZNSt3__2plIcNS_11char_traitsIcEENS_9allocatorIcEEEENS_12basic_stringIT_T0_T1_EERKS9_S6_
rPe:_StringReader_CheckObjectDisposedException_m3796163530
IYh:_UInt32_System_IConvertible_ToInt16_m1659441601
q1b:__ZN9ShaderLab20SerializedSubProgramaSERKS0_
uyk:_roundf
PLg:_Byte_System_IConvertible_ToSingle_m324484566_AdjustorThunk
$6g:_Decimal_op_Explicit_m2848387298
oJh:_KeyValuePair_2_ToString_m1238786018_gshared
WIj:__ZN6il2cpp2vmL24SetupTypeHierarchyLockedEP11Il2CppClassRKNS_2os12FastAutoLockE
Gzg:_String_Clone_m3573869765
k_b:__ZL11TextHandleriPK23EmscriptenKeyboardEventPv
M0d:_SoapFieldAttribute_get_XmlElementName_m2203304026
qGb:__ZNSt3__26vectorIP17FileSystemHandlerNS_9allocatorIS2_EEE21__push_back_slow_pathIRKS2_EEvOT_
l4c:_destroy_face
dEk:_glBlendEquationSeparate__wrapper
Qrd:__ZNSt3__26vectorIPN11UnityEngine15CloudWebService14CloudEventInfoE13stl_allocatorIS4_L18MemLabelIdentifier88ELi16EEE21__push_back_slow_pathIS4_EEvOT_
R$c:__ZN5physx19PxAllocatorCallbackD2Ev
xpk:__ZN6il2cpp6icalls8mscorlib6System8Security12Cryptography24RNGCryptoServiceProvider13RngInitializeEP11Il2CppArray
ome:__ZL68UsedByNativeCodeAttribute_t1703770351_CustomAttributesCacheGeneratorP21CustomAttributesCache
nli:__Z81RuntimeInvoker_Void_t1185182177_RuntimeObject_Int32_t2950945753_Int32_t2950945753PFvvEPK10MethodInfoPvPS4_
Ura:__ZN4PPtrI5LightE8TransferI19StreamedBinaryWriteILb0EEEEvRT_
Uch:_DateTimeUtils_ToString_m1782212840
RVi:_List_1__cctor_m972674764_gshared
DVe:_NumberFormatter_NumberToString_m3906556024
jlb:__Z19TransferField_ArrayI18StreamedBinaryReadILb1EE27Converter_SimpleNativeClassI17AnimationCurveTplIfEEEvRK23StaticTransferFieldInfoR31RuntimeSerializationCommandInfoRT0_
RZc:__ZN7b2World18SetContactListenerEP17b2ContactListener
PAb:__ZN18GfxFramebufferGLES22MakeCurrentFramebufferENS_7BuiltinE
Mkk:__ZN6il2cpp2vm12MarshalAlloc4FreeEPv
Sqa:__ZN12CachedReader4ReadEPvj
WTd:_TypeFilter_EndInvoke_m998903841
FDd:_StandaloneInputModule_ProcessMouseEvent_m2923582521
vEe:__ZL49Canvas_t3310196443_CustomAttributesCacheGeneratorP21CustomAttributesCache
iSd:_MonoMethod_ShouldPrintFullName_m1607666412
gOb:__Z24CalculateLightShadowFadeRK6CamerafffR8Vector4f
QS:__ZN19RuntimeSceneManagerD2Ev
Pzf:_PlayerConnectionInternal__ctor_m2406218802
hTg:_CCGregorianCalendar_GetMonth_m1547203696
zK:__ZN11UnityEngine15CloudWebService25WebRequestDownloadHandler17OnCompleteContentEv
Bza:__ZN6prcore17GetIntegerBlitterE13TextureFormatS0_N14ImageReference8BlitModeE
znk:_GC_print_block_descr
J3i:_Collection_1_IndexOf_m934463944_gshared
M6:__ZL51__ManagedRegistrationHelperFunction_ResourceRequestPv
uFf:_RequireComponent__ctor_m1154052627
b7d:__ZL51Directory_t828876208_CustomAttributesCacheGeneratorP21CustomAttributesCache
IJg:_SimpleEnumerator_Reset_m2182001888
GGi:__Z86RuntimeInvoker_Int32_t2950945753_Vector2_t2156229523_Vector2_t2156229523_RuntimeObjectPFvvEPK10MethodInfoPvPS4_
Hph:_Array_LastIndexOf_TisRuntimeObject_m1677937501_gshared
nF:__ZN11AudioSource18IsPlayingScriptingEv
Bxh:_KeyBuilder_IV_m2230195376
OJc:__ZNK12b2WheelJoint10GetAnchorAEv
UCk:_glShaderSource__wrapper
X$a:__ZN25MultiBlocksMemoryFileData17AdjustBlocksCountEj
g6j:__ZNSt3__214__split_bufferIN6il2cpp2vm22EmbeddedResourceRecordERNS_9allocatorIS3_EEED2Ev
s2c:__ZN13TextRendering4Font8TransferI24GenerateTypeTreeTransferEEvRT_
C4a:__ZN9GfxDevice15EndProfileEventEPN9profiling6MarkerE
z9b:__Z27CullingGroup_CUSTOM_DisposeP12Il2CppObject
Gef:_Comparer_1__ctor_m319670016_gshared
Gm:_glStencilMask
Fhk:__ZN6il2cpp2os10ThreadImpl16GetCurrentThreadEv
M7f:_TypeConverterAttribute_GetHashCode_m948291090
c_b:__ZN15GUIEventManager10QueueEventERK10InputEvent
X4i:_Collection_1_Clear_m1300437781_gshared
OQj:_AnalyticsEvent_OnValidationFailed_m2609604624
ABe:__ZL62EventType_t3528516131_CustomAttributesCacheGenerator_mouseMoveP21CustomAttributesCache
iVd:_DecimalConstantAttribute__ctor_m3583301917
B7i:_Collection_1_System_Collections_ICollection_get_IsSynchronized_m1640823718_gshared
$mk:_GC_push_conditional_with_exclusions
x$d:_MethodCallDictionary__ctor_m2167303393
Zge:__ZL80Convert_t2465617642_CustomAttributesCacheGenerator_Convert_ToDecimal_m2858622624P21CustomAttributesCache
$gi:__ZN30GenericInterfaceActionInvoker4IP12Il2CppObjectS1_S1_S1_E6InvokeEPK10MethodInfoS1_S1_S1_S1_S1_
ULa:__Z31DrawSpriteDeformedFromNodeQueueRK15RenderNodeQueuej16VertexInputMasksi
Fmk:_GC_make_disappearing_links_disappear
yvk:_strrchr
usf:_Component_GetComponentInParent_m779177818
VXd:__ZN21InterfaceFuncInvoker1IP8String_tS1_E6InvokeEjP11Il2CppClassP12Il2CppObjectS1_
Szh:_Dictionary_2_System_Collections_ICollection_get_SyncRoot_m2069913662_gshared
fEd:_UIBehaviour_IsDestroyed_m3033055982
gwi:__Z109RuntimeInvoker_Void_t1185182177_RuntimeObject_RuntimeObject_SByte_t1669577662_Int32_t2950945753_RuntimeObjectPFvvEPK10MethodInfoPvPS4_
mIf:_Enumerator_Reset_m39541243
IVf:_InputField_get_readOnly_m3111985574
hsa:__ZN14RenderSettings27UpdateIndirectSpecularColorEv
Hse:__ZL59RectOffset_t1369453676_CustomAttributesCacheGenerator_m_PtrP21CustomAttributesCache
Zwf:_Logger_get_logHandler_m1335645353
PPa:__ZN14PlayerSettings8TransferI18StreamedBinaryReadILb0EEEEvRT_
ATj:__ZN6il2cpp6icalls8mscorlib6System8MonoType16GetMethodsByNameEP20Il2CppReflectionTypeP12Il2CppStringibS5_
dce:__ZL73ObjRef_t2141158884_CustomAttributesCacheGenerator_U3CU3Ef__switchU24map26P21CustomAttributesCache
vIe:__ZL102PointerEventData_t3807901092_CustomAttributesCacheGenerator_PointerEventData_set_pointerId_m1888344330P21CustomAttributesCache
SAe:__ZL88AudioClip_t3680889665_CustomAttributesCacheGenerator_AudioClip_get_ambisonic_m3815052287P21CustomAttributesCache
cZf:_U3CDelayedSetDirtyU3Ec__Iterator0__ctor_m3936335621
sFa:__ZN4PPtrI10GameObjectE8TransferI14SafeBinaryReadEEvRT_
cve:__ZL106PlayableAsset_t3219022681_CustomAttributesCacheGenerator_PlayableAsset_Internal_CreatePlayable_m2550417712P21CustomAttributesCache
yhe:__ZL78Convert_t2465617642_CustomAttributesCacheGenerator_Convert_ToSByte_m2486156346P21CustomAttributesCache
uaj:_RijndaelTransform__cctor_m2439033240
Vub:__ZNSt3__27__sort3IRNS_4lessIN22BuiltinResourceManager8ResourceEEEPS3_EEjT0_S7_S7_T_
ss:__ZN13dynamic_arrayIPN11UnityEngine9Animation23CachedComponentBindingsELj0EE18resize_initializedEjRKS3_12ResizePolicy
g4d:__ZL175U3CGetEnumeratorU3Ec__Iterator0_t1202911786_CustomAttributesCacheGenerator_U3CGetEnumeratorU3Ec__Iterator0_System_Collections_Generic_IEnumeratorU3CTU3E_get_Current_m322251035P21CustomAttributesCache
fZc:__ZN15AnchoredJoint2DC2E10MemLabelId18ObjectCreationMode
Xed:_ps_hints_t2mask
kbi:_Comparison_1__ctor_m3138326461_gshared
flh:_Array_InternalArray__ICollection_Remove_TisMonoResource_t4103430009_m238733686_gshared
Q4f:_Slider_Set_m1476104429
bUd:__ZN28GenericInterfaceFuncInvoker1IP10Assembly_tP28ResolveEventArgs_t1779456501E6InvokeEPK10MethodInfoP12Il2CppObjectS3_
LMd:_Image_set_fillClockwise_m2210525152
HNa:__ZN10BlendShape8TransferI19StreamedBinaryWriteILb0EEEEvRT_
u7a:__ZNSt3__26vectorIN20GpuProgramParameters14ConstantBufferENS_9allocatorIS2_EEE21__push_back_slow_pathIRKS2_EEvOT_
CD:__Z32TransferEnumWithNameForceIntSizeI14SafeBinaryReadN10SampleClip8LoadTypeEEvRT_RT0_PKc17TransferMetaFlags
iAf:_PlayerConnection_DisconnectedCallback_m1697017309
EOa:__Z19GetTimeSinceStartupv
JFj:_JointMotor2D_set_motorSpeed_m1876890553_AdjustorThunk
jNd:_Image_AddQuad_m2161647989
nzd:_BaseInputModule_DeactivateModule_m856719157
vhk:__ZN6il2cpp2os10ThreadImpl11SetPriorityENS0_14ThreadPriorityE
wMh:_Enumerator_System_Collections_IEnumerator_Reset_m2953002685_gshared
eni:__Z50RuntimeInvoker_Int64_t3736567304_Int32_t2950945753PFvvEPK10MethodInfoPvPS4_
wTi:_Object_FindObjectOfType_TisRuntimeObject_m2612646359_gshared
red:_TT_Load_Composite_Glyph
F4a:__ZN9GfxDevice16DeleteTimerQueryEP13GfxTimerQuery
W0i:_List_1_Insert_m1695211546_gshared
Hs:__ZL51__ManagedRegistrationHelperFunction_ScaleConstraintPv
WBi:__Z49RuntimeInvoker_Void_t1185182177_Color_t2555686324PFvvEPK10MethodInfoPvPS4_
Rva:__ZN9ShaderLab11shaderprops9GetTexEnvEPK19ShaderPropertySheetS3_NS_16FastPropertyNameE16TextureDimensionb
yXi:_List_1_Sort_m3232912161_gshared
qpj:_GUILayoutGroup_CalcHeight_m1669391299
sMb:__ZN29RenderNodeQueuePrepareContextC2Ev
B2j:_il2cpp_gc_disable
z2b:__ZN9ShaderLab20SerializedSubProgram16TextureParameter8TransferI24GenerateTypeTreeTransferEEvRT_
mca:__ZN9Scripting5Unity11Collections8LowLevel6Unsafe29NativeSetThreadIndexAttribute12CleanupProxyEv
Rkf:__ZN21InterfaceFuncInvoker1I27DictionaryEntry_t3123975638bE6InvokeEjP11Il2CppClassP12Il2CppObjectb
Xpk:__ZN6il2cpp2os11MutexHandle4WaitEb
B2a:__ZN9GfxDevice19SaveStereoConstantsEv
Wpk:__ZN6il2cpp2os11MutexHandle4WaitEj
K9b:__ZL34GetComponentsImplementationRecurseILb1ELi1ELi1EEbR10GameObjectbRK17CompareParametersRK39GetComponentsImplementation_ReturnValue
ooi:__Z114RuntimeInvoker_Boolean_t97287965_RuntimeObject_RuntimeObject_Int32_t2950945753_Int32_t2950945753_Int32_t2950945753PFvvEPK10MethodInfoPvPS4_
mYe:_AssemblyBuilder_GetTypes_m3415680380
E2:__ZN6prcoreL17RemapGenericFloatI15TexFormatRGHalf18TexFormatARGBFloatEEvPKNS_9InnerInfoE
prj:_AnalyticsEventParam_get_groupID_m569309506
Vgh:_StackFrame_GetMethod_m1395840764
hua:__ZNK13RenderTexture13GetDataHeightEv
Rsb:__Z18SimulateMouseInputi
oIb:__ZN13RenderManager23AddRemoveCamerasDelayedEv
Tw:__ZN23PreloadManagerOperation11GetPriorityEv
uYf:_LayoutElement_OnEnable_m1760066426
Ond:__ZN11UnityEngine9Analytics15AnalyticsConfigC2Ev
Ryc:__ZN5Unity9rapidjson6WriterI16TempBufferWriterNS0_4UTF8IcEES4_13JSONAllocatorE11WriteUint64Ey
qKg:_BitConverter__cctor_m3841343255
I6g:_Decimal_Compare_m3062820418
Ggg:_IntervalCollection_GetMetaCollection_m4029522214
nAd:_EventTrigger_OnDeselect_m1919608102
sCj:_TextGenerator_get_characterCount_m864136654
OUh:_TimeSpan__ctor_m2047388489_AdjustorThunk
gVb:__ZN13RenderTexture8SetWidthEi
tfc:__ZNK28RectTransformPropertyBinding12SetPPtrValueERKN11UnityEngine9Animation10BoundCurveEi
ivb:__ZN18FrameTimingManager18GetVSyncsPerSecondEv
qmb:__Z18Transfer_BlittableI18StreamedBinaryReadILb0EELb0EfEvRK29SerializationCommandArgumentsR31RuntimeSerializationCommandInfo
DKa:__ZN10MeshFilterD0Ev
ted:_UNITY_FT_GlyphLoader_CheckSubGlyphs
e4e:_InternalEnumerator_1__ctor_m1341209356_AdjustorThunk
a6i:_Collection_1_System_Collections_ICollection_CopyTo_m1516601228_gshared
ZY:__ZN23DefaultMeshVertexFormatC2E18VertexChannelsInfo
a7i:_Collection_1_CopyTo_m4278237485_gshared
dYg:_Int16_System_IConvertible_ToDouble_m1661805412
$8i:_Collection_1_Add_m3860636938_gshared
wwj:__ZL23UnresolvedVirtualCall_5P12Il2CppObjectsPK10MethodInfo
vOh:_List_1_Insert_m4050947056_gshared
EQ:__ZN9ShaderLab16FastPropertyName4InitEPKc
Q7e:_InternalEnumerator_1__ctor_m39232262_AdjustorThunk
bzi:__Z48RuntimeInvoker_OperatingSystemFamily_t1868066375PFvvEPK10MethodInfoPvPS4_
Vfe:__ZL61Thread_t2300836069_CustomAttributesCacheGenerator_local_slotsP21CustomAttributesCache
lva:__ZN6ObjectC2E10MemLabelId18ObjectCreationMode
D1h:_Collection_1_System_Collections_IEnumerable_GetEnumerator_m3596816767_gshared
A8e:_InternalEnumerator_1_get_Current_m3911557813_AdjustorThunk
Hqd:__ZN11UnityEngine15PlatformWrapper19GetPhysicalMemoryMBEv
uMg:_Char_System_IConvertible_ToByte_m2347554595_AdjustorThunk
DYj:__ZNK15dense_hashtableINSt3__24pairIK10KeyWrapperINS1_IPK12PropertyInfoP11Il2CppClassEEEjEES9_17ReflectionMapHashIS8_EN14dense_hash_mapIS9_jSD_NS9_14EqualsComparerINS0_8equal_toIS8_EEEENS0_9allocatorISB_EEE9SelectKeyESI_SK_E12test_deletedERK30dense_hashtable_const_iteratorISB_S9_SD_SM_SI_SK_E
wse:__ZL59TooltipAttribute_t3957072629_CustomAttributesCacheGeneratorP21CustomAttributesCache
MHa:__ZN10VertexData8TransferI17RemapPPtrTransferEEvRT_
Kta:__ZN13RenderTexture9SetMipMapEb
RKj:__ZN15dense_hashtableINSt3__24pairIK10KeyWrapperIPK11Il2CppClassEPKcEES6_N6il2cpp5utils11PointerHashIS3_EEN14dense_hash_mapIS6_S9_SE_NS6_14EqualsComparerINS0_8equal_toIS5_EEEENS0_9allocatorISA_EEE9SelectKeyESJ_SL_E13set_empty_keyERKSA_
yHc:__ZN9Scripting11UnityEngine14ContactPoint2D9InitProxyEv
EBg:_String_CreateString_m860434552
f$:__Z18GetDirectorManagerv
d4a:__ZN9GfxDevice14InsertCPUFenceEv
M9d:__ZL107CriticalFinalizerObject_t701527852_CustomAttributesCacheGenerator_CriticalFinalizerObject__ctor_m3245424448P21CustomAttributesCache
NZg:_Int32_Equals_m2976157357_AdjustorThunk
Pcc:__Z38Transform_CUSTOM_INTERNAL_get_rotationP12Il2CppObjectP11Quaternionf
rye:__ZL99SceneManager_t2787271929_CustomAttributesCacheGenerator_SceneManager_LoadScene_m2298600132____mode1P21CustomAttributesCache
jzi:__Z73RuntimeInvoker_Single_t1397266774_Vector2_t2156229523_Vector2_t2156229523PFvvEPK10MethodInfoPvPS4_
K0d:_SoapAttribute_get_XmlNamespace_m859394681
CXj:__ZNK15dense_hashtableINSt3__24pairIK10KeyWrapperINS1_IPK10MethodInfoP11Il2CppClassEEEjEES9_17ReflectionMapHashIS8_EN14dense_hash_mapIS9_jSD_NS9_14EqualsComparerINS0_8equal_toIS8_EEEENS0_9allocatorISB_EEE9SelectKeyESI_SK_E5beginEv
Sgj:_X509ExtensionCollection_System_Collections_IEnumerable_GetEnumerator_m1475785462
izb:__ZN7ApiGLES19UploadBufferSubDataEjN2gl12BufferTargetEllPKv
TEj:_SkeletonBone_t4134054672_marshal_pinvoke_cleanup
oe:_glFramebufferTextureLayer
y1:__ZNSt3__216__rotate_forwardINS_11__wrap_iterIPN4core12basic_stringIcNS2_20StringStorageDefaultIcEEEEEEEET_S9_S9_S9_
RIf:_Vector2_GetHashCode_m3916089713
XY:__ZdaPv
WFg:_SmallXmlParserException__ctor_m1976648878
zTe:_MulticastDelegate_Equals_m2502840627
Jug:_SymmetricAlgorithm_set_KeySize_m3805756466
xGe:__ZL70ValueProperty_t1868393739_CustomAttributesCacheGenerator_m_CustomValueP21CustomAttributesCache
TLg:_Byte_System_IConvertible_ToUInt32_m1049546902_AdjustorThunk
kxi:__Z53RuntimeInvoker_Double_t594665363_Interval_t1802865632PFvvEPK10MethodInfoPvPS4_
dvb:__Z21InitializeBatchedJobsv
aDj:_CanvasGroup_get_blocksRaycasts_m1805542303
rtg:_SHA1Internal_ProcessBlock_m1991889327
kbb:__Z19TransferField_ArrayI14SafeBinaryRead27Converter_SimpleNativeClassI8GUIStyleEEvRK23StaticTransferFieldInfoR31RuntimeSerializationCommandInfoRT0_
fpb:__ZN9TextAsset23VirtualRedirectTransferER19StreamedBinaryWriteILb0EE
s9j:__ZN15dense_hashtableINSt3__24pairIK10KeyWrapperIP14Il2CppIUnknownEjEES5_N6il2cpp5utils11PointerHashIS3_EEN14dense_hash_mapIS5_jSB_NS5_14EqualsComparerINS0_8equal_toIS4_EEEENS0_9allocatorIS7_EEE9SelectKeyESG_SI_ED2Ev
DPi:_Array_Sort_TisRuntimeObject_TisRuntimeObject_m1685639929_gshared
Gpk:__ZN6il2cpp5utils10MemoryPoolC2Ev
Cra:__ZN14RenderSettings5ResetEv
w5b:__ZN6Sprite9BindAtlasERK4PPtrI11SpriteAtlasE
hzc:__ZN5Unity9rapidjson12GenericValueINS0_4UTF8IcEE13JSONAllocatorE10FindMemberIS4_EENS0_21GenericMemberIteratorILb0ES3_S4_EERKNS1_IS3_T_EE
w8e:_InternalEnumerator_1_System_Collections_IEnumerator_get_Current_m3892960115_AdjustorThunk
S4b:__ZN9ShaderLabL18AddPropertyToArrayERK19ShaderPropertySheetR13dynamic_arrayIiLj0EERKNS_8FloatValE
H7j:__ZNSt3__212basic_stringIDsNS_11char_traitsIDsEENS_9allocatorIDsEEE6appendEPKDsj
uqj:_SymmetricTransform_Finalize_m4129642865
kOg:_ArrayList_Clone_m2682741233
aTf:_HMAC_HashCore_m3684104066
Wtd:__Z13RegisterClassI20UnityConnectSettingsEvPKc
Bbi:__ZN28GenericInterfaceFuncInvoker2Ii20UIVertex_t4057497605S0_E6InvokeEPK10MethodInfoP12Il2CppObjectS0_S0_
yyc:__ZN5Unity9rapidjson13GenericReaderINS0_4UTF8IcEES3_13JSONAllocatorE11ParseNumberILj1ENS0_25GenericInsituStringStreamIS3_EENS0_15GenericDocumentIS3_S4_S4_EEEEvRT0_RT1_
hLa:__ZN14SpriteRenderer14OnChangeSpriteEv
C8i:_Collection_1_RemoveItem_m2911050674_gshared
dli:__Z79RuntimeInvoker_UInt16_t2177724958_RuntimeObject_Int32_t2950945753_RuntimeObjectPFvvEPK10MethodInfoPvPS4_
phk:__ZN6il2cpp2os10ThreadImplD2Ev
kse:__ZL56ResetInputAxis_t866062302_CustomAttributesCacheGeneratorP21CustomAttributesCache
CKc:__ZN12b2MouseJoint23InitVelocityConstraintsERK12b2SolverData
wzc:__ZN8Gradient8TransferI9JSONWriteEEvRT_
cUa:__ZN21RendererUpdateManager18OncePerFrameUpdateER13RendererScene
tDe:__ZL81TextEditor_t2759855366_CustomAttributesCacheGenerator_TextEditor__ctor_m242049450P21CustomAttributesCache
N6g:_Convert_ToBoolean_m2833621053
qfa:__ZNK12TLSAllocatorI14StackAllocatorE22GetAllocatedMemorySizeEv
ele:__ZL62WebHeaderCollection_t1942268960_CustomAttributesCacheGeneratorP21CustomAttributesCache
Cda:__ZN17RemapPPtrTransfer12PushMetaFlagE17TransferMetaFlags
OFh:_EqualityComparer_1_System_Collections_IEqualityComparer_GetHashCode_m2138064395_gshared
TYa:__ZN12HandlerChain4NameEv
uHd:_FloatTween_t1274330004_marshal_pinvoke
qYg:_Int16_System_IConvertible_ToType_m3672347013_AdjustorThunk
$cb:__Z29Transfer_Blittable_ArrayFieldI14SafeBinaryReadN4math12int3_storageEEvRT_R9ArrayInfoRK23StaticTransferFieldInfo
xZg:_Int32_System_IConvertible_ToType_m3009233912_AdjustorThunk
XYg:_Int16_ToString_m2013897809
nHi:__Z60RuntimeInvoker_Int32_t2950945753_ResourceCacheItem_t51292791PFvvEPK10MethodInfoPvPS4_
Mxg:_String_Substring_m2848979100
sld:__Z44Register_UnityEngine_CanvasRenderer_get_cullv
XHj:__ZN15dense_hashtableINSt3__24pairIK10KeyWrapperIPK22Il2CppGenericParameterEP11Il2CppClassEES6_N6il2cpp5utils11PointerHashIS4_EEN14dense_hash_mapIS6_S9_SE_NS6_14EqualsComparerINS0_8equal_toIS5_EEEENS0_9allocatorISA_EEE9SelectKeyESJ_SL_ED2Ev
uei:__ZN23GenericVirtFuncInvoker1Ib19Vector4_t3319028937E6InvokeEPK10MethodInfoP12Il2CppObjectS0_
Hxg:_SecurityException_get_PermissionType_m2237538728
BZb:__Z29StdTemplateConversionFunctionIbbEbPvR14SafeBinaryRead
jqd:__ZN11UnityEngine7Connect17XRDeviceInfoEvent12XRDeviceInfoD2Ev
n9a:__Z44InitializeTransferFunctionScriptingTraitsForI17RemapPPtrTransferEvR31TransferFunctionScriptingTraits
egc:__ZNSt3__26vectorI16MessageForwarder13stl_allocatorIS1_L18MemLabelIdentifier7ELi8EEE6resizeEj
Qcg:_X509Chain_SelectBestFromCollection_m1068759221
Dqj:_SymmetricTransform_TransformBlock_m851059707
u2d:__ZL68IntPtr_t_CustomAttributesCacheGenerator_IntPtr_ToPointer_m4157623054P21CustomAttributesCache
Psb:__Z11StringToKeyRKN4core12basic_stringIcNS_20StringStorageDefaultIcEEEE
r2i:_Enumerator_System_Collections_IEnumerator_Reset_m2261065994_AdjustorThunk
G2f:_ScrollRect_get_verticalNormalizedPosition_m3693218937
iTa:__ZN18LoadSceneOperation21MustCompleteNextFrameEv
S4f:_Slider_UpdateDrag_m1102107039
tSd:_MonoMethodInfo_get_method_info_m88651774
WE:__ZNK12AudioManager16GetAudioListenerEv
hZg:_Int32_System_IConvertible_ToDateTime_m1824716955
Yzh:_Dictionary_2_System_Collections_Generic_ICollectionU3CSystem_Collections_Generic_KeyValuePairU3CTKeyU2CTValueU3EU3E_CopyTo_m331407443_gshared
RPf:_RuntimeTypeHandle__ctor_m3315980708_AdjustorThunk
see:__ZL69IIdentityPermissionFactory_t3268650966_CustomAttributesCacheGeneratorP21CustomAttributesCache
HCj:_Canvas_set_overrideSorting_m4088794420
LUb:__ZNSt3__26vectorI11CameraStackNS_9allocatorIS1_EEE8__appendEj
GDh:_DefaultComparer_Equals_m2585095694_gshared
Ywf:_Logger_set_filterLogType_m3622751173
lOf:__ZN25GenericVirtActionInvoker1I28StreamingContext_t3711869237E6InvokeEPK10MethodInfoP12Il2CppObjectS0_
_ni:__Z172RuntimeInvoker_Void_t1185182177_RuntimeObject_CodePointIndexerU26_t4059079874_ByteU2AU26_t57153304_ByteU2AU26_t57153304_CodePointIndexerU26_t4059079874_ByteU2AU26_t57153304PFvvEPK10MethodInfoPvPS4_
pUh:_Scheduler_ShrinkIfNeeded_m820085397
lod:__ZN11UnityEngine9Analytics15UserCustomEvent12CustomParams6InsertEPKcRNS1_11CustomValueE
qLf:_ProxyAttribute_CreateProxy_m2826946776
Oib:__Z29Transfer_Blittable_ArrayFieldI19StreamedBinaryWriteILb0EEjEvRT_R9ArrayInfoRK23StaticTransferFieldInfo
vW:__Z13GetFileSystemv
Svj:_AudioSourceExtension_ExtensionUpdate_m2790353999
TY:__ZN13RuntimeStaticI15GUIEventManagerLb0EE16StaticInitializeEPv
lzf:_MonoBehaviour_IsObjectMonoBehaviour_m2134950949
Anb:__ZL12InvokeMethodI18StreamedBinaryReadILb0EEEvRK29SerializationCommandArgumentsR31RuntimeSerializationCommandInfo
U6:__ZL45__ManagedRegistrationHelperFunction_Texture2DPv
a$h:_Version_CompareTo_m3146217210
qLc:__ZN24RigidbodyMovementState2D21ResetAngularMoveStateEv
lLa:__ZThn32_N14SpriteRenderer15AddAsRenderNodeER15RenderNodeQueueRK20DeprecatedSourceData
crh:_Array_InternalArray__ICollection_CopyTo_TisKeyValuePair_2_t71524366_m1056941380_gshared
gWh:_Type_get_IsClass_m589177581
$me:__ZL62NativeTypeAttribute_t2250406315_CustomAttributesCacheGeneratorP21CustomAttributesCache
A8a:__ZN19ShaderPropertySheet9SetMatrixEN9ShaderLab16FastPropertyNameERK10Matrix4x4fNS_8SetFlagsE
LBa:__Z29GetTextureSizeAllowedMultiple13TextureFormat
Hfh:_Decimal_Subtract_m835601464
GGb:__ZZ23InitPlayerLoopCallbacksvEN52InitializationAsyncUploadTimeSlicedUpdateRegistrator7ForwardEv
Cgc:__Z46CleanupSpriteRendererAnimationBindingInterfacev
uwi:__Z73RuntimeInvoker_Boolean_t97287965_RuntimeObject_IPv6AddressU26_t3285609463PFvvEPK10MethodInfoPvPS4_
ceg:_X509ExtensionCollection_get_IsSynchronized_m2607599544
MUh:_TimeSpan__ctor_m3689759052_AdjustorThunk
M1j:_il2cpp_array_element_size
b1d:__ZL62ComVisibleAttribute_t1362837655_CustomAttributesCacheGeneratorP21CustomAttributesCache
MXi:_List_1_System_Collections_IEnumerable_GetEnumerator_m1824431956_gshared
kga:__ZNSt3__26__treeINS_12__value_typeIN4core12basic_stringIcNS2_20StringStorageDefaultIcEEEEjEENS_19__map_value_compareIS6_S7_NS_4lessIS6_EELb1EEE13stl_allocatorIS7_L18MemLabelIdentifier7ELi16EEE25__emplace_unique_key_argsIS6_JNS_4pairIS6_jEEEEENSH_INS_15__tree_iteratorIS7_PNS_11__tree_nodeIS7_PvEEiEEbEERKT_DpOT0_
HEf:_RectTransform_INTERNAL_set_sizeDelta_m188783163
_f:_glCheckFramebufferStatus
bpk:__ZN6il2cpp2os11EventHandle4WaitEv
k1e:_U3CGetEnumeratorU3Ec__Iterator0_System_Collections_Generic_IEnumeratorU3CTU3E_get_Current_m9057020_gshared
BS:__Z43scripting_class_get_method_from_name_filter17ScriptingClassPtrPKciN24ScriptingMethodFiltering18MethodSearchFilterEPK16ScriptingTypePtr
Ild:__Z13RegisterClassIN2UI6CanvasEEvPKc
fU:__ZN4core8hash_setINS_4pairIKi17ThreadedAwakeDataLb0EEENS_9hash_pairINS_4hashIiEES2_S3_EENS_10equal_pairINSt3__28equal_toIiEES2_S3_EEE4growEv
xLd:_GraphicRaycaster__ctor_m646559428
_lg:_CipherSuite_get_CipherAlgorithmType_m137858741
JKc:__ZNK15b2DistanceJoint17GetReactionTorqueEf
fQg:_BitArrayEnumerator_get_Current_m4220391712
LWe:__Z37il2cpp_codegen_get_executing_assemblyPK10MethodInfo
jFf:_Transform_get_parent_m835071599
gU:__ZN4core8hash_setINS_4pairIKi17ThreadedAwakeDataLb0EEENS_9hash_pairINS_4hashIiEES2_S3_EENS_10equal_pairINSt3__28equal_toIiEES2_S3_EEE4growEi
SXa:__ZN9Transform23VirtualRedirectTransferER17RemapPPtrTransfer
W8f:_IPAddress_get_ScopeId_m4237202723
gaa:__ZN9Scripting11UnityEngine12Experimental10PlayerLoop9PreUpdate12CleanupProxyEv
n6e:_InternalEnumerator_1_MoveNext_m3520556285_AdjustorThunk
Ejj:_ExpressionCollection_get_Item_m3510736379
sKe:__ZL62FontData_t746620069_CustomAttributesCacheGenerator_m_AlignmentP21CustomAttributesCache
eDd:_StandaloneInputModule_get_inputActionsPerSecond_m3946624274
aSh:_UTF8Encoding_InternalGetCharCount_m82458470
dJf:_Vector2__cctor_m2108982652
jAf:_U3CBlockUntilRecvMsgU3Ec__AnonStorey2_U3CU3Em__0_m2225790220
Z7:__ZN9Scripting11UnityEngine9Rendering20SphericalHarmonicsL29InitProxyEv
Hbf:_InternalEnumerator_1_MoveNext_m2734554195_AdjustorThunk
v9j:__ZN14dense_hash_mapI10KeyWrapperIP14Il2CppIUnknownEjN6il2cpp5utils11PointerHashIS1_EENS3_14EqualsComparerINSt3__28equal_toIS2_EEEENS9_9allocatorINS9_4pairIKS3_jEEEEE15set_deleted_keyERSF_
C3j:__ZN6il2cpp2gc9AllocatorIP12Il2CppThreadE10deallocateEPvj
oMc:__ZN24b2ChainAndCapsuleContact8EvaluateEP10b2ManifoldRK11b2TransformS4_
f_j:__ZN13Il2CppHashMapIPK14Il2CppAssemblyPK22Il2CppMonoAssemblyNameN6il2cpp5utils11PointerHashIS1_EENSt3__28equal_toIS2_EENSA_9allocatorINSA_4pairIK10KeyWrapperIS2_ES5_EEEEEC2EjRKS9_RKSC_
qHg:_DelegatePInvokeWrapper_AppDomainInitializer_t682969308
kwe:__ZL141SupportedRenderingFeatures_t353898663_CustomAttributesCacheGenerator_SupportedRenderingFeatures_IsMixedLightingModeSupportedByRef_m2282093837P21CustomAttributesCache
AV:__ZN8Remapper6RemoveEi
ehi:_UnityEvent_1__ctor_m3777630589_gshared
x0a:__ZN10MemoryFile4ReadEyPvPy
yDg:_Encoding_GetBytes_m3148649984
Vpc:__ZN9Scripting27CreateArgumentNullExceptionEPKc
f5c:__ZL36CleanupTextRenderingScriptingClassesv
dVb:__ZN15ReflectionProbe17UseRendererResultEP13ProbeRenderer
Csc:__Z34Mesh_CUSTOM_SetArrayForChannelImplP12Il2CppObject30InternalScriptingShaderChannel34InternalScriptingVertexChannelTypeiP11Il2CppArrayi
FS:__Z32scripting_class_get_nested_types17ScriptingClassPtrRNSt3__26vectorIS_13stl_allocatorIS_L18MemLabelIdentifier1ELi16EEEE
iDj:_CanvasRenderer_INTERNAL_CALL_EnableRectClipping_m3318097918
yZh:_UInt64_System_IConvertible_ToDecimal_m806594027_AdjustorThunk
y5:__ZL58__ManagedRegistrationHelperFunction_MaterialEffectPlayablePv
iud:__ZN11UnityEngine7Connect20RemoteConfigSettings18StaticCallOnUpdateEPS1_
Lhi:_UnityEvent_1_GetDelegate_m274387680_gshared
Wgf:_Enumerator_get_CurrentValue_m3103267885_gshared
UUi:_List_1__ctor_m3395838871_gshared
sUg:_CultureInfo_get_Parent_m672689885
Hw:__ZN9Scripting11UnityEngine18AssetBundleRequest9InitProxyEv
mej:_PKCS12__ctor_m1854440921
cPi:_Array_Resize_TisCustomAttributeNamedArgument_t287865710_m885566878_gshared
AX:__ZN17TransformInternal19FreeTransformThreadER18TransformHierarchyjj
Zs:__ZN9Scripting11UnityEngine12SkeletonBone12CleanupProxyEv
sCh:_DefaultComparer__ctor_m2556554241_gshared
nu:__ZN11UnityEngine9Animation28GenericAnimationBindingCache25RegisterIAnimationBindingEPKN5Unity4TypeEiP17IAnimationBinding
mYd:_FormatterData__ctor_m3990517908
wld:__Z70RectTransformUtility_CUSTOM_INTERNAL_CALL_RectangleContainsScreenPointP12Il2CppObjectRK13Vector2fIcallS0_
S0g:_DirectoryInfo__ctor_m481305441
Xyk:dynCall_viiffiii
deg:_X509ExtensionCollection_get_SyncRoot_m2667861032
NIj:__ZN6il2cpp2vm5Class15GetElementClassEP11Il2CppClass
r6b:__ZNK6Sprite15GenerateOutlineEfhbRNSt3__26vectorI13dynamic_arrayI8Vector2fLj0EENS0_9allocatorIS4_EEEEi
DQ:__ZN10MemoryPoolC2E10MemLabelIdbPKciii
p9i:_Collection_1_SetItem_m941095285_gshared
pnd:__ZN14UnityAnalytics25UnregisterGlobalCallbacksEv
vTb:__Z40ProcessCameraIndexListIsNodeVisibleInOutRK22SceneCullingParametersPK9SceneNodePK4AABBR9IndexList
ypj:_GUIScrollGroup_SetHorizontal_m291416666
Hqa:__ZN16GraphicsSettings8TransferI17RemapPPtrTransferEEvRT_
ccf:_InternalEnumerator_1__ctor_m4175030001_AdjustorThunk
Mag:_X509BasicConstraintsExtension_Decode_m120598446
hAa:__ZN7Texture19SupportsAsyncUploadI19StreamedBinaryWriteILb0EEEEbRT_
Zyi:__Z49RuntimeInvoker_Boolean_t97287965_Rect_t2360479859PFvvEPK10MethodInfoPvPS4_
qOf:_ObjectReader_ReadObjectGraph_m340866276
Aye:__ZL101Transform_t3600365921_CustomAttributesCacheGenerator_Transform_INTERNAL_get_localRotation_m1111330565P21CustomAttributesCache
Sti:__Z51RuntimeInvoker_UInt32_t2560061978_Int16_t2552820387PFvvEPK10MethodInfoPvPS4_
uwb:__ZNK13GfxDeviceGLES12GetWireframeEv
Lqj:_DelegatePInvokeWrapper_Action_t1264377477
HBe:__ZL64EventType_t3528516131_CustomAttributesCacheGenerator_dragUpdatedP21CustomAttributesCache
Brd:__ZN11UnityEngine7Connect13ConfigHandler12GetListenersERKN4core12basic_stringIcNS2_20StringStorageDefaultIcEEEE
B3a:__ZN9GfxDevice18AllocRenderSurfaceEb
nMg:_Char__cctor_m2787437263
alc:__ZN10TagManager32GetSortingLayerUniqueIDFromValueEi
tEd:_AspectRatioFitter_get_rectTransform_m2996235303
tS:__ZL27CleanupCoreScriptingClassesv
XUg:_DateTimeFormatInfo_get_IsReadOnly_m1173781646
gWg:_NumberFormatInfo_get_PercentPositivePattern_m1800841633
uLd:_Graphic_UnregisterDirtyMaterialCallback_m2707090617
qff:_Comparer_1_System_Collections_IComparer_Compare_m1313384821_gshared
wZf:_LayoutRebuilder_GetHashCode_m1943075341
w$e:_GenericTypeParameterBuilder_MakeGenericType_m3048165991
Sdc:__Z26AnimationCurve_CUSTOM_InitP12Il2CppObjectP11Il2CppArray
xGk:_glUniform1uiv__wrapper
xMc:__ZNK14b2PolygonShape5CloneEP16b2BlockAllocator
SZj:__ZN6il2cpp2vm10Reflection7IsEventEP12Il2CppObject
qsk:__ZNSt3__26__treeINS_12__value_typeIPFvvEPK10MethodInfoEENS_19__map_value_compareIS3_S7_NS_4lessIS3_EELb1EEENS_9allocatorIS7_EEE16__insert_node_atEPNS_16__tree_node_baseIPvEERSI_SI_
BV:__ZN17PersistentManager26GetStreamNameSpaceInternalEi
SC:__ZN4FMOD6System11createSoundEPKcjP22FMOD_CREATESOUNDEXINFOPPNS_5SoundE
co:FUNCTION_TABLE_iiifiiii
Lbf:_InternalEnumerator_1_System_Collections_IEnumerator_Reset_m1451164462_AdjustorThunk
W0c:__ZN13SpeedTreeWind20AdvanceWithoutUpdateEd
n2h:_ReadOnlyCollection_1_System_Collections_Generic_ICollectionU3CTU3E_Add_m1422506275_gshared
Ech:_DateTime_System_IConvertible_ToDecimal_m1044850612
BUi:_List_1_IndexOf_m2206067159_gshared
N3e:_InternalEnumerator_1_System_Collections_IEnumerator_Reset_m1318888374_AdjustorThunk
zR:__ZN9ShaderLab19CommonPropertyNames13StaticCleanupEPv
QU:__Z31scripting_method_get_returntype18ScriptingMethodPtr
Nxj:__ZL24UnresolvedVirtualCall_76P12Il2CppObjectPK10MethodInfo
nGa:__ZN15SerializeTraitsI12LightmapDataE8TransferI24GenerateTypeTreeTransferEEvRS0_RT_
fwg:_SecurityElement_AddAttribute_m311510562
kca:__ZN9Scripting5Unity11Collections44NativeDisableParallelForRestrictionAttribute12CleanupProxyEv
WCk:_glStencilOpSeparate__wrapper
koc:__ZN4Mesh5SetUvEiPKfjj
ZDa:__ZN7Texture13SetAnisoLimitENS_20AnisotropicFilteringE
Wvd:__ZN20UnityWebRequestProtoI24UnityWebRequestTransport16AtomicRefCounter14RedirectHelper14ResponseHelper15DownloadHandler13UploadHandler18CertificateHandler12HeaderHelper14AsyncOperationED2Ev
gKg:_Attribute_IsDefined_m4069052474
Uh:_emscripten_glCompressedTexSubImage2D
nCb:__ZN13GfxDeviceGLES22MemoryBarrierImmediateEyN2gl17MemoryBarrierTypeE
PXf:_U3CCaretBlinkU3Ec__Iterator0_Dispose_m860898205
g3:__ZN6prcoreL26RemapGenericFloatToIntegerI18TexFormatARGBFloat17TexFormatARGB8888EEvPKNS_9InnerInfoE
_Pc:__ZN14qsort_internal5QSortIPN35b2SynchronizeContinuousFixturesTask14b2DeferredMoveEiPFbRKS2_S5_EEEvT_S8_T0_T1_
f1i:_List_1_set_Capacity_m1977188119_gshared
rpc:__Z46GetShaderModelNumericValueFromRequirementsMask18ShaderRequirements
H8c:_cff_ps_has_glyph_names
j5d:__ZL86MSCompatUnicodeTable_t1453885583_CustomAttributesCacheGenerator_U3CU3Ef__switchU24map2P21CustomAttributesCache
aCh:_Dictionary_2_Resize_m3287623642_gshared
Dlk:_GC_write
Gzi:__Z98RuntimeInvoker_Boolean_t97287965_PlayableOutputHandle_t4208053793_PlayableOutputHandle_t4208053793PFvvEPK10MethodInfoPvPS4_
CKf:_SoapTypeAttribute_SetReflectionObject_m1691526413
eLd:_Graphic_OnPopulateMesh_m767318148
Ar:__ZN17ConstraintManagerD2Ev
tTf:_HMACSHA512_set_ProduceLegacyHmacValues_m3961135292
gxj:__ZL24UnresolvedVirtualCall_43P12Il2CppObjectS0_PK10MethodInfo
apf:_Dictionary_2_Remove_m4193450060_gshared
uwh:_ASN1_get_Tag_m1032367219
Msj:_StandardEventPayload_set_name_m549984672
R_g:_Int64_TryParse_m3606398488
ZNi:_Array_InternalArray__set_Item_TisMark_t3471605523_m1299772331_gshared
bxc:__Z44Register_UnityEngine_GUIStyle_SetDefaultFontv
y6b:__ZN19SpriteMeshGenerator9MakeShapeEP11ColorRGBA32iifhbjfi
qjb:__Z18Transfer_BlittableI18StreamedBinaryReadILb1EELb1EiEvRK29SerializationCommandArgumentsR31RuntimeSerializationCommandInfo
uoi:__Z173RuntimeInvoker_Int32_t2950945753_RuntimeObject_Int32_t2950945753_Int32_t2950945753_Int32_t2950945753_RuntimeObject_Int32_t2950945753_SByte_t1669577662_ContextU26_t3937453398PFvvEPK10MethodInfoPvPS4_
MWi:_List_1__ctor_m2576108087_gshared
HYj:__ZN15dense_hashtableINSt3__24pairIK10KeyWrapperINS1_IPK12PropertyInfoP11Il2CppClassEEEjEES9_17ReflectionMapHashIS8_EN14dense_hash_mapIS9_jSD_NS9_14EqualsComparerINS0_8equal_toIS8_EEEENS0_9allocatorISB_EEE9SelectKeyESI_SK_E12maybe_shrinkEv
fzj:__ZL25UnresolvedVirtualCall_150P12Il2CppObject19Vector2_t2156229523S1_fiPK10MethodInfo
Jej:_X509Certificate_get_DSA_m565099499
Rjb:__Z18Transfer_BlittableI18StreamedBinaryReadILb1EELb1EsEvRK29SerializationCommandArgumentsR31RuntimeSerializationCommandInfo
kQh:_StringBuilder_Remove_m940064945
EPa:__ZN14SafeBinaryRead21TransferSTLStyleArrayI13dynamic_arrayI16SplashScreenLogoLj0EEEEvRT_17TransferMetaFlags
g7a:__ZN13dynamic_arrayIN16GeometryJobTasks15GeometryJobTaskELj0EE18resize_initializedEjRKS1_12ResizePolicy
RRf:_DESCryptoServiceProvider_GenerateIV_m683687014
FHh:_GenericComparer_1__ctor_m1900257738_gshared
dEa:__ZL21SetAnisoLimitEnumImplN7Texture20AnisotropicFilteringEb
wrd:__ZN22BaseUnityConnectClient17OnEnterStateReadyEv
I5f:_Text_get_fontSize_m1677872538
_Oh:_List_1_System_Collections_IList_get_Item_m995551621_gshared
P9:__ZN9Scripting11UnityEngine12Experimental9Rendering15ShadowSplitData9InitProxyEv
GNa:__ZN16BlendShapeVertex8TransferI19StreamedBinaryWriteILb0EEEEvRT_
eec:__Z29Input_CUSTOM_GetMouseButtonUpi
HYg:_Int16_Parse_m138525169
_Tj:__ZN6il2cpp6icalls8mscorlib6System8MonoType16InternalGetEventEP20Il2CppReflectionTypeP12Il2CppStringi
jnj:_UriScheme_t722425697_marshal_pinvoke_back
zad:_UNITY_tt_face_load_maxp
tec:__Z46Input_CUSTOM_INTERNAL_set_compositionCursorPosRK13Vector2fIcall
oLb:__ZN13BatchRenderer15ApplyShaderPassER17ShaderPassContextPK18SharedMaterialDataP6ShaderPN9ShaderLab4PassEi13BatchingFlagsbbPKNS7_10GrabPassesEPK22DeviceRenderStateBlock
RLa:__ZN19ShaderPropertySheet11ComputeHashEv
XMj:__ZN30dense_hashtable_const_iteratorI10KeyWrapperIPK19Il2CppGenericMethodES4_N6il2cpp8metadata23Il2CppGenericMethodHashEN14dense_hash_setIS4_S7_NS4_14EqualsComparerINS6_26Il2CppGenericMethodCompareEEENSt3__29allocatorIS4_EEE8IdentityESB_SE_EppEv
sId:_Resources_t1597885468_marshal_pinvoke_cleanup
bNc:__ZN12b2EPCollider24ComputePolygonSeparationEv
Nkb:__ZN4PPtrI6ObjectE8TransferI18StreamedBinaryReadILb1EEEEvRT_
iK:__ZN11UnityEngine15CloudWebService20WebRequestRestClient6IsDoneEv
Zkj:_Group__ctor_m2980794822
Kbj:_X509CertificateCollection_get_Item_m1033426577
Jei:_CachedInvokableCall_1_Invoke_m502907382_gshared
ame:__ZL79Enumerable_t538148348_CustomAttributesCacheGenerator_Enumerable_Any_m1084009618P21CustomAttributesCache
Ri:_llvm_fabs_f32
NJ:__ZN11UnityEngine15CloudWebService16SessionContainer16GetJsonDataBlockEjRKN4core12basic_stringIcNS2_20StringStorageDefaultIcEEEERS6_PjSA_
qwh:_ASN1_Decode_m1695284166
ITc:__ZN24JointTranslationLimits2D8TransferI14SafeBinaryReadEEvRT_
Plg:__ZN23GenericVirtFuncInvoker0IP28ValidationResult_t3834298736E6InvokeEPK10MethodInfoP12Il2CppObject
D_j:__ZN15dense_hashtableINSt3__24pairIK10KeyWrapperIPK14Il2CppAssemblyEPK22Il2CppMonoAssemblyNameEES6_N6il2cpp5utils11PointerHashIS4_EEN14dense_hash_mapIS6_SA_SF_NS6_14EqualsComparerINS0_8equal_toIS5_EEEENS0_9allocatorISB_EEE9SelectKeyESK_SM_E13set_empty_keyERKSB_
B8i:_Collection_1_RemoveAt_m2240641437_gshared
vih:_Enum_ToString_m3248653065
A2c:__ZN18StreamedBinaryReadILb0EE21TransferSTLStyleArrayI13dynamic_arrayIcLj0EEEEvRT_17TransferMetaFlags
_Wd:_ChannelServices__cctor_m2475086854
mdj:_TlsStream_get_Position_m1904146856
UT:__ZN14SafeBinaryReadD2Ev
gmh:_SetPropertyUtility_SetStruct_TisFillMethod_t1167457570_m4164776730_gshared
DMh:_Enumerator_MoveNext_m3859993671_gshared
X1c:__ZN14SafeBinaryRead21TransferSTLStyleArrayI13dynamic_arrayIN20TextRenderingPrivate8FontImpl13CharacterInfoELj0EEEEvRT_17TransferMetaFlags
flb:__ZN8Gradient8TransferI18StreamedBinaryReadILb1EEEEvRT_
nig:_SequentialSearchPrimeGeneratorBase_IsPrimeAcceptable_m1127740833
xeg:_Capture__ctor_m3103117740
sni:__Z113RuntimeInvoker_Void_t1185182177_RuntimeObject_Int64_t3736567304_RuntimeObject_Int64_t3736567304_Int64_t3736567304PFvvEPK10MethodInfoPvPS4_
Tyc:__ZN5Unity9rapidjson8internal6Grisu2EdPcPiS3_
B6i:_Collection_1_get_Item_m1493027586_gshared
KCf:_RangeInt_get_end_m4128831787_AdjustorThunk
R8j:__ZN6il2cpp6icalls8mscorlib6System4Type15MakeGenericTypeEP20Il2CppReflectionTypeP11Il2CppArray
rj:_SDL_PauseAudio
iAj:__ZL25UnresolvedVirtualCall_207P12Il2CppObject6Guid_tS1_PK10MethodInfo
RRg:_Hashtable_Clone_m3078962909
h2j:_il2cpp_class_from_type
TUj:__ZN6il2cpp2os4File11GetStdErrorEv
lHj:_NativeHeaderAttribute__ctor_m457462113
Ahe:__ZL77Convert_t2465617642_CustomAttributesCacheGenerator_Convert_ToSByte_m516918950P21CustomAttributesCache
yR:__ZN9ShaderLab19CommonPropertyNames16StaticInitializeEPv
LVa:__ZN13MemoryManager31DisallowAllocationsOnThisThreadEv
ref:_Comparer_1__cctor_m2517796511_gshared
zu:__ZN7mecanim9animation18CreateAvatarOutputEPKNS0_14AvatarConstantEbbRNS_6memory9AllocatorE
Ypg:_TlsServerCertificateRequest_Update_m2763887540
Juj:_DelegatePInvokeWrapper_PCMSetPositionCallback_t1059417452
y4f:_Slider_set_maxValue_m2251404465
h5f:_SpriteState_get_pressedSprite_m3868967445_AdjustorThunk
Wnc:__ZN7Texture11SetWrapModeE15TextureWrapMode
zsd:__ZN22BaseUnityConnectClient13ResumeSessionEv
Iya:__ZN14Texture2DArray23VirtualRedirectTransferER14SafeBinaryRead
xRe:_MissingMemberException__ctor_m1220732369
bOb:__ZNK6Camera21CalculateCanDoShadowsEv
iDi:__Z52RuntimeInvoker_Void_t1185182177_Int32U26_t1369213839PFvvEPK10MethodInfoPvPS4_
NHj:_GenerateManagedProxyAttribute_set_NativeType_m3203265247
_gk:__ZN6il2cpp2os6Thread12SetStackSizeEj
P_f:_MaskableGraphic_RecalculateMasking_m183336762
DSi:_Array_InternalArray__get_Item_TisRuntimeObject_m3347010206_gshared
Vzi:__Z38RuntimeInvoker_LightmapsMode_t12202505PFvvEPK10MethodInfoPvPS4_
dPd:_TypeBuilder_IsSubclassOf_m3458909121
dzk:dynCall_viffii
omb:__Z18Transfer_BlittableI18StreamedBinaryReadILb0EELb1EhEvRK29SerializationCommandArgumentsR31RuntimeSerializationCommandInfo
lFg:_X509Certificate__cctor_m198658613
flc:__ZL24GenerateTilingJobCombineP22GenerateTilingAreaInfo
lqi:__Z43RuntimeInvoker_MethodAttributes_t2366443849PFvvEPK10MethodInfoPvPS4_
wBf:_PlayableHandle_Equals_m1666612586_AdjustorThunk
O2:__ZN6prcoreL27StretchGenericFloatBilinearI15TexFormatRFloatEEvPKNS_9InnerInfoE
dle:__ZL139ServicePointManager_t170559685_CustomAttributesCacheGenerator_ServicePointManager_t170559685____CheckCertificateRevocationList_PropertyInfoP21CustomAttributesCache
Hih:_Enum_ToObject_m1628250250
K4g:_StreamWriter_LowLevelWrite_m1081676583
$Ha:__ZN19StreamedBinaryWriteILb0EE21TransferSTLStyleArrayI13dynamic_arrayI8Vector2fLj0EEEEvRT_17TransferMetaFlags
tCa:__Z14PadImageBorderR14ImageReferenceii
hXj:__ZN15dense_hashtableINSt3__24pairIK10KeyWrapperINS1_IPK10MethodInfoP11Il2CppClassEEEjEES9_17ReflectionMapHashIS8_EN14dense_hash_mapIS9_jSD_NS9_14EqualsComparerINS0_8equal_toIS8_EEEENS0_9allocatorISB_EEE9SelectKeyESI_SK_E4findERSA_
fQj:__ZN6il2cpp2vm13MetadataCache28GetFieldDefaultValueForFieldEPK9FieldInfo
xoh:_Array_IndexOf_TisUIVertex_t4057497605_m3336763564_gshared
C5h:__ZN21InterfaceFuncInvoker1I22OrderBlock_t1585977831iE6InvokeEjP11Il2CppClassP12Il2CppObjecti
FGd:_ColorBlock_Equals_m518833916_AdjustorThunk
rOh:_List_1_GetEnumerator_m2838255531_gshared
M4e:_InternalEnumerator_1_System_Collections_IEnumerator_get_Current_m1514266661_AdjustorThunk
Qy:__ZN12AudioManager39HandlePendingAudioConfigurationCallbackEv
$6:__ZL43__ManagedRegistrationHelperFunction_Vector3Pv
rk:_emscripten_glIsFramebuffer
Ryh:_RSAManaged_EncryptValue_m799827583
pUb:__ZN12_GLOBAL__N_16qAtan2Eff
Hki:__Z61RuntimeInvoker_UInt32_t2560061978_RuntimeObject_RuntimeObjectPFvvEPK10MethodInfoPvPS4_
RTh:_ThreadAbortException__ctor_m1955533141
vk:_JS_Sound_SetLoopPoints
kqk:__ZN6il2cpp2vm26MetadataAllocGenericMethodEv
qlh:_Array_InternalArray__ICollection_Remove_TisUInt16_t2177724958_m1766181761_gshared
DEb:__ZN19ConstantBuffersGLES12RecordRenderEv
Nhi:_UnityEvent_1__ctor_m3675246889_gshared
mBc:__ZN9JSONWrite8TransferI10RectOffsetEEvRT_PKc17TransferMetaFlags
kCa:__ZN4crnd12symbol_codec11decode_bitsEj
SFi:__Z59RuntimeInvoker_Boolean_t97287965_KeyValuePair_2_t3842366416PFvvEPK10MethodInfoPvPS4_
gkg:_EncryptedPrivateKeyInfo__ctor_m3415744930
xNc:__ZN15b2CircleContact8EvaluateEP10b2ManifoldRK11b2TransformS4_
eag:_AsnEncodedData__ctor_m3792312694
Wqj:_AesManaged_GenerateIV_m1368817386
Jhc:__ZN21FixedBehaviourManagerD0Ev
ay:__ZN4FMOD6System12createReverbEPPNS_6ReverbE
Ijk:__ZN6il2cpp2vm6String21InitializeEmptyStringEP11Il2CppClass
lyh:_PKCS1_RSASP1_m3912327535
TQf:_CodeAccessPermission_GetHashCode_m880096813
NVa:__Z16MarkDependenciesR27GarbageCollectorThreadStatej
NWe:_AssemblyConfigurationAttribute__ctor_m3236176989
Cji:_ObjectPool_1_get_countInactive_m526975942_gshared
Zwj:__ZL24UnresolvedVirtualCall_34P12Il2CppObjectPK10MethodInfo
hLf:_RemotingServices_DisposeIdentity_m2605848806
L1:__ZNK9Transform11GetPositionEv
m2g:_WriteDelegate_EndInvoke_m952736984
Jqf:_Bounds_set_size_m4127623202
hXg:_GuidParser_Reset_m2640004655
g8b:__ZN23SharedMeshRenderingData18UnloadVertexStreamEi
Qmc:__ZN31CanvasBatchIntermediateRenderer11AddSubBatchERK16DrawBuffersRangePK19ShaderPropertySheet
Oic:__ZN19RenderEventsContextC2Ei
KH:__Z6simd4fRKf
nye:__ZL67SceneManager_t2787271929_CustomAttributesCacheGenerator_sceneLoadedP21CustomAttributesCache
JVg:_GregorianCalendar_GetEra_m2369958449
Zk:_emscripten_glEnable
s6e:_InternalEnumerator_1_System_Collections_IEnumerator_get_Current_m2982675020_gshared
$fa:__ZN10TagManager23VirtualRedirectTransferER14SafeBinaryRead
YLe:__ZL51RawImage_t3182918964_CustomAttributesCacheGeneratorP21CustomAttributesCache
O1h:_Collection_1_System_Collections_IList_get_Item_m2931804586_gshared
PKf:_ObjRef_get_EnvoyInfo_m1782007847
XWi:_List_1_System_Collections_ICollection_get_IsSynchronized_m3331050698_gshared
ZQb:__Z15InitLightMeshesv
cRd:_MonoCMethod_ToString_m3992577062
t3j:_RaycastHit_get_collider_m1464180279
M4d:__ZL76MarshalAsAttribute_t3522571978_CustomAttributesCacheGenerator_MarshalTypeRefP21CustomAttributesCache
W8h:_ReadOnlyCollection_1_System_Collections_IList_Contains_m2904046095_gshared
UDa:__ZN15QualitySettings8TransferI19StreamedBinaryWriteILb0EEEEvRT_
yAc:__Z18Transfer_BlittableI9JSONWriteLb1E11ColorRGBA32EvRK29SerializationCommandArgumentsR31RuntimeSerializationCommandInfo
YZf:_LayoutUtility_U3CGetFlexibleHeightU3Em__7_m2991026842
zhb:__Z18Transfer_BlittableI19StreamedBinaryWriteILb0EELb1E8Vector2fEvRK29SerializationCommandArgumentsR31RuntimeSerializationCommandInfo
j6c:_cf2_arrstack_init
MSi:_Array_InternalArray__get_Item_TisResourceCacheItem_t51292791_m1306056717_gshared
$Bi:__Z157RuntimeInvoker_Void_t1185182177_RuntimeObject_RuntimeObject_RuntimeObject_RuntimeObject_RuntimeObject_RuntimeObject_RuntimeObject_RuntimeObject_RuntimeObjectPFvvEPK10MethodInfoPvPS4_
Hzd:_EventSystem_get_pixelDragThreshold_m1103650852
kne:__ZL60StaticAccessorType_t186341701_CustomAttributesCacheGeneratorP21CustomAttributesCache
OO:__Z15CleanLogHandler7LogTypePKcz
KUe:_NumberFormatter_NumberToString_m2481532188
c3b:__ZN9ShaderLab19SerializedSubShader8TransferI19StreamedBinaryWriteILb0EEEEvRT_
J2f:_ScrollRect_InternalGetBounds_m599803667
sif:_Enumerator_MoveNext_m76191888_gshared
tE:__ZN14AudioBehaviour15ThreadedCleanupEv
Dca:__ZN9Scripting5Unity11Collections8LowLevel6Unsafe41NativeContainerIsAtomicWriteOnlyAttribute9InitProxyEv
aqb:__ZN6Camera17RemoveImageFilterERK11ImageFilter
M7a:__ZNSt3__218__insertion_sort_3IR25ValueParameterArraySorterPN20GpuProgramParameters14ValueParameterEEEvT0_S6_T_
bVc:__ZN10ClipperLib7Clipper27ProcessEdgesAtTopOfScanbeamEx
Tke:__ZL67EditorBrowsableAttribute_t1475454531_CustomAttributesCacheGeneratorP21CustomAttributesCache
XQg:_Comparer__cctor_m3311686689
owj:_SampleFramesHandler__ctor_m3908528909
cEd:_UIBehaviour_OnDidApplyAnimationProperties_m2143584361
u8f:_HttpWebRequest_get_Address_m2672661563
OVh:_TimeZone__ctor_m1831364098
kZj:__ZNK10KeyWrapperINSt3__24pairIPK9EventInfoP11Il2CppClassEEE14EqualsComparerINS0_8equal_toIS7_EEEclERKS8_SE_
W5e:_InternalEnumerator_1_get_Current_m3500427238_AdjustorThunk
Xmd:__ZN2UI26InitializeDeviceForOverlayEi
Ehg:_Kernel_PlusEq_m136676638
iQ:__Z27LogRepeatingStringWithFlagsRKN4core12basic_stringIcNS_20StringStorageDefaultIcEEEE15LogMessageFlagsi
JZh:_UInt64_System_IConvertible_ToSingle_m925613075
Iih:_Enum_IsDefined_m1442314461
qTh:_Thread__cctor_m817723615
Quj:_AudioExtensionManager_RegisterBuiltinDefinitions_m2742744104
sdi:_Predicate_1_EndInvoke_m3884403745_gshared
LCg:_DecoderReplacementFallbackBuffer_Fallback_m1261056214
FJb:__ZNSt3__227__insertion_sort_incompleteIRPFbP10GUIElementS2_EPS2_EEbT0_S7_T_
FSe:_Binder_get_DefaultBinder_m950908649
h1g:_StreamReader__ctor_m1616861391
Pbd:_tt_cmap6_char_index
tsd:__ZN18UnityConnectClient33OnPlayerSessionStateChangedStaticEPS_jyy
$Oc:__ZN19ProcessContactsDataD2Ev
Asg:_RSA_ToXmlString_m2922661427
UK:__ZNK11UnityEngine15CloudWebService23WebRequestUploadHandler11GetProgressEv
Uzb:__ZN7ApiGLES4LoadE16GfxDeviceLevelGL
RBe:__ZL61GUIContent_t3050628031_CustomAttributesCacheGenerator_m_ImageP21CustomAttributesCache
eCa:__ZN4crnd12crn_unpacker22decode_color_endpointsEv
zck:__ZN15dense_hashtableI10KeyWrapperIP18Il2CppGenericClassES3_N6il2cpp8metadata22Il2CppGenericClassHashEN14dense_hash_setIS3_S6_NS3_14EqualsComparerINS5_25Il2CppGenericClassCompareEEENSt3__29allocatorIS3_EEE8IdentityESA_SD_E15insert_noresizeERKS3_
qkc:__ZZL31RegisterOtherRendererPropertiesR22GenericPropertyBindingEN30Wrapper_RendererReceiveShadows13GetFloatValueEPv
Vea:__ZN8Vector4f8TransferI18StreamedBinaryReadILb0EEEEvRT_
Ojh:_Array_InternalArray__ICollection_Contains_TisSlot_t384495010_m688761886_gshared
JBa:__ZN17SharedTextureDataC2E10MemLabelIdii13TextureFormatjiibb
RDi:__Z114RuntimeInvoker_RuntimeObject_RuntimeObject_Int32_t2950945753_Int32_t2950945753_Int32_t2950945753_Int32_t2950945753PFvvEPK10MethodInfoPvPS4_
dtb:__ZN8Material11SetPassFastEPN9ShaderLab4PassER17ShaderPassContextP6Shaderib
csd:__ZN11UnityEngine7Connect20BasePersistentValues10SaveValuesER9JSONWrite
daj:_Collection_1_IsFixedSize_m3748602684_gshared
Gch:_DateTime_System_IConvertible_ToDouble_m2116720007
Lig:_BitConverterLE_GetUIntBytes_m795219058
ztf:_Display_GetSystemExtImpl_m2808197389
FUh:_WaitHandle_WaitOne_m2577152516
GQf:_SByte_Parse_m2899090751
Gce:__ZL56ObjectManager_t1653064325_CustomAttributesCacheGeneratorP21CustomAttributesCache
e9:__ZN9Scripting11UnityEngine20ManagedStreamHelpers12CleanupProxyEv
OZ:__Z18GetITerrainManagerv
jVe:_NumberFormatter_AppendExponent_m1258666517
L1e:_ArrayReadOnlyList_1_GetEnumerator_m1835926958_gshared
GY:__ZN20GlobalCachingManager7DisposeEv
IKb:__Z12SetupLODFadeR9GfxDeviceR17ShaderPassContextf
cCc:__ZN9JSONWrite8TransferI13dynamic_arrayI4AABBLj0EEEEvRT_PKc17TransferMetaFlags
t4d:__ZL69Type_t_CustomAttributesCacheGenerator_Type_GetConstructors_m576905011P21CustomAttributesCache
MQb:__ZL24CollectForwardObjectsJobP27CollectForwardObjectsHeader
zPj:__ZNK15dense_hashtableINSt3__24pairIK10KeyWrapperIPK11Il2CppClassEPKcEES6_N6il2cpp5utils11PointerHashIS3_EEN14dense_hash_mapIS6_S9_SE_NS6_14EqualsComparerINS0_8equal_toIS5_EEEENS0_9allocatorISA_EEE9SelectKeyESJ_SL_E12test_deletedERK24dense_hashtable_iteratorISA_S6_SE_SN_SJ_SL_E
cEc:__ZN8JSONRead21TransferSTLStyleArrayI13dynamic_arrayIdLj0EEEEvRT_17TransferMetaFlags
gTb:__Z13IsNodeVisibleRK9SceneNodeRK4AABBRK22SceneCullingParameters
_oh:_Array_InternalArray__IndexOf_TisLabelFixup_t858502054_m1491765395_gshared
Fni:__Z44RuntimeInvoker_RuntimeTypeHandle_t3027515415PFvvEPK10MethodInfoPvPS4_
tdf:__ZN21InterfaceFuncInvoker1IibE6InvokeEjP11Il2CppClassP12Il2CppObjectb
yPd:__ZN30GenericInterfaceActionInvoker1IP20Delegate_t1188392813E6InvokeEPK10MethodInfoP12Il2CppObjectS1_
Lth:_SortKeyBuffer_AppendCJKExtension_m2591091991
Cld:__Z57RectTransformUtility_CUSTOM_INTERNAL_CALL_PixelAdjustRectP12Il2CppObjectS0_R5RectTIfE
WRh:_UTF8Encoding_GetByteCount_m4153686982
uIk:_emscripten_glStencilMask__wrapper
hmi:__Z49RuntimeInvoker_Void_t1185182177_Double_t594665363PFvvEPK10MethodInfoPvPS4_
NMj:__ZN15dense_hashtableI10KeyWrapperIPK19Il2CppGenericMethodES4_N6il2cpp8metadata23Il2CppGenericMethodHashEN14dense_hash_setIS4_S7_NS4_14EqualsComparerINS6_26Il2CppGenericMethodCompareEEENSt3__29allocatorIS4_EEE8IdentityESB_SE_EC2ERKSH_j
Mka:__ZN15RenderNodeQueue7CleanupEv
Zne:__ZL66RuntimePlatform_t4159857903_CustomAttributesCacheGenerator_XBOX360P21CustomAttributesCache
N_a:__ZNK17ArchiveFileSystem8PositionERK13FileEntryData
T$c:__ZN16NovodexAllocator8allocateEjPKcS1_i
gQb:__Z17PrepareShadowMapsRK11CullResultsRK11ActiveLightRK10MinMaxAABB
Aej:_DeriveBytes_DeriveIV_m973925711
sZg:_Int32_System_IConvertible_ToSByte_m3133688512
ayd:__ZN9Scripting11UnityEngine12Experimental23SubsystemDescriptorBase9InitProxyEv
X8h:_ReadOnlyCollection_1_System_Collections_IList_IndexOf_m848971554_gshared
Xvj:_AudioSampleProvider_get_id_m2692334523
IQb:__ZN9ShaderLab10GrabPassesD2Ev
Jza:__ZN14Texture2DArray13UploadTextureEv
z_f:_MaskableGraphic_UpdateCull_m2805101913
fbd:_tt_cmap14_done
NTa:__ZN18AwakeFromLoadQueue25RegisterObjectInstanceIDsEv
BUf:_InputField_UpdateLabel_m1837760870
Voa:__ZN14VertexDataInfo12UpdateFormatEj17ShaderChannelMaskS0_RK19VertexStreamsLayoutRK20VertexChannelsLayout
c3c:__ZN20TextRenderingPrivate19NativeTextGenerator15InsertCharacterEiPj
Uoi:__Z77RuntimeInvoker_Void_t1185182177_RuntimeObject_SByte_t1669577662_RuntimeObjectPFvvEPK10MethodInfoPvPS4_
Api:__Z81RuntimeInvoker_Void_t1185182177_RuntimeObject_SByte_t1669577662_SByte_t1669577662PFvvEPK10MethodInfoPvPS4_
rJc:__ZN11b2RopeJoint24SolveVelocityConstraintsERK12b2SolverData
zSe:_MonoType_get_attributes_m1332507727
Noj:_GUIContent_ClearStaticCache_m1205116045
RYi:_List_1_System_Collections_IList_get_IsFixedSize_m203251153_gshared
rib:__Z18Transfer_BlittableI19StreamedBinaryWriteILb0EELb0EyEvRK29SerializationCommandArgumentsR31RuntimeSerializationCommandInfo
kNf:_BinaryCommon__cctor_m2978407547
WM:__GLOBAL__sub_I_Runtime_Burst_0_cpp
LOb:__Z19GetReflectionSampleRK23ReflectionProbesContextRK22ActiveReflectionProbesRK27PerObjectLightCullingOutputRK10RenderNodejP16ReflectionSample
bkc:__ZN28ReflectionProbeAnchorManager23HandleAnchorDestructionEPK15TransformAccessj
u5d:__ZL47ASN1_t2114160832_CustomAttributesCacheGeneratorP21CustomAttributesCache
$ud:__ZL65__ManagedRegistrationHelperFunction_UnityWebRequestAsyncOperationPv
kii:_IndexedSet_1__ctor_m2250384602_gshared
ZDh:_DefaultComparer__ctor_m1306123661_gshared
lYh:_UInt16_TryParse_m4139137016
orc:__Z41MonoBehaviour_Set_Custom_PropUseGUILayoutP12Il2CppObjecth
Pgk:__ZN6il2cpp5utils13dynamic_arrayIPNS_2os6ThreadELj4EE9push_backEv
W7:__ZN9Scripting11UnityEngine15ResourceRequest12CleanupProxyEv
xgk:__ZN6il2cpp2gc16GarbageCollector9FreeFixedEPv
pDg:_Encoding__ctor_m2997749867
jxf:_ManagedStreamHelpers_ManagedStreamSeek_m3158782053
vlj:_ExpressionAssertion_Compile_m2166597834
K8a:__ZN16ScriptingManagerD0Ev
Ayg:_Single_System_IConvertible_ToSByte_m1208276900_AdjustorThunk
zkk:__ZN6il2cpp6icalls8mscorlib6System7Convert24InternalFromBase64StringEP12Il2CppStringb
nFh:_EqualityComparer_1__ctor_m2241711498_gshared
Vae:__ZL58ChannelServices_t3942013484_CustomAttributesCacheGeneratorP21CustomAttributesCache
Pak:__ZN30dense_hashtable_const_iteratorINSt3__24pairIK10KeyWrapperINS1_IPKcS4_EEEiEES6_24NamespaceAndNamePairHashN14dense_hash_mapIS6_iS9_NS6_14EqualsComparerI26NamespaceAndNamePairEqualsEENS0_9allocatorIS8_EEE9SelectKeyESD_SF_EppEv
Stc:__Z44Register_UnityEngine_Component_get_transformv
voe:__ZL81Camera_t4157153871_CustomAttributesCacheGenerator_Camera_GetAllCameras_m668492922P21CustomAttributesCache
DDj:_CanvasRenderer_get_absoluteDepth_m2703237819
WWg:_TextInfo_ToLower_m2744057472
XFb:__ZN17ArchiveFileSystem12MountArchiveEPKcS1_
uLj:__ZN14dense_hash_mapI10KeyWrapperIP9FieldInfoEiN6il2cpp5utils11PointerHashIS1_EENS3_14EqualsComparerINSt3__28equal_toIS2_EEEENS9_9allocatorINS9_4pairIKS3_iEEEEE15set_deleted_keyERSF_
iHh:_EqualityComparer_1_System_Collections_IEqualityComparer_Equals_m3977314386_gshared
qAc:__Z18Transfer_BlittableI9JSONWriteLb1E8Vector4fEvRK29SerializationCommandArgumentsR31RuntimeSerializationCommandInfo
wS:__Z11RequireTypePKcS0_S0_
aTg:_CCGregorianCalendar_year_from_fixed_m463929682
Phd:__ZN2UI13CanvasManagerD0Ev
eqg:_TlsServerHello_Update_m3935081401
wpf:_Debug_get_unityLogger_m2239795986
w2h:_ReadOnlyCollection_1_System_Collections_IEnumerable_GetEnumerator_m2123446296_gshared
ujg:_MD2Managed_Initialize_m2341076836
U8h:_ReadOnlyCollection_1_System_Collections_IList_Add_m4240023232_gshared
i4a:__ZN9GfxDevice15ImmediateVertexEfff
tre:__ZL56PreLateUpdate_t3194249939_CustomAttributesCacheGeneratorP21CustomAttributesCache
LFa:__ZNK16LightmapSettings22GetTypeVirtualInternalEv
Mpa:__ZN16GraphicsSettings13AwakeFromLoadE17AwakeFromLoadMode
iQi:_Array_Sort_TisUIVertex_t4057497605_TisUIVertex_t4057497605_m4243853890_gshared
fq:__ZN6Object13AwakeFromLoadE17AwakeFromLoadMode
owb:__ZN13GfxDeviceGLES15SetStencilStateEPK18DeviceStencilStatei
x2g:__ZN28GenericInterfaceFuncInvoker3IiP22ByteU5BU5D_t4116647657iiE6InvokeEPK10MethodInfoP12Il2CppObjectS1_ii
sLg:_Buffer_BlockCopyInternal_m418318694
Euk:_cycle
hwe:__ZL138SupportedRenderingFeatures_t353898663_CustomAttributesCacheGenerator_SupportedRenderingFeatures_get_supportedLightmapBakeTypes_m1596512019P21CustomAttributesCache
pkk:__ZN6il2cpp2vm8Profiler7GCEventE13Il2CppGCEvent
Uni:__Z76RuntimeInvoker_Void_t1185182177_RuntimeObject_RuntimeFieldHandle_t1871169219PFvvEPK10MethodInfoPvPS4_
Rej:_PKCS12_Finalize_m507756088
Hd:_emscripten_glUniform1iv
U6a:__ZN13ComputeShader14SetBufferParamEjRKN9ShaderLab16FastPropertyNameE15ComputeBufferIDb
OTh:_Thread_get_ManagedThreadId_m1068113671
MLc:__ZN15b2DistanceProxy3SetEPK7b2Shapei
$0a:__ZN16MemoryFileSystemD2Ev
joi:__Z150RuntimeInvoker_Int32_t2950945753_RuntimeObject_Int32_t2950945753_Int32_t2950945753_RuntimeObject_Int32_t2950945753_Int32_t2950945753_Int32_t2950945753PFvvEPK10MethodInfoPvPS4_
tKg:_BitConverter_DoubleToInt64Bits_m3574395137
D7g:_DateTime_Parse_m3729096069
RWi:_List_1_System_Collections_IList_Add_m1540114404_gshared
x2e:_InternalEnumerator_1_System_Collections_IEnumerator_Reset_m81420524_AdjustorThunk
aqa:__ZN16GraphicsSettings27SetLightsUseLinearIntensityEb
VRc:__ZN29b2InitializeContactSolverTask7TaskJobEPS_j
GGf:_StackTraceUtility_ExtractStringFromExceptionInternal_m2686726792
lkc:__ZZN8Renderer15InitializeClassEvEN32FunctorImpl_146kCullSceneChanged4CallEPviR11MessageData
sPe:_StringReader_Read_m3322058819
nXd:_CrossAppDomainChannel_get_ChannelPriority_m3418073750
wEh:_EqualityComparer_1__ctor_m1860346363_gshared
vXf:_Selectable_StartColorTween_m3618813981
ezd:_BaseInputModule_HandlePointerExitAndEnter_m1705532066
nPd:_EventInfo__ctor_m3033129999
Ywj:__ZL24UnresolvedVirtualCall_33P12Il2CppObjectiS0_S0_PK10MethodInfo
pcc:__ZN15ApplicationInfo16GetInstallerNameEv
DZb:__Z23ConvertIntegerToTypePtrItEbPvR14SafeBinaryRead
Egh:_Delegate_CombineImpl_m3572135514
Dlc:__Z13RegisterClassI15EditorExtensionEvPKc
LUe:_NumberFormatter_IntegerToString_m1679294587
Mtg:_SHA256Managed_AddLength_m1060552216
b6h:_ReadOnlyCollection_1_System_Collections_IList_RemoveAt_m422909114_gshared
Yd:_emscripten_glStencilFunc
xwj:__ZL23UnresolvedVirtualCall_6P12Il2CppObjectiPK10MethodInfo
qxj:__ZL24UnresolvedVirtualCall_53P12Il2CppObjectPK10MethodInfo
r4b:__ZN9ShaderLab20SerializedSubProgram14AddMatrixParamEPKcii15ShaderParamTypei
de:_glGetActiveUniformBlockName
WHe:__ZL90PointerEventData_t3807901092_CustomAttributesCacheGenerator_U3CpointerIdU3Ek__BackingFieldP21CustomAttributesCache
Qli:__Z67RuntimeInvoker_Int32_t2950945753_RuntimeObject_Int32U26_t1369213839PFvvEPK10MethodInfoPvPS4_
Qlj:_Parser_IsIgnoreCase_m2210120858
XPj:__ZN6il2cpp2vm13MetadataCache28GetGenericContainerFromIndexEi
BVa:__ZN27UnloadUnusedAssetsOperationD0Ev
Nz:__ZN4FMOD7Channel20set3DConeOrientationEP11FMOD_VECTOR
un:FUNCTION_TABLE_iiifii
lYe:_AssemblyBuilder_not_supported_m1735277432
Laf:_InternalEnumerator_1_MoveNext_m1344185775_AdjustorThunk
pek:__ZN6il2cpp2vm12GenericClass11SetupEventsEP11Il2CppClass
X3c:_ft_open_face_internal
Dbd:_tt_cmap12_get_info
Z9j:__ZN6il2cpp2vm15ReboxIReferenceEP14Il2CppIUnknownP11Il2CppClass
u0h:_Collection_1_Contains_m1707523067_gshared
ZLh:_Enumerator__ctor_m2029608698_AdjustorThunk
cFj:__ZN6il2cpp6icalls8mscorlib6System7Decimal14decimalCompareEP19il2cpp_decimal_reprS5_
$of:_Dictionary_2_OnDeserialization_m4209543208_gshared
Zkk:__ZThn4_N6il2cpp2vm13CachedCCWBaseINS0_13ManagedObjectEE7ReleaseEv
tsg:_RNGCryptoServiceProvider_GetNonZeroBytes_m1918423726
zxi:__Z100RuntimeInvoker_Void_t1185182177_RuntimeObject_Int32_t2950945753_Int32_t2950945753_UInt16_t2177724958PFvvEPK10MethodInfoPvPS4_
xFk:_glCopyTexImage2D__wrapper
WZc:__ZN16PhysicsManager2D11CreateWorldERK8Vector2f
zge:__ZL62ArithmeticException_t4283546778_CustomAttributesCacheGeneratorP21CustomAttributesCache
otb:__Z18ClearByDrawingQuad13GfxClearFlagsRK10ColorRGBAffjR17ShaderPassContext
t2:__ZN6prcoreL17RemapGenericFloatI14TexFormatRHalf15TexFormatRFloatEEvPKNS_9InnerInfoE
q7c:_cf2_getBlueValues
Cri:__Z155RuntimeInvoker_Void_t1185182177_RuntimeObject_SByte_t1669577662_SByte_t1669577662_Int64U26_t200113976_ObjectU26_t2146539884_SerializationInfoU26_t419328957PFvvEPK10MethodInfoPvPS4_
a$:__ZN15DirectorManager21RebuildStageCallbacksEv
Gtb:__ZN19RuntimeSceneManager9LoadSceneERKN4core12basic_stringIcNS0_20StringStorageDefaultIcEEEES6_S6_RK9UnityGUIDiNS_11LoadingModeE
ypf:_Application_Internal_ApplicationQuit_m2936209313
Yyb:__ZN7ApiGLES10DrawArraysE16GfxPrimitiveTypejjj
LC:__ZN10SampleClip13LoadBaseSoundEv
cGg:_SmallXmlParser_SkipWhitespaces_m4243606597
WTg:_CompareInfo_IndexOf_m2631915198
xRc:__ZN43b2SolveVelocityConstraintsContactSolverTaskD0Ev
ucb:__ZN14SafeBinaryRead21TransferSTLStyleArrayI13dynamic_arrayI10Matrix4x4fLj0EEEEvRT_17TransferMetaFlags
w_d:_MethodCall__ctor_m3669645
xAd:_TriggerEvent__ctor_m87299207
Qvi:__Z48RuntimeInvoker_ExchangeAlgorithmType_t1320888206PFvvEPK10MethodInfoPvPS4_
fyd:__ZN9Scripting11UnityEngine12Experimental27Internal_SubsystemInstances12CleanupProxyEv
yF:__Z57AudioSource_CUSTOM_INTERNAL_CALL_ClearExtensionPropertiesP12Il2CppObjectRK12PropertyName
iek:__ZN15dense_hashtableINSt3__24pairIK10KeyWrapperIP12Il2CppObjectEN6il2cpp2gc9CachedCCWEEES5_NS7_5utils11PointerHashIS3_EEN14dense_hash_mapIS5_S9_SD_NS5_14EqualsComparerINS0_8equal_toIS4_EEEENS0_9allocatorISA_EEE9SelectKeyESI_SK_E15insert_noresizeERKSA_
Jlg:_CertificateValidationCallback2__ctor_m1685875113
xEh:_EqualityComparer_1__cctor_m3962593840_gshared
hya:__ZN22DeviceMVPMatricesStateC2ER9GfxDevice
$rg:_SslClientStream_Finalize_m1251363641
qKb:__ZNK6Camera32ResolveLastTargetToCurrentTargetEv
Xwf:_Logger_set_logEnabled_m1180597166
oQg:_Comparer_Compare_m3984347512
f0j:__ZN6il2cpp2vm10Reflection12HasAttributeEP9FieldInfoP11Il2CppClass
X9:__ZN9Scripting11UnityEngine12Experimental9Rendering11CullResults9InitProxyEv
jc:invoke_viiifi
bfc:__Z13RegisterClassI6SpriteEvPKc
NSd:_MonoProperty_GetCustomAttributes_m3619796755
iUj:__ZNSt3__214__split_bufferIP11Il2CppClassRNS_9allocatorIS2_EEEC2EjjS5_
B$d:_MethodDictionary_System_Collections_IEnumerable_GetEnumerator_m4169036899
hGg:__ZN23InterfaceActionInvoker2IP8String_tP12Il2CppObjectE6InvokeEjP11Il2CppClassS3_S1_S3_
CVh:_TimeSpan_Subtract_m1264203589
$Wd:_CrossContextChannel__ctor_m3755842292
DCh:_DefaultComparer_Equals_m3257444875_gshared
nf:_JS_Sound_SetPosition
nta:__ZN19RenderBufferManager13GetTempBufferEii17DepthBufferFormat19RenderTextureFormatj22RenderTextureReadWrite14VRTextureUsagei23RenderTextureMemoryless
IPj:__ZL13GetSharedInstPK17Il2CppGenericInst
yIe:__ZL98PointerEventData_t3807901092_CustomAttributesCacheGenerator_PointerEventData_get_delta_m1062010255P21CustomAttributesCache
Ooa:__Z27ConvertSubMeshesToTrianglesIjEvR13dynamic_arrayI7SubMeshLj0EERS0_IhLj0EE
Zpd:__ZN22BaseUnityConnectClient17SaveSessionValuesEv
Z3e:_InternalEnumerator_1_get_Current_m476140818_gshared
uYi:_List_1_Sort_m4240158523_gshared
TJf:_WaitForEndOfFrame__ctor_m1381314187
PQb:__Z24SetupActiveLightsContextR21ActiveLightingContextRK12ActiveLightsRK11CullResultsP14ShadowMapCacheRK10MinMaxAABB
oEd:_AnimationTriggers_set_disabledTrigger_m933056574
$7b:__Z38Sprite_CUSTOM_INTERNAL_get_textureRectP12Il2CppObjectP5RectTIfE
T_j:__ZNK15dense_hashtableINSt3__24pairIK10KeyWrapperIPK22Il2CppGenericParameterEPK24MonoGenericParameterInfoEES6_N6il2cpp5utils11PointerHashIS4_EEN14dense_hash_mapIS6_SA_SF_NS6_14EqualsComparerINS0_8equal_toIS5_EEEENS0_9allocatorISB_EEE9SelectKeyESK_SM_E3endEv
jVi:_List_1_Add_m238442097_gshared
uac:__ZN9TextAsset7SetTextERKN4core12basic_stringIcNS0_20StringStorageDefaultIcEEEE
yja:__ZN6Camera8TransferI24GenerateTypeTreeTransferEEvRT_
FAj:__ZL25UnresolvedVirtualCall_230P12Il2CppObjectPK10MethodInfo
vTc:__ZN13SliderJoint2D13AwakeFromLoadE17AwakeFromLoadMode
Ia:invoke_iiiiiiif
Fa:invoke_iiiiiiii
sNi:_Array_InternalArray__set_Item_TisByte_t1134296376_m3104140039_gshared
Jrc:__Z56Register_UnityEngine_MonoBehaviour_IsObjectMonoBehaviourv
XDf:_Rect_ToString_m447614148
cfj:_PKCS12_GetBytes_m415958948
Vng:_Context_get_HandshakeState_m2425796590
DIb:__ZN8Renderer17PendingAddToSceneEv
q0h:_Collection_1_System_Collections_IList_set_Item_m2625856224_gshared
rJk:b122
uJk:b125
tJk:b124
wJk:b127
vJk:b126
DJk:b129
W8b:__Z52Register_UnityEngine_RectTransform_INTERNAL_get_rectv
wyf:_Mesh_SetSizedArrayForChannel_m2565120436
gS:__Z21PostprocessStacktracePKcRN4core12basic_stringIcNS1_20StringStorageDefaultIcEEEE
cEe:__ZL73ContactFilter2D_t3805203441_CustomAttributesCacheGenerator_minNormalAngleP21CustomAttributesCache
kxf:_ManagedStreamHelpers_ManagedStreamLength_m2930872960
G8b:__Z43RectTransform_CUSTOM_INTERNAL_get_anchorMinP12Il2CppObjectP13Vector2fIcall
Odj:_BasicConstraintsExtension_Encode_m2009213240
Hbc:__Z47Register_UnityEngine_Camera_get_allCamerasCountv
QFd:___clang_call_terminate
Zt:__ZN16MecanimAnimation25RegisterIAnimationBindingEPKN5Unity4TypeEiP17IAnimationBinding
poc:__ZNSt3__26vectorIj13stl_allocatorIjL18MemLabelIdentifier1ELi16EEE6assignIPKtEENS_9enable_ifIXaasr21__is_forward_iteratorIT_EE5valuesr16is_constructibleIjNS_15iterator_traitsIS9_E9referenceEEE5valueEvE4typeES9_S9_
MBb:__ZL25ProgramUniformMatrix4x3fvPK7ApiGLESjiihPKv
WYb:__Z29StdTemplateConversionFunctionIsiEbPvR14SafeBinaryRead
PHb:__ZN12InputManager13InputEndFrameEv
vTj:__ZNSt3__26__treeIP11Il2CppClassNS_4lessIS2_EENS_9allocatorIS2_EEE25__emplace_unique_key_argsIS2_JRKS2_EEENS_4pairINS_15__tree_iteratorIS2_PNS_11__tree_nodeIS2_PvEEiEEbEERKT_DpOT0_
Lyf:_Object_get_name_m4211327027
F3j:__ZN6il2cpp2vm6Thread5SetupEP12Il2CppThread
xhk:__ZNSt3__26vectorIN6il2cpp2os10ThreadImpl10APCRequestENS_9allocatorIS4_EEE21__push_back_slow_pathIS4_EEvOT_
N3h:_ReadOnlyCollection_1_System_Collections_IList_get_IsReadOnly_m1248651675_gshared
qhf:_Enumerator_System_Collections_IDictionaryEnumerator_get_Key_m2500634048_gshared
JWg:_SortKey_Compare_m1705990888
rHj:_NativeNameAttribute__ctor_m3296876808
QBj:_TextGenerator_t3211863866_marshal_pinvoke_back
Gvk:___munmap
eg:_localtime_r
cJb:__ZN22RenderingCommandBuffer13GetAndCheckRTE24BuiltinRenderTextureTypeRKN9ShaderLab16FastPropertyNameEPKcPP13RenderTexture
YVd:_InterfaceTypeAttribute__ctor_m3307583035
V6e:_InternalEnumerator_1_System_Collections_IEnumerator_Reset_m3619766341_AdjustorThunk
MN:__Z19free_alloc_internalPv10MemLabelId
Mbe:__ZL56ReturnMessage_t1376985608_CustomAttributesCacheGeneratorP21CustomAttributesCache
At:__ZN9Scripting11UnityEngine10Animations18PositionConstraint9InitProxyEv
hg:_strftime
Eta:__ZN7Texture33SetStoredColorSpaceNoDirtyNoApplyE17TextureColorSpace
SUd:_ResourceSet__ctor_m3618395942
nfh:_Decimal_System_IConvertible_ToDouble_m3125524987_AdjustorThunk
VW:__ZN12FileAccessorD2Ev
Bja:__ZN10ColorRGBAf8TransferI18StreamedBinaryReadILb0EEEEvRT_
bpa:__ZN14VertexDataInfoC2Ev
hgk:__ZN6il2cpp2gc16GarbageCollector14CollectALittleEv
Hwe:__ZL87Sprite_t280657092_CustomAttributesCacheGenerator_Sprite_INTERNAL_get_border_m3728071101P21CustomAttributesCache
enc:__ZNK9HPlayable15GetPlayableTypeEv
eJi:__Z117RuntimeInvoker_Void_t1185182177_CustomAttributeTypedArgumentU5BU5DU26_t2503877664_Int32_t2950945753_Int32_t2950945753PFvvEPK10MethodInfoPvPS4_
Ekb:__ZL17Transfer_GUIStyleI18StreamedBinaryReadILb1EELb1EEvRK29SerializationCommandArgumentsR31RuntimeSerializationCommandInfo
M$f:_RectMask2D_IsRaycastLocationValid_m1652308696
jQ:__ZNSt3__26__treeINS_12__value_typeIPKciEENS_19__map_value_compareIS3_S4_15compare_tstringIS3_ELb1EEENS_9allocatorIS4_EEE21__emplace_unique_implIJNS_4pairIPciEEEEENSD_INS_15__tree_iteratorIS4_PNS_11__tree_nodeIS4_PvEEiEEbEEDpOT_
QTj:__ZN6il2cpp6icalls8mscorlib6SystemL9IsPrivateEPK12PropertyInfo
lfj:_X501_ToString_m1148552872
MEf:_RectTransform_add_reapplyDrivenProperties_m1374850920
uR:__ZN9shadertag10InitializeEv
JFi:__Z69RuntimeInvoker_Void_t1185182177_Int32_t2950945753_Color32_t2600501292PFvvEPK10MethodInfoPvPS4_
I0c:__GLOBAL__sub_I_Modules_Terrain_Public_1_cpp
RDa:__ZN15QualitySettings14QualitySetting8TransferI24GenerateTypeTreeTransferEEvRT_
ark:__ZN6il2cpp5utils6Memory11AlignedFreeEPv
oAj:__ZL25UnresolvedVirtualCall_213P12Il2CppObjectS0_aPK10MethodInfo
Bmg:_Context_get_ClientWriteKey_m3174706656
yHe:__ZL77ExecuteEvents_t3484638744_CustomAttributesCacheGenerator_U3CU3Ef__mgU24cache7P21CustomAttributesCache
cVf:_InputField_get_textComponent_m948764648
Dtc:__Z44Register_UnityEngine_Object_DestroyImmediatev
kHc:__ZL34CleanupModule_PerformanceReportingv
Uah:_Convert_ToSingle_m835189399
Q5b:__ZN22BlockMemoryCacheWriter14LockCacheBlockEjPPhS1_
twc:__ZNSt3__218__insertion_sort_3IRPFbPKN5IMGUI9GUIWindowES4_EPPS2_EEvT0_SA_T_
qhd:__ZN9Scripting11UnityEngine8Tilemaps8TileData12CleanupProxyEv
vRf:_CryptographicUnexpectedOperationException__ctor_m69881930
fee:__ZL73TripleDESCryptoServiceProvider_t3595206342_CustomAttributesCacheGeneratorP21CustomAttributesCache
B4i:_Collection_1_SetItem_m1218178236_gshared
f_h:_UInt64_ToString_m2177233542
Ws:__ZN9Scripting11UnityEngine21StateMachineBehaviour9InitProxyEv
bEc:__Z22TransferField_NonArrayI8JSONRead27Converter_SimpleNativeClassI8GUIStyleEEvRK23StaticTransferFieldInfoR31RuntimeSerializationCommandInfoRT0_
Faa:__ZN9Scripting11UnityEngine26ExcludeFromPresetAttribute9InitProxyEv
Og:_llvm_eh_typeid_for
MQg:_CollectionBase_OnClear_m883003723
kMf:_RemotingServices_FindInterfaceMethod_m2125212568
C4g:_StreamWriter__cctor_m1229272693
rih:_Enum_System_IConvertible_ToSByte_m779472798
hWh:_Type_get_IsInterface_m3284996719
S3e:_InternalEnumerator_1_MoveNext_m1543390728_gshared
Vmb:__Z18Transfer_BlittableI18StreamedBinaryReadILb0EELb1E8Vector4fEvRK29SerializationCommandArgumentsR31RuntimeSerializationCommandInfo
jbb:__ZNSt3__26vectorI17ScriptingFieldPtr13stl_allocatorIS1_L18MemLabelIdentifier1ELi16EEE21__push_back_slow_pathIRKS1_EEvOT_
KWg:_SortKey_get_OriginalString_m1428586816
NFi:__Z51RuntimeInvoker_Void_t1185182177_Vector4_t3319028937PFvvEPK10MethodInfoPvPS4_
$1c:__ZN14SafeBinaryRead21TransferSTLStyleArrayI13dynamic_arrayIN4core17string_with_labelILi35EEELj0EEEEvRT_17TransferMetaFlags
Zyj:__ZL25UnresolvedVirtualCall_142P12Il2CppObject17Color_t2555686324faaaPK10MethodInfo
Yni:__Z67RuntimeInvoker_Void_t1185182177_SByte_t1669577662_SByte_t1669577662PFvvEPK10MethodInfoPvPS4_
oCh:_Dictionary_2_U3CCopyToU3Em__0_m2023886030_gshared
bGi:__Z64RuntimeInvoker_Boolean_t97287965_RefEmitPermissionSet_t484390987PFvvEPK10MethodInfoPvPS4_
WHk:_glBindVertexArray__wrapper
fOf:_SerializationInfo__ctor_m2923079689
zwa:__ZN8Material8TransferI14SafeBinaryReadEEvRT_
LAa:__ZN12CubemapArray17UploadToGfxDeviceEv
oci:_Func_2__ctor_m1150804732_gshared
MYg:_Int32_JumpOverWhite_m208298144
NSc:__ZN12WheelJoint2D23VirtualRedirectTransferER18StreamedBinaryReadILb0EE
zLj:__ZN15dense_hashtableINSt3__24pairIK10KeyWrapperIP9FieldInfoEiEES5_N6il2cpp5utils11PointerHashIS3_EEN14dense_hash_mapIS5_iSB_NS5_14EqualsComparerINS0_8equal_toIS4_EEEENS0_9allocatorIS7_EEE9SelectKeyESG_SI_E4swapERSL_
EHi:__Z53RuntimeInvoker_Int32_t2950945753_UIVertex_t4057497605PFvvEPK10MethodInfoPvPS4_
WGk:_emscripten_glGetUniformiv__wrapper
Skk:__ZN6il2cpp2vm13ManagedObject14QueryInterfaceERK10Il2CppGuidPPv
uA:__ZN11AudioSource4StopEb
luk:_frexp
_Gg:_AppDomain_LoadAssembly_m1557889794
Apk:__ZN6il2cpp2os14WindowsRuntime13DeleteHStringEP15Il2CppHString__
k8a:__ZN18GlslGpuProgramGLESD2Ev
dXb:__ZN13RenderTexture14SetVolumeDepthEi
pPd:_EventInfo_get_EventHandlerType_m420690865
Rwi:__Z86RuntimeInvoker_Void_t1185182177_UInt16_t2177724958_SByte_t1669577662_SByte_t1669577662PFvvEPK10MethodInfoPvPS4_
e4b:__Z22LoadGpuProgramFromDataPKhS0_Rj
HEc:__ZN10Matrix4x4f8TransferI8JSONReadEEvRT_
v$f:_PositionAsUV1_ModifyMesh_m4231919476
qRg:_Hashtable__ctor_m1941859523
hOb:__Z26FindForwardLightsForObjectR13dynamic_arrayIhLj0EEPK11CulledLightjRK12ActiveLightsRK10RenderNodePK19ShaderPropertySheetbRK23FindForwardLightsParamsf
H6:__ZL44__ManagedRegistrationHelperFunction_GPUFencePv
r2f:_ScrollRect_set_horizontalScrollbarSpacing_m2209919081
_Cb:__ZN25TransformFeedbackSkinning31CleanupTransformFeedbackShadersEv
FWh:_Type_GetTypeCodeInternal_m1968182887
fka:__Z22scripting_object_unbox18ScriptingObjectPtr
uVd:_CriticalFinalizerObject__ctor_m3245424448
l_d:_AsyncResult_get_NextSink_m1844209137
e3c:__ZNK20TextRenderingPrivate8FontImpl19GetCharacterAdvanceEjijfPj
Fqh:_Array_InternalArray__ICollection_Add_TisUriScheme_t722425697_m3142345403_gshared
fuk:_fmt_u
XQi:_Dictionary_2_Do_CopyTo_TisDictionaryEntry_t3123975638_TisDictionaryEntry_t3123975638_m1126292988_gshared
THa:__ZN10VertexData8TransferI18StreamedBinaryReadILb0EEEEvRT_
htk:__ZN6il2cpp8metadata25Il2CppGenericClassCompare7CompareEPK18Il2CppGenericClassS4_
Uld:__ZN2UI29ResetVRScreenSpaceWarningFlagEv
fTe:_MonoType_get_Assembly_m4290914179
P4b:__ZN9ShaderLab7ProgramC2E10MemLabelIdi10ShaderType
oXb:__ZN14PreloadManager16UpdatePreloadingEv
gia:__ZN12BaseRendererD2Ev
tac:__ZNSt3__26vectorI4PPtrI10MonoScriptE13stl_allocatorIS3_L18MemLabelIdentifier79ELi16EEE6insertENS_11__wrap_iterIPKS3_EERS9_
Ned:_ps_hinter_done
BAg:_String_LastIndexOf_m95398196
oOi:_Array_InternalArray__set_Item_TisUILineInfo_t4195266810_m2313892078_gshared
vdi:__ZN28GenericInterfaceFuncInvoker1Ib40CustomAttributeTypedArgument_t2723150157E6InvokeEPK10MethodInfoP12Il2CppObjectS0_
jBf:_PlayableAsset__ctor_m2395156306
YIe:__ZL79StandaloneInputModule_t2760469101_CustomAttributesCacheGenerator_m_SubmitButtonP21CustomAttributesCache
YP:__ZN13RuntimeStaticI13dynamic_arrayI22RenderingExtPluginDescLj0EELb0EE13StaticDestroyEPv
A_b:__ZNK21UnityDefaultAllocatorI17LowLevelAllocatorE8ContainsEPKv
fSj:__ZNSt3__213__vector_baseI6pollfdNS_9allocatorIS1_EEED2Ev
TPf:_RuntimeTypeHandle_Equals_m2857439487
Yh:_emscripten_get_main_loop_timing
nWd:_SafeHandle_Finalize_m3866180675
QDa:__ZN24GenerateTypeTreeTransfer21TransferSTLStyleArrayINSt3__26vectorIN15QualitySettings14QualitySettingENS1_9allocatorIS4_EEEEEEvRT_17TransferMetaFlags
j3g:_MemoryStream_ToArray_m3911744835
Rgf:_Enumerator_System_Collections_IDictionaryEnumerator_get_Entry_m859540448_AdjustorThunk
nEi:__Z72RuntimeInvoker_Boolean_t97287965_RaycastHitU26_t2429360258_RuntimeObjectPFvvEPK10MethodInfoPvPS4_
rWb:__ZN23ManagedAttributeManager52CallManagedGetParentTypeDisallowingMultipleInclusionE17ScriptingClassPtr
UOa:__Z10AddGUIAxesR13dynamic_arrayI9InputAxisLj0EE
Vsk:__ZN6il2cpp2os5Event4WaitEjb
MWh:_Type_GetHashCode_m1947148725
_ri:__Z91RuntimeInvoker_Void_t1185182177_RuntimeObject_RuntimeObject_RuntimeObject_SByte_t1669577662PFvvEPK10MethodInfoPvPS4_
XWa:__ZNK2UI13RectTransform22GetTypeVirtualInternalEv
elf:__ZN28GenericInterfaceFuncInvoker2IP12Il2CppObjectS1_bE6InvokeEPK10MethodInfoS1_S1_b
np:getTempRet0
dxg:_StrongName_get_Version_m4243032012
i7e:_InternalEnumerator_1_MoveNext_m2234422530_gshared
pVj:__ZN6il2cpp2gc19AppendOnlyGCHashMapINSt3__24pairIPK14Il2CppAssemblyP11Il2CppClassEEP24Il2CppReflectionAssembly17ReflectionMapHashIS9_ENS2_8equal_toIS9_EEE10CopyValuesEPv
yzd:_BaseRaycaster_OnEnable_m2678466030
Kuf:_UnityEventBase__ctor_m1851535676
tQi:_Array_Sort_TisVector4_t3319028937_m2797285308_gshared
spg:_HandshakeMessage_Update_m2417837686
pse:__ZL58ProfilerEndFrame_t852348665_CustomAttributesCacheGeneratorP21CustomAttributesCache
B6j:__ZN6il2cpp6icalls8mscorlib6System9ThreadingL21lookup_cached_cultureEP12Il2CppThreadi
fuf:_NetFxCoreExtensions_CreateDelegate_m751211712
MRb:__ZN18DeferredRenderLoopD2Ev
fEj:_AnimationLayerMixerPlayable__cctor_m4086299972
eda:__ZNK16TypeTreeIterator4NameEv
MQi:_Array_swap_TisUICharInfo_t75501106_m3934244159_gshared
C2d:__ZL40UIntPtr_t_CustomAttributesCacheGeneratorP21CustomAttributesCache
tW:__ZN15FileSystemEntry3SetEPKc
IYe:_ConstructorBuilder_Invoke_m3010446651
qEd:_AspectRatioFitter_get_aspectMode_m3735191157
$8f:_IPv6Address_set_ScopeId_m3907190992
T2h:_ReadOnlyCollection_1_System_Collections_Generic_IListU3CTU3E_Insert_m568455025_gshared
uz:__ZN20SoundChannelInstance15ParameterBuffer5ApplyEPN4FMOD7ChannelE
P8f:_IPv6Address__ctor_m4117281080
oah:_Convert_ToInt64_m2075293963
b3c:__ZN20TextRenderingPrivate19NativeTextGenerator9InsertTabEv
wyk:_sbrk
O7b:__ZNSt3__214__split_bufferIN19SpriteMeshGenerator4pathERNS_9allocatorIS2_EEED2Ev
K6i:_Collection_1_System_Collections_Generic_ICollectionU3CTU3E_get_IsReadOnly_m1032650589_gshared
zx:__ZL49__ManagedRegistrationHelperFunction_AudioSettingsPv
xrd:__ZN11UnityEngine15PlatformWrapper24GetRuntimePlatformStringEv
Ii:_glIsEnabled
lWa:__ZN15CacheWriterBaseD2Ev
qYe:_DerivedType__ctor_m1853298054
gbb:__Z25scripting_class_get_image17ScriptingClassPtr
Bxg:_SecurityException__ctor_m836898292
vPh:_List_1_RemoveAt_m2730968292_gshared
CRa:__ZNSt3__26vectorIN4core12basic_stringIcNS1_20StringStorageDefaultIcEEEE13stl_allocatorIS5_L18MemLabelIdentifier13ELi16EEEC2INS_11__wrap_iterIPS5_EEEET_SE_RKS8_PNS_9enable_ifIXaasr21__is_forward_iteratorISE_EE5valuesr16is_constructibleIS5_NS_15iterator_traitsISE_E9referenceEEE5valueEvE4typeE
Mi:_emscripten_glDrawElementsInstanced
Fmh:_Array_InternalArray__IEnumerable_GetEnumerator_TisSlot_t3975888750_m1869932007_gshared
noe:__ZL79Camera_t4157153871_CustomAttributesCacheGenerator_Camera_RaycastTry_m3913529496P21CustomAttributesCache
JYf:_LayoutGroup_get_preferredWidth_m3816902260
Nsa:__ZN18JobBatchDispatcherD2Ev
SWa:__ZN9Transform17MainThreadCleanupEv
Fnk:_GC_clear_hdr_marks
RIk:_emscripten_glCreateShader__wrapper
I5c:_cff_fd_select_get
z5f:_Text_set_resizeTextForBestFit_m4095249125
Yag:_OidEnumerator_MoveNext_m3138911739
nGi:__Z53RuntimeInvoker_Boolean_t97287965_Keyframe_t4206410242PFvvEPK10MethodInfoPvPS4_
Xi:_emscripten_glGetShaderiv
NA:__ZN4FMOD6System10getVersionEPj
sid:__ZN2UI6Canvas23VirtualRedirectTransferER24GenerateTypeTreeTransfer
I3f:_Selectable_set_animationTriggers_m2970345687
O9i:_Collection_1_CopyTo_m4271769704_gshared
jCc:__ZN9JSONWrite8TransferIN4math12int2_storageEEEvRT_PKc17TransferMetaFlags
N1c:__ZN13TextRendering4Font13AwakeFromLoadE17AwakeFromLoadMode
aUg:_CompareInfo_LastIndexOf_m2688553706
fih:_Enum__ctor_m3602080049
e3a:__ZN9GfxDevice21ReleaseSharedMeshDataEP14SharedMeshData
oCd:_MouseState__ctor_m1467839005
Gmj:_Uri_IsDomainAddress_m2867513594
DQa:__ZNSt3__27__sort5IRNS_6__lessINS_4pairIPKN5Unity4TypeE7Hash128EES8_EEPS8_EEjT0_SC_SC_SC_SC_T_
_ge:__ZL79Convert_t2465617642_CustomAttributesCacheGenerator_Convert_ToDouble_m2949593046P21CustomAttributesCache
oJd:_Dropdown_CreateItem_m2954407740
Mmk:_GC_unreachable_finalize_mark_proc
UBf:_PlayerConnectionInternal_PollInternal_m3759016321
tcg:_X509Chain_ProcessCrlExtensions_m236234529
iok:_maybe_finalize
kKj:__ZN6il2cpp2vm5Class40GetInterfaceInvokeDataFromVTableSlowPathEPK12Il2CppObjectPK11Il2CppClassj
AMe:__ZL85ScrollRect_t4137855814_CustomAttributesCacheGenerator_m_HorizontalScrollbarVisibilityP21CustomAttributesCache
J8b:__Z43RectTransform_CUSTOM_INTERNAL_get_anchorMaxP12Il2CppObjectP13Vector2fIcall
kCj:_TextGenerator_INTERNAL_CALL_Populate_Internal_cpp_m4171649399
wLf:_RealProxy_get_ObjectIdentity_m2790771985
TLf:_RemotingConfiguration_RegisterChannelTemplate_m3105688054
H8g:_Decimal_Parse_m942471224
Mma:__ZN8Material28UpdateHashesOnPropertyChangeEN9ShaderLab16FastPropertyNameE
C5i:_Collection_1_System_Collections_IList_get_Item_m1368877441_gshared
Ngg:_Locale_GetText_m3520169047
sbc:__Z53Register_UnityEngine_SortingLayer_GetLayerValueFromIDv
Fig:_ASN1_GetBytes_m1968380955
Ose:__ZL85RectOffset_t1369453676_CustomAttributesCacheGenerator_RectOffset_set_right_m807318764P21CustomAttributesCache
$9a:__Z18Transfer_BlittableI14SafeBinaryReadLb1E8Vector4fEvRK29SerializationCommandArgumentsR31RuntimeSerializationCommandInfo
gxd:__ZN13RuntimeStaticINSt3__26vectorI23UnityVRDeviceDefinition13stl_allocatorIS2_L18MemLabelIdentifier90ELi16EEEELb0EE13StaticDestroyEPv
pai:_ReadOnlyCollection_1_get_Count_m3746330764_gshared
Uak:__ZN6il2cpp2vm5Image13ClassFromNameEPK11Il2CppImagePKcS6_
azk:dynCall_vdddddd
m2b:__ZN24GenerateTypeTreeTransfer21TransferSTLStyleArrayINSt3__26vectorIN9ShaderLab14SerializedPassENS1_9allocatorIS4_EEEEEEvRT_17TransferMetaFlags
WR:__ZL32MarkLevelGameManagerDependenciesR27GarbageCollectorThreadState
eyb:__ZNK13GfxDeviceGLES26HasActiveRandomWriteTargetEv
yyj:__ZL25UnresolvedVirtualCall_115P12Il2CppObjectsaaaPK10MethodInfo
x4d:__ZL54_MemberInfo_t3922476713_CustomAttributesCacheGeneratorP21CustomAttributesCache
LDk:_glGetActiveUniformsiv__wrapper
Nwa:__ZN14SafeBinaryRead8TransferINSt3__24pairIN9ShaderLab16FastPropertyNameE10ColorRGBAfEEEEvRT_PKc17TransferMetaFlags
Qyf:_Mesh_GetIndices_m2873123901
pU:__ZN13MonoBehaviour19SetupScriptingCacheE17ScriptingClassPtrP10MonoScript
ySj:__ZNSt3__214__split_bufferIP12Il2CppThreadRNS_9allocatorIS2_EEED2Ev
O3h:_ReadOnlyCollection_1_System_Collections_IList_get_Item_m1900827001_gshared
kkc:__ZZN8Renderer15InitializeClassEvEN28FunctorImpl_145kLayerChanged4CallEPviR11MessageData
AHd:_FloatTween_set_targetValue_m3604919944_AdjustorThunk
NNg:_ArrayList_get_IsReadOnly_m913775115
cCd:_PointerEventData_get_dragging_m746831934
wWh:_Type_get_TypeHandle_m160082026
T8h:_ReadOnlyCollection_1_System_Collections_IEnumerable_GetEnumerator_m2781605075_gshared
Q9:__ZN9Scripting11UnityEngine12Experimental9Rendering15ShadowSplitData12CleanupProxyEv
M_:__ZZN15DirectorManager15InitializeClassEvEN52PreLateUpdateDirectorUpdateAnimationBeginRegistrator7ForwardEv
pjh:_Array_get_swapper_TisCustomAttributeNamedArgument_t287865710_m4254011335_gshared
tLd:_Graphic_RegisterDirtyMaterialCallback_m106898453
Soj:_GUILayoutEntry_get_margin_m3174861737
Iea:__ZN4PPtrI6SpriteE8TransferI14SafeBinaryReadEEvRT_
OEh:_EqualityComparer_1_System_Collections_IEqualityComparer_Equals_m1672604045_gshared
L4i:_Collection_1_System_Collections_IList_Add_m2739652888_gshared
L4j:__ZN15dense_hashtableINSt3__24pairIK10KeyWrapperIP11Il2CppClassES4_EES5_N6il2cpp8metadata16SZArrayClassHashEN14dense_hash_mapIS5_S4_SA_NS5_14EqualsComparerINS9_19SZArrayClassCompareEEENS0_9allocatorIS7_EEE9SelectKeyESE_SG_E16reset_thresholdsEv
c_i:_List_1_GetEnumerator_m2095602005_gshared
D1b:__ZNSt3__26vectorIN9ShaderLab14SerializedPassENS_9allocatorIS2_EEE8__appendEj
S0b:__ZNSt3__26vectorIN9ShaderLab20SerializedSubProgram13BufferBindingENS_9allocatorIS3_EEEC2INS_11__wrap_iterIPS3_EEEET_SB_RKS5_PNS_9enable_ifIXaasr21__is_forward_iteratorISB_EE5valuesr16is_constructibleIS3_NS_15iterator_traitsISB_E9referenceEEE5valueEvE4typeE
RLi:__Z37RuntimeInvoker_Enumerator_t3436819725PFvvEPK10MethodInfoPvPS4_
IBf:_PlayableOutputHandle_op_Equality_m388301694
tBg:_Encoding_get_ISOLatin1_m2107621369
jLc:__ZNK16PhysicsManager2D21GetAutoSyncTransformsEv
Uhg:_BigInteger_op_Inequality_m2697143438
Ape:__ZL89Mathf_t3464937446_CustomAttributesCacheGenerator_Mathf_SmoothDamp_m394423605____maxSpeed4P21CustomAttributesCache
UJc:__ZN12b2WheelJoint24SolveVelocityConstraintsERK12b2SolverData
w2d:__ZL72IntPtr_t_CustomAttributesCacheGenerator_IntPtr_op_Inequality_m3063970704P21CustomAttributesCache
trb:__ZNK25PathNamePersistentManager30PathIDToFileIdentifierInternalEi
WCa:__ZN9Texture2D23VirtualRedirectTransferER18StreamedBinaryReadILb0EE
YVc:__ZN10Collider2D8TransferI24GenerateTypeTreeTransferEEvRT_
Hch:_DateTime_System_IConvertible_ToDouble_m2116720007_AdjustorThunk
dQg:_BitArrayEnumerator__ctor_m2359341397
$Kh:_Enumerator_MoveNext_m1177880931_gshared
xdf:_DefaultComparer__ctor_m3288720761_gshared
UGi:__Z102RuntimeInvoker_Int32_t2950945753_RuntimeObject_Vector2_t2156229523_Int32_t2950945753_Int32_t2950945753PFvvEPK10MethodInfoPvPS4_
kLj:__ZN30dense_hashtable_const_iteratorINSt3__24pairIK10KeyWrapperIPKcEP11Il2CppClassEES5_N6il2cpp5utils11StringUtils12StringHasherIS4_EEN14dense_hash_mapIS5_S8_SE_NS5_14EqualsComparerINSB_13VmStringUtils21CaseSensitiveComparerEEENS0_9allocatorIS9_EEE9SelectKeyESJ_SL_E30advance_past_empty_and_deletedEv
gze:__ZL73g_UnityEngine_TextRenderingModule_Assembly_CustomAttributesCacheGeneratorP21CustomAttributesCache
WU:__ZN16ScriptingManager27NativeTypeForScriptingClassE17ScriptingClassPtr
vZh:_UInt64_System_IConvertible_ToDateTime_m3434604642
rWh:_Type_get_IsSerializable_m1040556850
pad:_get_sfnt_table
pPi:_Array_Resize_TisUIVertex_t4057497605_m1219201596_gshared
x7d:__ZL55StreamWriter_t1266378904_CustomAttributesCacheGeneratorP21CustomAttributesCache
gjj:_Parser_ResolveReferences_m1518052352
Syb:__ZThn10632_N13GfxDeviceGLES25SetStereoConstantPlatformEijRK8Vector4f
GEa:__ZN8Renderer20RendererAddedToSceneEv
oTb:__ZL22ScheduleSceneNodesJobsP25ScheduleSceneNodesJobDataj
Qk:_emscripten_set_canvas_size
txa:__ZN18StreamedBinaryReadILb0EE19TransferSTLStyleMapINSt3__23mapIN9ShaderLab16FastPropertyNameEfNS2_4lessIS5_EENS2_9allocatorINS2_4pairIKS5_fEEEEEEEEvRT_17TransferMetaFlags
wKd:_Graphic_SetVerticesDirty_m2124914069
dUg:_CultureInfo__ctor_m3285927757
y_f:_MaskableGraphic_get_rootCanvasRect_m3492154629
gCc:__ZN9JSONWrite8TransferI13dynamic_arrayI11QuaternionfLj0EEEEvRT_PKc17TransferMetaFlags
wHc:__ZN9Scripting11UnityEngine9Physics2D9InitProxyEv
kPi:_Array_Resize_TisRaycastResult_t3360306849_m1811054291_gshared
Fic:__ZN12MeshRenderer27PrepareSingleRendererUpdateER13RendererSceneRS_10MemLabelId
A3h:_ReadOnlyCollection_1_System_Collections_Generic_ICollectionU3CTU3E_get_IsReadOnly_m3152485890_gshared
j1b:__ZNSt3__26vectorIN9ShaderLab20SerializedSubProgramENS_9allocatorIS2_EEE8__appendEj
ZN:__ZN20DynamicHeapAllocatorI17LowLevelAllocatorE8AllocateEji
Rnd:__ZN11UnityEngine9Analytics15UserCustomEvent12ToJsonStringER9JSONWrite
oqj:_Locale_GetText_m2427493201
rLb:__ZN20DynamicPropertySheet15SetVectorQueuedERKN9ShaderLab16FastPropertyNameERK8Vector4fN19ShaderPropertySheet8SetFlagsE
jpa:__ZN31CanvasBatchIntermediateRendererD0Ev
vaf:_InternalEnumerator_1_System_Collections_IEnumerator_Reset_m996811230_AdjustorThunk
Era:__ZN14RenderSettings23VirtualRedirectTransferER19StreamedBinaryWriteILb0EE
lCe:__ZL59GUISkin_t1244372282_CustomAttributesCacheGenerator_m_windowP21CustomAttributesCache
HAc:__ZL26Transfer_SimpleNativeClassI9JSONWrite10RectOffsetLb0EEvRK29SerializationCommandArgumentsR31RuntimeSerializationCommandInfo
enk:_GC_push_conditional
Ind:__ZN21UnityAnalyticsManager23VirtualRedirectTransferER24GenerateTypeTreeTransfer
xKa:__ZN17GenericDynamicVBO10AllocateVBEjR21DynamicVBOChunkHandle
Reh:_DBNull_ToString_m3638608738
mck:__ZN30dense_hashtable_const_iteratorI10KeyWrapperIP18Il2CppGenericClassES3_N6il2cpp8metadata22Il2CppGenericClassHashEN14dense_hash_setIS3_S6_NS3_14EqualsComparerINS5_25Il2CppGenericClassCompareEEENSt3__29allocatorIS3_EEE8IdentityESA_SD_EppEv
aQg:_BitArray_Clone_m3537018332
JNf:_ObjectRecord_UnchainFixup_m3191243952
jdj:_TlsStream_get_CanWrite_m16389328
Hld:__Z15GetUIModuleSpecv
eAi:__Z65RuntimeInvoker_RuntimeObject_RuntimeObject_Vector3U26_t3464235976PFvvEPK10MethodInfoPvPS4_
z1c:__ZN9Scripting11UnityEngine8UIVertex9InitProxyEv
nl:_glMapBufferRange
OCa:__ZN9Texture2D8TransferI18StreamedBinaryReadILb0EEEEvRT_
dec:__Z31Input_CUSTOM_GetMouseButtonDowni
DXa:__ZNK9Transform16GetLocalPositionEv
VCg:_EncoderExceptionFallbackBuffer_get_Remaining_m1573636148
iTe:_MonoType_get_BaseType_m1098640416
KSa:__ZN13LoadOperation19IntegrateTimeSlicedEi
Cdj:_TlsStream_Read_m3392972801
qHf:_TouchScreenKeyboard_get_status_m3936201565
oyb:__ZN13GfxDeviceGLES22DispatchComputeProgramE12ObjectHandleI18ComputeProgram_TagPvE15ComputeBufferIDj
WEf:_Transform_get_localToWorldMatrix_m4155710351
JFb:__ZN20DefaultGfxDeviceImpl32InitStereoGlobalsBuffersPlatformEiijPKv
UPh:_Latin1Encoding_GetString_m254210343
MUa:__Z17TransformAABBSlowRK4AABBRK10Matrix4x4fRS_
nJg:_Array_combsort_m4052486289
MMg:_Char_System_IConvertible_ToUInt16_m2449138174
KB:__ZN24AudioScriptBufferManager27InitialCompleteDomainReloadEv
iUi:_List_1_System_Collections_ICollection_get_SyncRoot_m314215814_gshared
J$b:__ZN9ShaderLab21SerializedShaderState8TransferI14SafeBinaryReadEEvRT_
gjh:_Environment_GetWindowsFolderPath_m1738399646
P2i:_Queue_1_System_Collections_Generic_IEnumerableU3CTU3E_GetEnumerator_m2263220760_gshared
f0i:_List_1_Sort_m378918663_gshared
_Dh:_DefaultComparer_GetHashCode_m77036565_gshared
I6c:_cf2_stack_pushInt
m5c:__ZNSt3__26__treeINS_12__value_typeIN20TextRenderingPrivate7FontRefEP11FT_FaceRec_EENS_19__map_value_compareIS3_S6_NS_4lessIS3_EELb1EEENS_9allocatorIS6_EEE7destroyEPNS_11__tree_nodeIS6_PvEE
l1e:_U3CGetEnumeratorU3Ec__Iterator0_System_Collections_IEnumerator_get_Current_m3208659014_gshared
CQd:_Module_GetCustomAttributes_m76573271
nRf:_CryptoConfig_EncodeOID_m2635914623
oxa:__ZN15SerializeTraitsINSt3__24pairIN4core12basic_stringIcNS2_20StringStorageDefaultIcEEEES6_EEE8TransferI24GenerateTypeTreeTransferEEvRS7_RT_
kGk:b89
jGk:b88
LFk:b81
KFk:b80
ADb:__ZN7ApiGLES19CreateSparseTextureEjj14GraphicsFormatiiiiRiS1_S1_
KV:__ZN18ResourceImageGroup7CleanupEv
cGk:b85
bGk:b84
eGk:b87
IBg:_String_CharCopy_m3838781968
Eq:__ZN11Quaternionf8TransferI24GenerateTypeTreeTransferEEvRT_
q0d:_RemotingSurrogateSelector_GetSurrogate_m3900875713
Owi:__Z69RuntimeInvoker_Boolean_t97287965_UInt16_t2177724958_Int16_t2552820387PFvvEPK10MethodInfoPvPS4_
f6h:_ReadOnlyCollection_1_System_Collections_IList_get_IsReadOnly_m3626439112_gshared
Alg:_CertificateValidationCallback_Invoke_m1014111289
B0h:__ZN23InterfaceActionInvoker2Ii19Vector2_t2156229523E6InvokeEjP11Il2CppClassP12Il2CppObjectiS0_
vna:__Z20RenderMultipleMeshesRK15RenderNodeQueueRK18RenderMultipleData16VertexInputMasks
bm:_glDeleteShader
B2:__ZN6prcoreL17RemapGenericFloatI15TexFormatRGHalf16TexFormatRGFloatEEvPKNS_9InnerInfoE
eQi:_Array_Sort_TisUICharInfo_t75501106_m128665067_gshared
V8c:_otv_GSUB_validate
btg:_RSAPKCS1SignatureDeformatter_SetHashAlgorithm_m1602190713
jih:_Enum_System_IConvertible_ToByte_m1219166845
Qof:_Dictionary_2_CopyToCheck_m45332585_gshared
LZi:_List_1_System_Collections_ICollection_get_IsSynchronized_m3630704857_gshared
f4e:_InternalEnumerator_1_System_Collections_IEnumerator_Reset_m4239728915_AdjustorThunk
W4b:__Z27scripting_add_internal_callPKcPKv
IBi:__Z55RuntimeInvoker_Void_t1185182177_JointMotor2D_t142461323PFvvEPK10MethodInfoPvPS4_
z$j:__ZN13Il2CppHashMapINSt3__24pairIPK9EventInfoP11Il2CppClassEEj17ReflectionMapHashIS7_ENS0_8equal_toIS7_EENS0_9allocatorINS1_IK10KeyWrapperIS7_EjEEEEEC2EjRKS9_RKSB_
Iye:__ZL106Transform_t3600365921_CustomAttributesCacheGenerator_Transform_INTERNAL_get_localToWorldMatrix_m1917635696P21CustomAttributesCache
$ma:__Z17GetPlayerSettingsv
v1b:__ZNSt3__26vectorIN9ShaderLab20SerializedSubProgram16SamplerParameterENS_9allocatorIS3_EEE6assignIPS3_EENS_9enable_ifIXaasr21__is_forward_iteratorIT_EE5valuesr16is_constructibleIS3_NS_15iterator_traitsISA_E9referenceEEE5valueEvE4typeESA_SA_
iBj:__ZL25UnresolvedVirtualCall_261P12Il2CppObject19Vector3_t3722313464PK10MethodInfo
uRd:_MonoField_get_FieldHandle_m3729647377
$uc:__ZN9Scripting11UnityEngine3GUI9InitProxyEv
Q1f:_ScrollRect_get_content_m2477524320
Zgf:_Enumerator_MoveNext_m1556953412_AdjustorThunk
Rjd:__Z44Register_UnityEngine_Canvas_get_pixelPerfectv
Flj:_Literal_GetAnchorInfo_m810577400
Igf:_Enumerator__ctor_m65667165_AdjustorThunk
Qmd:__ZN2UI14CanvasRenderer12SyncMaterialENS0_8SyncFlagE
N4g:_StreamWriter_Write_m1660535366
pIi:__Z66RuntimeInvoker_Void_t1185182177_Int32_t2950945753_Link_t3209266973PFvvEPK10MethodInfoPvPS4_
erk:__ZN6il2cpp2vm9Parameter30GetDefaultParameterValueObjectEPK10MethodInfoPK13ParameterInfoPb
VRh:_UTF8Encoding_GetByteCount_m4152118078
SHi:__Z71RuntimeInvoker_Void_t1185182177_CustomAttributeNamedArgument_t287865710PFvvEPK10MethodInfoPvPS4_
Zxh:_KeyPairPersistence__CanSecure_m3516574278
Jsi:__Z95RuntimeInvoker_Void_t1185182177_RuntimeObject_RuntimeObject_Int32_t2950945753_SByte_t1669577662PFvvEPK10MethodInfoPvPS4_
NTf:_MD5CryptoServiceProvider_Dispose_m3502499818
F7i:_Collection_1_System_Collections_IList_get_Item_m2422562729_gshared
azi:__Z87RuntimeInvoker_Void_t1185182177_RuntimeObject_StringU26_t181565287_StringU26_t181565287PFvvEPK10MethodInfoPvPS4_
ssa:__ZN12LightManager28IsLightTransformDataUpToDateEPK5Light
s3d:__ZL74RuntimeArray_CustomAttributesCacheGenerator_Array_BinarySearch_m3171087170P21CustomAttributesCache
bbd:_UNITY_tt_face_done_kern
Gmg:_SecurityParameters_get_ServerWriteMAC_m3430427271
MCe:__ZL90GUIStyle_t3956901511_CustomAttributesCacheGenerator_GUIStyle_get_stretchHeight_m4172805773P21CustomAttributesCache
VFe:__ZL68g_UnityEngine_StandardEvents_Assembly_CustomAttributesCacheGeneratorP21CustomAttributesCache
P1e:_ArrayReadOnlyList_1_RemoveAt_m2104218585_gshared
JHa:__ZN12BoneWeights48TransferI24GenerateTypeTreeTransferEEvRT_
Wmh:_Array_InternalArray__IEnumerable_GetEnumerator_TisParameterModifier_t1461694466_m3675077728_gshared
ORc:__ZN35b2InitializeVelocityConstraintsTaskD2Ev
F5:__ZL49__ManagedRegistrationHelperFunction_PreLateUpdatePv
_Le:__ZL60RawImage_t3182918964_CustomAttributesCacheGenerator_m_UVRectP21CustomAttributesCache
b1h:__ZN21InterfaceFuncInvoker1I19Vector3_t3722313464iE6InvokeEjP11Il2CppClassP12Il2CppObjecti
jsb:__Z19scripting_gc_enablev
$af:_InternalEnumerator_1_get_Current_m2907722321_gshared
HGb:__ZZ23InitPlayerLoopCallbacksvEN41InitializationPlayerUpdateTimeRegistrator7ForwardEv
Lpc:__ZN11UTF16StringC2ERKS_10MemLabelId
zYb:__Z29StdTemplateConversionFunctionIihEbPvR14SafeBinaryRead
kcf:_InternalEnumerator_1_get_Current_m3792939945_AdjustorThunk
eld:__Z55Register_UnityEngine_CanvasRenderer_DisableRectClippingv
Ft:__ZN9Scripting11UnityEngine10Animations16ConstraintSource12CleanupProxyEv
DVh:_TimeSpan_Subtract_m1264203589_AdjustorThunk
AOc:__ZN19OverlapPointQuery2D14InitializeAABBER6b2AABB
aQd:_MethodBase__ctor_m1907868998
ELe:__ZL118U3CCaretBlinkU3Ec__Iterator0_t2589889038_CustomAttributesCacheGenerator_U3CCaretBlinkU3Ec__Iterator0_Reset_m1547565867P21CustomAttributesCache
S3a:__ZN9GfxDevice22UploadTextureCubeArrayE9TextureIDPKhjii14GraphicsFormati18TextureUploadFlags
G5e:_InternalEnumerator_1_System_Collections_IEnumerator_get_Current_m888718134_gshared
Eoi:__Z175RuntimeInvoker_Void_t1185182177_SByte_t1669577662_SByte_t1669577662_SByte_t1669577662_SByte_t1669577662_SByte_t1669577662_SByte_t1669577662_SByte_t1669577662_SByte_t1669577662PFvvEPK10MethodInfoPvPS4_
Tnh:_Array_compare_TisRaycastResult_t3360306849_m822404090_gshared
HAf:_Object_Destroy_m3118546832
t2h:_ReadOnlyCollection_1_System_Collections_Generic_IListU3CTU3E_set_Item_m519295790_gshared
ddh:_DateTime_FromTicks_m4059645178_AdjustorThunk
jSi:_Array_InternalArray__get_Item_TisClientCertificateType_t1004704908_m2297379651_gshared
dYd:_ConfigHandler_ParseTime_m1787834288
Y3b:__ZN9ShaderLab7Program27CreateFromSerializedProgramERKNS_17SerializedProgramE10ShaderTypeiP16PropertyNamesSetPK6Shader
mlh:_Array_InternalArray__ICollection_Remove_TisX509ChainStatus_t133602714_m3635989134_gshared
JWe:_Assembly_Load_m3487507613
bx:__ZNSt3__27__sort4IRNS_6__lessIN4core12basic_stringIcNS2_20StringStorageDefaultIcEEEES6_EEPS6_EEjT0_SA_SA_SA_T_
Ezk:dynCall_viiiifii
b_j:__ZN6il2cpp2gc19AppendOnlyGCHashMapINSt3__24pairIPK11Il2CppImageP11Il2CppClassEEP22Il2CppReflectionModule17ReflectionMapHashIS9_ENS2_8equal_toIS9_EEEC2Ev
aT:__Z20GetPersistentManagerv
led:_UNITY_TT_Set_Var_Design
vP:__ZN21SystemInfoStringCache16StaticInitializeEPv
Yge:__ZL80Convert_t2465617642_CustomAttributesCacheGenerator_Convert_ToDecimal_m1695757674P21CustomAttributesCache
m7f:_NameObjectCollectionBase_FindFirstMatchedItem_m840305173
U2h:_ReadOnlyCollection_1_System_Collections_Generic_ICollectionU3CTU3E_Remove_m1100818788_gshared
zdk:__ZNK10KeyWrapperIP12Il2CppObjectE14EqualsComparerINSt3__28equal_toIS1_EEEclERKS2_S9_
M0b:__ZNSt3__26vectorIN9ShaderLab20SerializedSubProgram15StructParameterENS_9allocatorIS3_EEE6assignIPS3_EENS_9enable_ifIXaasr21__is_forward_iteratorIT_EE5valuesr16is_constructibleIS3_NS_15iterator_traitsISA_E9referenceEEE5valueEvE4typeESA_SA_
y1h:_Collection_1_IsSynchronized_m2291009199_gshared
gpd:__ZN9Scripting11UnityEngine9Analytics21AnalyticsSessionState12CleanupProxyEv
Kpb:__ZNK13MonoBehaviour7GetNameEv
TVa:__ZN19ScriptingInvocation28AdjustArgumentsToMatchMethodEv
rii:_IndexedSet_1_Contains_m1525966688_gshared
Wy:__Z15_CheckFMODError11FMOD_RESULTPKciS1_
s7j:__ZN6il2cpp6icalls8mscorlib6SystemL16ThrowInvalidCastEPK11Il2CppClassS5_
iGh:_EqualityComparer_1_get_Default_m79107703_gshared
ZSf:_HMAC_KeySetup_m661741544
Cie:__ZL61MonoEnumInfo_t3694469084_CustomAttributesCacheGenerator_cacheP21CustomAttributesCache
Ibk:__ZN6il2cpp2vm5Field11SetValueRawEPK10Il2CppTypePvS5_b
IPh:_Latin1Encoding__ctor_m498920120
g1j:__ZN6il2cpp2vm4Type19GetGenericParameterEPK10Il2CppType
o4g:_StreamReader_Peek_m2272511193
wVg:_DateTimeFormatInfo_FillAllDateTimePatterns_m2683124783
nkd:__Z51Register_UnityEngine_CanvasGroup_get_blocksRaycastsv
yUe:_NumberFormatter_get_IsFloatingSource_m3714711779
Q8i:_Collection_1_System_Collections_IList_Add_m1403891193_gshared
l5e:_InternalEnumerator_1_System_Collections_IEnumerator_Reset_m169899350_AdjustorThunk
aXh:_Type_GetConstructor_m1195697116
wd:_glBeginQuery
_nh:__ZN21InterfaceFuncInvoker2Ii19Vector2_t2156229523S0_E6InvokeEjP11Il2CppClassP12Il2CppObjectS0_S0_
R5:__ZL48__ManagedRegistrationHelperFunction_VisibleLightPv
f_c:__ZN10Effector2D25CheckEffectorColliderMaskEP10Collider2DS1_
wIb:__ZN6Camera12RenderStereoENS_10RenderFlagE8CullFlagPNS_24PerformEyeRenderFunctionE
CZa:__ZN20LocalFileSystemPosix10ToAbsoluteEPKc
Yqa:__ZN20TierGraphicsSettings8TransferI19StreamedBinaryWriteILb0EEEEvRT_
gJk:b111
SUa:__Z23CollectSceneGameObjectsR13dynamic_arrayIiLj0EE
ckk:__ZN6il2cpp2vm13ComObjectBase16DisconnectObjectEj
LHh:_GenericComparer_1__ctor_m3652072706_gshared
Im:f0
Rp:__ZN6Object17MainThreadCleanupEv
rqa:__Z32TransferEnumWithNameForceIntSizeI14SafeBinaryRead7HDRModeEvRT_RT0_PKc17TransferMetaFlags
dvk:_getcwd
dMc:__ZN16b2CapsuleContact6CreateEP9b2FixtureiS1_iP16b2BlockAllocator
xfa:__ZN25ThreadsafeLinearAllocatorD2Ev
xpc:__ZL50GetAndClearChangedTransformsForMultilpleSystemsJobP45GetChangedTransformsForMultipleSystemsJobDatajPK23TransformAccessReadOnlyPKyj
STa:__Z21SendMessageToEveryoneRK17MessageIdentifier11MessageData
oZ:__ZN21BillboardBatchManager16StaticInitializeEPv
k8g:_DateTime_AbsoluteDays_m4235097773
SQ:__ZN12_GLOBAL__N_138ArchiveRedirectFileSystemStaticDestroyEPv
i4d:__ZL126U3CGetEnumeratorU3Ec__Iterator0_t1202911786_CustomAttributesCacheGenerator_U3CGetEnumeratorU3Ec__Iterator0_Dispose_m2078994225P21CustomAttributesCache
Pji:__Z74RuntimeInvoker_RuntimeObject_RuntimeObject_RuntimeObject_SByte_t1669577662PFvvEPK10MethodInfoPvPS4_
s4d:__ZL69Type_t_CustomAttributesCacheGenerator_Type_GetConstructor_m1195697116P21CustomAttributesCache
oId:_DefaultControls_CreateScrollView_m3842770629
qHc:__ZL55__ManagedRegistrationHelperFunction_PhysicsJobOptions2DPv
IAa:__ZN12CubemapArray34UpdateFileTextureUploadInstructionEP26FileAssetUploadInstructionj
I7d:__ZL94EnumBuilder_t2400448213_CustomAttributesCacheGenerator_EnumBuilder_GetConstructors_m3294436155P21CustomAttributesCache
xJi:__Z55RuntimeInvoker_TableRange_t3332867892_Int32_t2950945753PFvvEPK10MethodInfoPvPS4_
y8e:_InternalEnumerator_1_MoveNext_m1020308708_gshared
zDb:__Z23CreateSparseTextureGLES9TextureIDii14GraphicsFormati
B9c:_otv_Anchor_validate
cPc:__Z18AddCollisionReportP11Collision2DR13dynamic_arrayINS_15CollisionReportELj0EE
YSg:_CCMath_mod_m3631663509
BVh:_TimeSpan_Negate_m1889505500_AdjustorThunk
z6h:_ReadOnlyCollection_1_System_Collections_ICollection_CopyTo_m2715087453_gshared
AEe:__ZL84Canvas_t3310196443_CustomAttributesCacheGenerator_Canvas_get_scaleFactor_m3314757802P21CustomAttributesCache
fkf:_Transform_1__ctor_m2810088858_gshared
a1a:__ZN16MemoryFileSystemD0Ev
qsd:__ZN11UnityEngine7Connect20RemoteConfigSettings7SetJSONER8JSONReadb
PDe:__ZL101Physics2D_t1528932956_CustomAttributesCacheGenerator_Physics2D_GetRayIntersectionNonAlloc_m2525277886P21CustomAttributesCache
dJc:__ZNK12b2MotorJoint16GetReactionForceEf
hQj:__ZN6il2cpp2vm13MetadataCache37GetParameterDefaultValueDataFromIndexEi
m2j:_il2cpp_class_get_assemblyname
zti:__Z50RuntimeInvoker_SByte_t1669577662_SByte_t1669577662PFvvEPK10MethodInfoPvPS4_
cLd:_Graphic_OnFillVBO_m1026749972
OIj:__ZN6il2cpp2vm5Class15GetEnumBaseTypeEP11Il2CppClass
Nog:_Context_set_WriteSequenceNumber_m942577065
$d:_glVertexAttrib4fv
qdg:_X509CertificateEnumerator_Reset_m4026698923
ykk:__ZNK6il2cpp5utils13VmStringUtils23CaseInsensitiveComparerclERKNSt3__212basic_stringIcNS3_11char_traitsIcEENS3_9allocatorIcEEEEPKc
wFd:_CanvasScaler_SetScaleFactor_m3006968999
ALi:__Z78RuntimeInvoker_Boolean_t97287965_Navigation_t3049316579_Navigation_t3049316579PFvvEPK10MethodInfoPvPS4_
hBa:__ZNK9Texture2D16GetNpotTexelSizeEv
mUe:_NumberFormatter_Init_m3576155222
A_a:__ZL33FileEntryInfoListToFolderContentsRKN4core12basic_stringIcNS_20StringStorageDefaultIcEEEERK19dynamic_block_arrayI13FileEntryInfoLj32EERNSt3__23setIS3_NSB_4lessIS3_EENSB_9allocatorIS3_EEEE
JZf:_LayoutUtility_GetLayoutProperty_m714717302
XYj:__ZN24dense_hashtable_iteratorINSt3__24pairIK10KeyWrapperINS1_IPK12PropertyInfoP11Il2CppClassEEEjEES9_17ReflectionMapHashIS8_EN14dense_hash_mapIS9_jSD_NS9_14EqualsComparerINS0_8equal_toIS8_EEEENS0_9allocatorISB_EEE9SelectKeyESI_SK_E30advance_past_empty_and_deletedEv
D_h:__ZN23InterfaceActionInvoker1IP39UnhandledExceptionEventArgs_t2886101344E6InvokeEjP11Il2CppClassP12Il2CppObjectS1_
Gzd:_EventSystem_set_sendNavigationEvents_m983981895
T2a:__ZN9GfxDevice22GetDefaultVertexBufferE26GfxDefaultVertexBufferTypej
Ujh:_Array_InternalArray__ICollection_Contains_TisInt64_t3736567304_m2911357929_gshared
qtb:__Z17BeginSplashScreenb
R7i:_Collection_1_Remove_m3022471627_gshared
uvk:___fseeko_unlocked
saa:__ZN9Scripting11UnityEngine12Experimental9Playables21TexturePlayableOutput12CleanupProxyEv
NVe:_Object_ToString_m1740002499
mvk:_sscanf
dBd:_ExecuteEvents_GetEventChain_m2404658789
oPi:_Array_Resize_TisUILineInfo_t4195266810_m3763058392_gshared
JQf:_SByte_ToString_m3584531119_AdjustorThunk
$2b:__ZN9ShaderLab16SerializedShader8TransferI19StreamedBinaryWriteILb0EEEEvRT_
WOc:__ZNK4PPtrI7Joint2DEcvPS0_Ev
wu:__ZN7mecanim9animation18CreateAvatarMemoryEPKNS0_14AvatarConstantERNS_6memory9AllocatorE
U9g:_Convert_ToInt32_m1876369743
shg:_ModulusRing__ctor_m2420310199
p8g:_Convert_ToDateTime_m626620011
shf:_Enumerator_System_Collections_IDictionaryEnumerator_get_Key_m2500634048_AdjustorThunk
F4j:__ZN14dense_hash_mapI10KeyWrapperIP11Il2CppClassES2_N6il2cpp8metadata16SZArrayClassHashENS3_14EqualsComparerINS5_19SZArrayClassCompareEEENSt3__29allocatorINSA_4pairIKS3_S2_EEEEE15set_deleted_keyERSD_
lib:__Z18Transfer_BlittableI19StreamedBinaryWriteILb0EELb0EaEvRK29SerializationCommandArgumentsR31RuntimeSerializationCommandInfo
xOh:_List_1_Remove_m3037048099_gshared
bBb:__ZN18GfxFramebufferGLES18GetFramebufferNameERK20GfxRenderTargetSetup
j8:__ZN9Scripting11UnityEngine9Transform9InitProxyEv
ynk:_GC_print_block_list
A0j:__ZN6il2cpp2vm14TypeNameParser12ParseVersionERKNSt3__212basic_stringIcNS2_11char_traitsIcEENS2_9allocatorIcEEEERtSB_SB_SB_
oyk:_saveSetjmp
XWf:_InputField_MoveDown_m1455948167
uvc:__Z30Event_Get_Custom_PropCharacterP12Il2CppObject
Y_:__ZN13PlayableGraph27SchedulePlayableDestructionERK9HPlayable
M8c:_cff_get_mm_var
NCk:_glGetFramebufferAttachmentParameteriv__wrapper
YWd:_ChannelServices_GetCurrentChannelInfo_m3041604116
Abf:_InternalEnumerator_1__ctor_m2635640285_AdjustorThunk
dbb:__Z22scripting_array_length17ScriptingArrayPtr
yPe:_SynchronizedReader_Peek_m148942882
yni:__Z95RuntimeInvoker_Void_t1185182177_RuntimeObject_Int32_t2950945753_Int32_t2950945753_RuntimeObjectPFvvEPK10MethodInfoPvPS4_
Sza:__ZN14SafeBinaryRead20TransferTypelessDataEjPvi
iLa:__ZN14SpriteRenderer18UpdateCachedSpriteEb
bgk:__ZN15dense_hashtableINSt3__24pairIK10KeyWrapperIPcES3_EES4_N6il2cpp5utils15PassThroughHashIS3_EEN14dense_hash_mapIS4_S3_SA_NS4_14EqualsComparerINS0_8equal_toIS3_EEEENS0_9allocatorIS6_EEE9SelectKeyESF_SH_E3endEv
Dfd:_Horizontal_Sweep_Init
Qma:__Z19GetActiveColorSpacev
Ead:_UNITY_tt_face_load_kern
YQd:_MonoMethodInfo_GetDeclaringType_m2924452727
hQ:__Z6StrCmpPKcS0_
G1f:_Scrollbar_OnInitializePotentialDrag_m3588541308
MTc:__ZN16b2PrismaticJoint11EnableMotorEb
O4b:__Z21CheckGpuProgramUsable20ShaderGpuProgramType
Rhc:__ZN13ProduceHelperI14Texture2DArrayLb0EE7ProduceE10MemLabelId18ObjectCreationMode
Qhk:__ZN6il2cpp2os9Directory20GetFileSystemEntriesERKNSt3__212basic_stringIcNS2_11char_traitsIcEENS2_9allocatorIcEEEESA_iiPi
$Hg:_Array_System_Collections_IList_Add_m1063688101
U2c:__ZN20TextRenderingPrivate19NativeTextGenerator5SetupEv
kQb:__ZNK15SharedLightData24GetFinalShadowResolutionEv
Jij:_PatternCompiler_EmitAlternationEnd_m2444359097
lxe:__ZL91GameObject_t1113636619_CustomAttributesCacheGenerator_GameObject_get_activeSelf_m1767405923P21CustomAttributesCache
SPa:__ZN12AspectRatios8TransferI18StreamedBinaryReadILb0EEEEvRT_
i6b:__ZN10GameObject14CopyPropertiesERS_
Ywc:__Z44Register_UnityEngine_GUIStyle_get_fixedWidthv
Rkh:_Array_InternalArray__ICollection_Remove_TisLink_t544317964_m1280781374_gshared
yhk:__ZNSt3__214__split_bufferIN6il2cpp2os10ThreadImpl10APCRequestERNS_9allocatorIS4_EEEC2EjjS7_
rKg:_BitConverter_DoubleWordsAreSwapped_m1474345095
pBi:__Z114RuntimeInvoker_Int32_t2950945753_Vector2_t2156229523_Vector2_t2156229523_ContactFilter2D_t3805203441_RuntimeObjectPFvvEPK10MethodInfoPvPS4_
WOg:_FixedSizeArrayListWrapper_set_Capacity_m4221053039
Pvk:_rand
pDk:_emscripten_glFramebufferRenderbuffer__wrapper
Coc:__ZN13MeshScripting10CreateMeshE21ScriptingObjectOfTypeI4MeshE
pji:_ListPool_1__cctor_m3480273184_gshared
Ryi:__Z56RuntimeInvoker_Void_t1185182177_PropertyName_t3749835189PFvvEPK10MethodInfoPvPS4_
LAd:__ZN23InterfaceActionInvoker1IP25BaseEventData_t3903027533E6InvokeEjP11Il2CppClassP12Il2CppObjectS1_
ccb:__ZN14SafeBinaryRead21TransferSTLStyleArrayINSt3__26vectorI17AnimationCurveTplIfE13stl_allocatorIS4_L18MemLabelIdentifier1ELi16EEEEEEvRT_17TransferMetaFlags
zPg:_SynchronizedArrayListWrapper_Contains_m3809499313
cqg:_HandshakeMessage_Compare_m2214647946
clh:_Array_InternalArray__ICollection_Remove_TisLabelData_t360167391_m3556246844_gshared
hYj:__ZN15dense_hashtableINSt3__24pairIK10KeyWrapperINS1_IPK11Il2CppImageP11Il2CppClassEEEjEES9_17ReflectionMapHashIS8_EN14dense_hash_mapIS9_jSD_NS9_14EqualsComparerINS0_8equal_toIS8_EEEENS0_9allocatorISB_EEE9SelectKeyESI_SK_E12expand_arrayEjN21dense_hash_map_traits17integral_constantIbLb0EEE
m5a:__ZN9GfxDevice30ResolveComputeProgramResourcesE12ObjectHandleI18ComputeProgram_TagPvER19ComputeShaderKernelR13dynamic_arrayI15ComputeShaderCBLj0EERS6_I18ComputeShaderParamLj0EEb
lTf:_HMACSHA256__ctor_m346174875
Zrf:_Color_op_Multiply_m2887457390
U1i:_List_1_Remove_m2092443302_gshared
JSb:__Z22PrepareOptimizedPlanesPK5PlaneiPKN4math7_float4E
t5e:_InternalEnumerator_1__ctor_m1559487635_gshared
IM:__ZN11UnityEngine15CloudWebService17WebFileDownloaderINS0_20WebRequestRestClientENS0_23WebRequestRestHeaderMapEE10InitializeERKN4core12basic_stringIcNS5_20StringStorageDefaultIcEEEE
mZ:__ZN17UniqueIDGenerator15CreatePureIndexEv
Gfc:__Z48InitializeRectTransformAnimationBindingInterfacev
pSa:__ZNSt3__26vectorIN15ResourceManager10DependencyE13stl_allocatorIS2_L18MemLabelIdentifier52ELi16EEE6assignINS_11__wrap_iterIPS2_EEEENS_9enable_ifIXaasr21__is_forward_iteratorIT_EE5valuesr16is_constructibleIS2_NS_15iterator_traitsISC_E9referenceEEE5valueEvE4typeESC_SC_
bIj:__ZN15dense_hashtableINSt3__24pairIK10KeyWrapperIPK22Il2CppGenericParameterEP11Il2CppClassEES6_N6il2cpp5utils11PointerHashIS4_EEN14dense_hash_mapIS6_S9_SE_NS6_14EqualsComparerINS0_8equal_toIS5_EEEENS0_9allocatorISA_EEE9SelectKeyESJ_SL_E14squash_deletedEv
Cva:__ZN9ShaderLabL27GetDesiredRenderTextureDescEPK6Camera
Mde:__ZL131RSACryptoServiceProvider_t2683512874_CustomAttributesCacheGenerator_RSACryptoServiceProvider_t2683512874____PublicOnly_PropertyInfoP21CustomAttributesCache
zKc:__ZNK12b2MouseJoint17GetReactionTorqueEf
UMi:_Array_InternalArray__Insert_TisMark_t3471605523_m2854535880_gshared
foc:__ZN4Mesh24UpdateSubMeshVertexRangeEi
Wvc:__Z14GUIClipTextureP9Texture2DPhiiii
kAe:__ZL52HumanBone_t2465339518_CustomAttributesCacheGeneratorP21CustomAttributesCache
Z$d:_MethodReturnDictionary__cctor_m278392388
gKb:__ZNK9Transform18TransformDirectionERK8Vector3f
ncj:_SslStreamBase_get_CanWrite_m1622082918
k$a:__ZNK17ArchiveFileSystem12GetAssetGUIDERK13FileEntryData
zNe:__ZL80CanvasScaler_t2767979955_CustomAttributesCacheGenerator_m_ReferencePixelsPerUnitP21CustomAttributesCache
rde:__ZL47HMAC_t2621101144_CustomAttributesCacheGeneratorP21CustomAttributesCache
Fvh:_PrimalityTests_RabinMillerTest_m1471415870
DKh:_Enumerator_MoveNext_m2114485647_gshared
e$e:_GenericTypeParameterBuilder_GetCustomAttributes_m580748276
isj:_AnalyticsTracker_get_TP_m2800669040
SOj:__ZN15dense_hashtableINSt3__24pairIK10KeyWrapperIPK11Il2CppClassEPKcEES6_N6il2cpp5utils11PointerHashIS3_EEN14dense_hash_mapIS6_S9_SE_NS6_14EqualsComparerINS0_8equal_toIS5_EEEENS0_9allocatorISA_EEE9SelectKeyESJ_SL_E12resize_deltaEjj
xxk:__ZNK10__cxxabiv120__si_class_type_info27has_unambiguous_public_baseEPNS_19__dynamic_cast_infoEPvi
xhg:_Kernel_LeftShift_m4140742987
wWe:_Assembly_GetManifestResourceInternal_m1224391897
Dna:__Z30AddDefaultStreamsToMeshBuffersR9GfxDeviceR11MeshBuffersj17ShaderChannelMaskS3_
tQ:__ZL16GetInterfaceImpl18UnityInterfaceGUID
lkk:__ZN6il2cpp6icalls8mscorlib6System15MonoCustomAttrs27GetCustomAttributesInternalEP12Il2CppObjectP20Il2CppReflectionTypeb
K8e:_InternalEnumerator_1_get_Current_m1408339225_AdjustorThunk
Ied:_UNITY_TT_Set_MM_Blend
Vba:__ZN9Scripting11UnityEngine11Application9InitProxyEv
pbj:_InternalAsyncResult_get_FromWrite_m4228047810
Nqi:__Z53RuntimeInvoker_MonoEventInfo_t346866618_RuntimeObjectPFvvEPK10MethodInfoPvPS4_
J$h:_Collection_1_CopyTo_m955200729_gshared
Itb:__ZN14PreloadManager35WaitForAllAsyncOperationsToCompleteEv
qKj:__ZN13Il2CppHashMapIP9FieldInfoiN6il2cpp5utils11PointerHashIS0_EENSt3__28equal_toIS1_EENS6_9allocatorINS6_4pairIK10KeyWrapperIS1_EiEEEEEC2EjRKS5_RKS8_
rR:__ZNSt3__26__treeINS_12__value_typeIPKc11ShaderTagIDEENS_19__map_value_compareIS3_S5_27compare_tstring_insensitiveIS3_ELb1EEENS_9allocatorIS5_EEE7destroyEPNS_11__tree_nodeIS5_PvEE
TEe:__ZL103UISystemProfilerApi_t2230074258_CustomAttributesCacheGenerator_UISystemProfilerApi_AddMarker_m495483138P21CustomAttributesCache
kS:__ZNK18ScriptingObjectPtr17ToScriptingStringEv
Sy:__ZL31InitializeAudioScriptingClassesv
BJb:__Z14SortGUIByDepthP10GUIElementS0_
gmb:__ZN18StreamedBinaryReadILb1EE21TransferSTLStyleArrayI13dynamic_arrayIhLj0EEEEvRT_17TransferMetaFlags
Ozf:_PlayerConnection_OnEnable_m4286555589
Fvi:__Z69RuntimeInvoker_UInt32_t2560061978_Int32_t2950945753_SByte_t1669577662PFvvEPK10MethodInfoPvPS4_
pnj:_UriParser__cctor_m3655686731
zZf:_LayoutRebuilder_U3Cs_RebuildersU3Em__0_m589488547
dLi:__Z53RuntimeInvoker_KeyValuePair_2_t71524366_RuntimeObjectPFvvEPK10MethodInfoPvPS4_
c_a:__ZNK20LocalFileSystemPosix21GetAvailableDiskSpaceEPKcRy
Zw:__ZNSt3__26__treeIiNS_4lessIiEENS_9allocatorIiEEE7destroyEPNS_11__tree_nodeIiPvEE
E2a:__ZNK9GfxDevice14GetWorldMatrixEv
JRj:_RemoteConfigSettings_t1247263429_marshal_pinvoke
WHf:_Transform_set_parent_m786917804
Wvj:_AudioSampleProvider_InternalSetScriptingPtr_m3742743270
B4f:_Slider_get_value_m739683640
AYa:__Z19scripting_array_new17ScriptingClassPtrjj
XJi:__Z60RuntimeInvoker_PlayerLoopSystem_t105772105_Int32_t2950945753PFvvEPK10MethodInfoPvPS4_
cza:__ZN6prcoreL10inner_flipILj4EEEvPhS1_j
VTh:_WaitCallback_BeginInvoke_m3012509827
r1b:__ZNSt3__26vectorIN9ShaderLab20SerializedSubProgram16TextureParameterENS_9allocatorIS3_EEE6assignIPS3_EENS_9enable_ifIXaasr21__is_forward_iteratorIT_EE5valuesr16is_constructibleIS3_NS_15iterator_traitsISA_E9referenceEEE5valueEvE4typeESA_SA_
tNj:__ZN13Il2CppHashMapIN6il2cpp5utils13dynamic_arrayIPK10Il2CppTypeLj4EEEPFvvENS0_8metadata19Il2CppSignatureHashENS9_22Il2CppSignatureCompareENSt3__29allocatorINSC_4pairIK10KeyWrapperIS6_ES8_EEEEEC2EjRKSA_RKSB_
SDe:__ZL104Physics2D_t1528932956_CustomAttributesCacheGenerator_Physics2D_GetRayIntersectionAll_Internal_m643548862P21CustomAttributesCache
VZi:__ZN21InterfaceFuncInvoker0I22UILineInfo_t4195266810E6InvokeEjP11Il2CppClassP12Il2CppObject
Zni:__Z122RuntimeInvoker_Void_t1185182177_RuntimeObject_RuntimeObject_ContractionU5BU5DU26_t2277527001_Level2MapU5BU5DU26_t359320357PFvvEPK10MethodInfoPvPS4_
J_j:__ZN15dense_hashtableINSt3__24pairIK10KeyWrapperIPK22Il2CppGenericParameterEPK24MonoGenericParameterInfoEES6_N6il2cpp5utils11PointerHashIS4_EEN14dense_hash_mapIS6_SA_SF_NS6_14EqualsComparerINS0_8equal_toIS5_EEEENS0_9allocatorISB_EEE9SelectKeyESK_SM_E15set_deleted_keyERKSB_
HQf:_SByte_TryParse_m2431806379
DLj:__ZNK15dense_hashtableINSt3__24pairIK10KeyWrapperIP9FieldInfoEiEES5_N6il2cpp5utils11PointerHashIS3_EEN14dense_hash_mapIS5_iSB_NS5_14EqualsComparerINS0_8equal_toIS4_EEEENS0_9allocatorIS7_EEE9SelectKeyESG_SI_E8min_sizeEjj
kje:__ZL64ObjectDisposedException_t21392786_CustomAttributesCacheGeneratorP21CustomAttributesCache
cta:__ZN6prcoreL11inner_clearILj2EEEvPhjjj
Fca:__ZN9Scripting5Unity11Collections8LowLevel6Unsafe24NativeContainerAttribute9InitProxyEv
jSf:_DSACryptoServiceProvider_get_KeySize_m786836990
VJc:__ZN12b2WheelJoint24SolvePositionConstraintsERK12b2SolverData
Mg:_emscripten_exit_fullscreen
uOi:_Array_qsort_TisBoolean_t97287965_TisBoolean_t97287965_m214793583_gshared
MJh:_Enumerator_System_Collections_IEnumerator_Reset_m1564381721_gshared
Mfc:__ZZL31RegisterRectTransformPropertiesR22GenericPropertyBindingEN39Wrapper_RectTransformAnchoredPositiony113GetFloatValueEPv
HVe:_Object_MemberwiseClone_m1474068832
Jgk:__ZN6il2cpp6icalls8mscorlib6System6String19InternalAllocateStrEi
hFc:__Z29Transfer_Blittable_ArrayFieldI8JSONRead11QuaternionfEvRT_R9ArrayInfoRK23StaticTransferFieldInfo
LZa:__ZN20LocalFileSystemPosix8SetFlagsER13FileEntryDatajj
Gbc:__Z45Register_UnityEngine_Camera_get_targetDisplayv
Kkc:__ZNK24RendererAnimationBinding15GenerateBindingERKN4core12basic_stringIcNS0_20StringStorageDefaultIcEEEEbRN11UnityEngine9Animation14GenericBindingE
d9f:_IPv6Address__ctor_m3704187391
qsa:__Z15GetFlareManagerv
qcc:__ZN15ApplicationInfo24GetApplicationIdentifierEv
Fda:__ZN9Behaviour8TransferI18StreamedBinaryReadILb0EEEEvRT_
Au:__ZN8Animator13GetAvatarRootEv
uqh:_Array_InternalArray__ICollection_Add_TisResourceCacheItem_t51292791_m3851804827_gshared
Stk:___toread
xrb:__ZNSt3__26vectorI10vector_mapIiiNS_4lessIiEE13stl_allocatorINS_4pairIiiEEL18MemLabelIdentifier38ELi16EEES4_IS9_LS7_38ELi16EEE26__swap_out_circular_bufferERNS_14__split_bufferIS9_RSA_EE
Vgg:_BigInteger_get_Rng_m3283260184
_xk:___cxa_is_pointer_type
Qv:__ZN8Animator22ScriptingStringToCRC32ERK11ICallString
Uje:__ZL55EventHandler_t1348719766_CustomAttributesCacheGeneratorP21CustomAttributesCache
ZCd:_RaycastResult_ToString_m2678663776_AdjustorThunk
sSi:_Array_InternalArray__get_Item_TisKeyValuePair_2_t2530217319_m2886833132_gshared
_lb:__ZN18StreamedBinaryReadILb1EE21TransferSTLStyleArrayI13dynamic_arrayIN4math12int3_storageELj0EEEEvRT_17TransferMetaFlags
q5:__ZL50__ManagedRegistrationHelperFunction_UnityEventBasePv
jdc:__Z34Transform_CUSTOM_SetAsFirstSiblingP12Il2CppObject
yVj:__ZNK15dense_hashtableINSt3__24pairIK10KeyWrapperINS1_IPK14Il2CppAssemblyP11Il2CppClassEEEjEES9_17ReflectionMapHashIS8_EN14dense_hash_mapIS9_jSD_NS9_14EqualsComparerINS0_8equal_toIS8_EEEENS0_9allocatorISB_EEE9SelectKeyESI_SK_E10test_emptyEj
Myj:__ZL25UnresolvedVirtualCall_129P12Il2CppObjectjijPK10MethodInfo
Sni:__Z63RuntimeInvoker_Void_t1185182177_RuntimeObject_SByte_t1669577662PFvvEPK10MethodInfoPvPS4_
Noe:__ZL57SetupCoroutine_t2062820429_CustomAttributesCacheGeneratorP21CustomAttributesCache
MWf:_InputField_Delete_m3471899192
lie:__ZL79Convert_t2465617642_CustomAttributesCacheGenerator_Convert_ToUInt64_m1627266664P21CustomAttributesCache
Uae:__ZL91UrlAttribute_t221584584_CustomAttributesCacheGenerator_UrlAttribute_IsContextOK_m1228378186P21CustomAttributesCache
FLf:_RemotingConfiguration_get_ProcessId_m2180277012
pAj:__ZL25UnresolvedVirtualCall_214P12Il2CppObjectS0_iPK10MethodInfo
eJ:__ZN11UnityEngine15CloudWebService17SessionEventQueue14ParseEventDataERKN4core12basic_stringIcNS2_20StringStorageDefaultIcEEEE
J9f:_WebHeaderCollection_Add_m183143026
BNh:_List_1_Remove_m2605758101_gshared
Wzb:__ZN13TranslateGLES4InitERK12GraphicsCaps16GfxDeviceLevelGL
pob:__Z29Transfer_Blittable_ArrayFieldI18StreamedBinaryReadILb0EE10ColorRGBAfEvRT_R9ArrayInfoRK23StaticTransferFieldInfo
vHj:_NativeTypeAttribute_set_CodegenOptions_m3839252515
UEh:_EqualityComparer_1_get_Default_m180770000_gshared
y_g:_Int64_System_IConvertible_ToUInt16_m848637338_AdjustorThunk
Jod:__Z32CustomEventData_CUSTOM_AddUInt32P12Il2CppObjectP12Il2CppStringj
frk:__ZN6il2cpp5utils9Exception26FormatInvalidCastExceptionEPK11Il2CppClassS4_
Moh:_Array_InternalArray__IndexOf_TisLink_t544317964_m455584088_gshared
y2i:_Enumerator_get_Current_m2282646120_AdjustorThunk
n6h:_ReadOnlyCollection_1_IndexOf_m2539022912_gshared
Xyh:_KeyGeneratedEventHandler__ctor_m1990062371
HMe:__ZL66Selectable_t3250028441_CustomAttributesCacheGenerator_m_TransitionP21CustomAttributesCache
Krk:__ZN6il2cpp2os6Memory12AlignedAllocEjj
VJh:_Enumerator_get_Current_m2305210644_AdjustorThunk
lCc:__ZN9JSONWrite8TransferI13dynamic_arrayIN4math12int3_storageELj0EEEEvRT_PKc17TransferMetaFlags
H5f:_Text_set_alignByGeometry_m3828822280
jlk:__ZN6il2cpp8metadataL7CompareEPK10Il2CppTypeS3_
beb:__Z18Transfer_BlittableI17RemapPPtrTransferLb0E11ColorRGBA32EvRK29SerializationCommandArgumentsR31RuntimeSerializationCommandInfo
j6f:_HybridDictionary__ctor_m1681134385
Sia:__ZN21ScalableBufferManager11GetInstanceEv
Gmb:__Z18Transfer_BlittableI18StreamedBinaryReadILb0EELb1E10ColorRGBAfEvRK29SerializationCommandArgumentsR31RuntimeSerializationCommandInfo
AAa:__ZN12CubemapArray23VirtualRedirectTransferER17RemapPPtrTransfer
LVh:_TimeSpan_op_LessThan_m1594498345
O9b:__ZL27GetComponentsImplementationILb0ELi0EEbR10GameObjectbRK17CompareParametersRK39GetComponentsImplementation_ReturnValue
wqb:__ZN9Scripting36IsSystemCollectionsGenericDictionaryE17ScriptingClassPtr
vhi:_UnityEvent_1_FindMethod_Impl_m322741469_gshared
wbe:__ZL92ConstructionCallDictionary_t686578562_CustomAttributesCacheGenerator_U3CU3Ef__switchU24map24P21CustomAttributesCache
bNe:__ZL64Slider_t3903728902_CustomAttributesCacheGenerator_m_WholeNumbersP21CustomAttributesCache
kIf:_Enumerator_get_Current_m2591725252
nW:__ZL16ReadTypeTreeImplILb0EEbR8TypeTreeRK16TypeTreeIteratorRPKhS6_i
vgg:_Interval_Contains_m110351300_AdjustorThunk
V9g:_Convert_ToInt32_m3048308591
HOe:__ZL77LayoutUtility_t2745813735_CustomAttributesCacheGenerator_U3CU3Ef__amU24cache6P21CustomAttributesCache
Q$f:_RectMask2D_OnCanvasHierarchyChanged_m3195492255
neh:_DateTimeOffset_Equals_m3030958070
Vra:__ZNK22BuiltinResourceManager21GetResourceInstanceIDEPKN5Unity4TypeERKN4core12basic_stringIcNS4_20StringStorageDefaultIcEEEE
qob:__ZN18StreamedBinaryReadILb0EE21TransferSTLStyleArrayI13dynamic_arrayI10ColorRGBAfLj0EEEEvRT_17TransferMetaFlags
gbc:__Z42Register_UnityEngine_RectOffset_set_bottomv
msj:_AnalyticsTracker_BuildParameters_m43920649
BAj:__ZL25UnresolvedVirtualCall_226P12Il2CppObject23SpriteState_t1362986479PK10MethodInfo
Gwc:__Z28GUIStyleState_CUSTOM_CleanupP12Il2CppObject
aVg:_DateTimeFormatInfo_GetMonthName_m2034512315
GLb:__ZN28LightProbeProxyVolumeContext8CopyFromERKS_
_6h:_ReadOnlyCollection_1_System_Collections_Generic_IListU3CTU3E_Insert_m2489506856_gshared
Yha:__ZN23TransformChangeDispatch32QueueTransformChangeIfHasChangedER18TransformHierarchy
byf:_Matrix4x4_MultiplyPoint_m1575665487
yBi:__Z105RuntimeInvoker_RuntimeObject_Vector3_t3722313464_Vector3_t3722313464_Single_t1397266774_Int32_t2950945753PFvvEPK10MethodInfoPvPS4_
BCb:__ZN7ApiGLES18DeleteRenderbufferERj
NBb:__ZL23ProgramUniformMatrix4fvPK7ApiGLESjiihPKv
Ovb:__ZN7ApiGLES13CreateTextureEjj14GraphicsFormatiiiii
sJg:_Array_new_gap_m262136975
Z0b:__ZN9ShaderLab20SerializedSubProgram15MatrixParameter8TransferI14SafeBinaryReadEEvRT_
Q9b:__ZL27GetComponentsImplementationILb0ELi1EEbR10GameObjectbRK17CompareParametersRK39GetComponentsImplementation_ReturnValue
ycg:_X509Store__ctor_m275383717
FHf:_Transform_INTERNAL_get_position_m1310184257
tdd:_Round_Down_To_Grid
mQj:__ZN6il2cpp2vm13MetadataCache40AddThreadLocalStaticOffsetForFieldLockedEP9FieldInfoiRKNS_2os12FastAutoLockE
qka:__ZN13RenderTexture7ReleaseEv
GCc:__Z18Transfer_BlittableI8JSONReadLb1EN4math12int3_storageEEvRK29SerializationCommandArgumentsR31RuntimeSerializationCommandInfo
KKa:__ZN10MeshFilter23VirtualRedirectTransferER14SafeBinaryRead
gOe:__ZL64LayoutGroup_t2436138090_CustomAttributesCacheGenerator_m_PaddingP21CustomAttributesCache
mag:_AsnEncodedData_get_Oid_m402887164
bOa:__ZN12MeshRenderer17MainThreadCleanupEv
SIj:__ZN6il2cpp2vmL10InitLockedEP11Il2CppClassRKNS_2os12FastAutoLockE
n7a:__ZN22CreateGpuProgramOutput12CreateParamsEv
_z:__ZN10ObjectPoolIN4FMOD7ChannelENS0_8ChannelIEE7GetFreeEi
Ns:__ZL62__ManagedRegistrationHelperFunction_AnimatorOverrideControllerPv
l7h:_ReadOnlyCollection_1_System_Collections_IList_Insert_m177536056_gshared
JJd:_FontData_get_font_m2720086288
i6e:_InternalEnumerator_1_System_Collections_IEnumerator_get_Current_m548105685_gshared
Nzb:__ZNK14GfxContextGLES13GetDefaultFBOEv
oJi:__Z99RuntimeInvoker_Void_t1185182177_UILineInfoU5BU5DU26_t2468919161_Int32_t2950945753_Int32_t2950945753PFvvEPK10MethodInfoPvPS4_
tLg:_Byte_System_IConvertible_ToType_m2251112646
Mrc:__Z55Register_UnityEngine_MonoBehaviour_StopCoroutineManagedv
pDi:__Z81RuntimeInvoker_Char_t3634460470_RuntimeObject_Int32_t2950945753_Int16_t2552820387PFvvEPK10MethodInfoPvPS4_
hdh:_DateTime_get_Hour_m4153505178_AdjustorThunk
ivj:_AudioExtensionManager_WriteExtensionProperties_m3028464154
Hwg:_Evidence_Equals_m1478353107
_gj:_CostDelegate__ctor_m4027655829
Knc:__Z13GetImagePixelI10ColorRGBAfET_PKhii13TextureFormat15TextureWrapModeS5_ii
YXi:_List_1_System_Collections_IList_set_Item_m1842844683_gshared
yji:_ObjectPool_1__ctor_m2535233435_gshared
bii:_EventFunction_1__ctor_m4292798223_gshared
L3j:__ZN6il2cpp2vm6Thread49CheckCurrentThreadForInterruptAndThrowIfNecessaryEv
A7g:_Convert_ToChar_m3757390865
ina:__ZNSt3__23mapIN9ShaderLab16FastPropertyNameEN18UnityPropertySheet11UnityTexEnvENS_4lessIS2_EENS_9allocatorINS_4pairIKS2_S4_EEEEEixERS9_
Pvb:__ZNK13TranslateGLES25GetTextureTargetDimensionEj
kWe:_RankException__ctor_m3453633632
Oai:_Comparison_1__ctor_m533218197_gshared
uJi:__Z96RuntimeInvoker_Void_t1185182177_Vector3U5BU5DU26_t3038522815_Int32_t2950945753_Int32_t2950945753PFvvEPK10MethodInfoPvPS4_
l4h:_ReadOnlyCollection_1_System_Collections_IList_Remove_m1842121503_gshared
f1g:_File_OpenRead_m2936789020
bS:__ZN9Scripting12LogExceptionE21ScriptingExceptionPtriPKcb
Bzi:__Z94RuntimeInvoker_Void_t1185182177_RuntimeObject_PlayableGraph_t3515989261_RuntimeObject_IntPtr_tPFvvEPK10MethodInfoPvPS4_
Ni:_emscripten_glVertexAttrib4f
adb:__ZN14SafeBinaryRead21TransferSTLStyleArrayI13dynamic_arrayIN4math12int3_storageELj0EEEEvRT_17TransferMetaFlags
xcf:_InternalEnumerator_1_System_Collections_IEnumerator_Reset_m4072625129_AdjustorThunk
l4b:__ZNSt3__26vectorIN20GpuProgramParameters14ConstantBufferENS_9allocatorIS2_EEE8__appendEj
gdg:_X509CertificateCollection_AddRange_m3683116910
j9e:_InternalEnumerator_1_Dispose_m1837758743_AdjustorThunk
PGj:_CustomEventData_t317522481_marshal_pinvoke_cleanup
G6b:__Z15tessGetElementsP14TESStesselator
$Mb:__ZN11HaloManager21ReleaseGeometryJobMemEP25DynamicVBOGeometryJobData
W0g:_DirectoryNotFoundException__ctor_m1689636868
LCi:__Z88RuntimeInvoker_RuntimeObject_RuntimeObject_SByte_t1669577662_RuntimeObject_RuntimeObjectPFvvEPK10MethodInfoPvPS4_
G4h:_ReadOnlyCollection_1_System_Collections_Generic_IListU3CTU3E_get_Item_m978644313_gshared
U$h:_Collection_1_get_Item_m2253972692_gshared
YNd:_RefEmitPermissionSet_t484390987_marshal_pinvoke_cleanup
UXe:_CustomAttributeTypedArgument_Equals_m2261980307
z4a:__ZN9GfxDevice18SetGlobalDepthBiasEff
PSj:__ZN6il2cpp6icalls8mscorlib6System8MonoType12get_AssemblyEP20Il2CppReflectionType
S2g:_IsolatedStorageException__ctor_m3386787868
_Od:_TypeBuilder_MakeGenericType_m2799607032
Gfg:_RepeatContext_get_Start_m1076992038
M9h:_ReadOnlyCollection_1_IndexOf_m3669095250_gshared
$i:_emscripten_glGetPointerv
KXi:_List_1_System_Collections_Generic_IEnumerableU3CTU3E_GetEnumerator_m3687886202_gshared
iRi:_Dictionary_2_Do_CopyTo_TisKeyValuePair_2_t3842366416_TisRuntimeObject_m1564656153_gshared
Odc:__Z14BezierExtractUfff
etb:__Z26ApplyMaterialPassWithCacheRK18SharedMaterialDataR17ShaderPassContextP6ShaderPN9ShaderLab4PassEibPKNS6_10GrabPassesEPNS6_11SubProgramsEPK22DeviceRenderStateBlock
eui:__Z55RuntimeInvoker_DateTime_t3738529785_TimeSpan_t881159249PFvvEPK10MethodInfoPvPS4_
ooe:__ZL81Camera_t4157153871_CustomAttributesCacheGenerator_Camera_RaycastTry2D_m2460696262P21CustomAttributesCache
ETe:_MulticastDelegate_KPM_m22863605
Q9e:_InternalEnumerator_1_get_Current_m1897120917_AdjustorThunk
bTe:_MonoType_ReorderParamArrayArguments_m2458683451
gNf:_FormatterConverter_ToInt16_m4282804414
Ori:__Z81RuntimeInvoker_Void_t1185182177_Int64_t3736567304_RuntimeObject_Int64_t3736567304PFvvEPK10MethodInfoPvPS4_
DDd:_StandaloneInputModule_ProcessTouchPress_m4019232747
b1g:_FileStream__ctor_m3151488352
rJg:_Array_swap_m547389985
yEa:__ZN8Renderer23VirtualRedirectTransferER14SafeBinaryRead
mZh:_UInt32_ToString_m2420423038
ZUi:_List_1_System_Collections_IList_Add_m634558835_gshared
F9h:_ReadOnlyCollection_1_System_Collections_IList_get_IsFixedSize_m1923250479_gshared
F1g:_FileStream_get_Length_m426703983
Hmc:__Z13RegisterClassI10TagManagerEvPKc
Lmf:_Enumerator__ctor_m1558933899_AdjustorThunk
eke:__ZL88BigInteger_t2902905090_CustomAttributesCacheGenerator_BigInteger_op_Implicit_m3414367033P21CustomAttributesCache
aJj:__ZN6il2cpp2vmL15GetBitmapNoInitEP11Il2CppClassPjRjj
qAj:__ZL25UnresolvedVirtualCall_215P12Il2CppObjectS0_iPK10MethodInfo
a0i:_List_1_Remove_m2092085040_gshared
_Zb:__ZL13MotionHandleriPK27EmscriptenDeviceMotionEventPv
xy:__ZN12AudioManager5ResetEv
Xki:__Z67RuntimeInvoker_Boolean_t97287965_RuntimeObject_SByteU26_t3619038962PFvvEPK10MethodInfoPvPS4_
Kne:__ZL68DisallowMultipleComponent_t1422053217_CustomAttributesCacheGeneratorP21CustomAttributesCache
y4h:_ReadOnlyCollection_1_get_Count_m1336304542_gshared
POe:__ZL111LayoutUtility_t2745813735_CustomAttributesCacheGenerator_LayoutUtility_U3CGetPreferredHeightU3Em__6_m3049688934P21CustomAttributesCache
N2:__ZN6prcoreL17RemapGenericFloatI17TexFormatRGBAHalf15TexFormatRGHalfEEvPKNS_9InnerInfoE
w_j:__ZNK15dense_hashtableINSt3__24pairIK10KeyWrapperIPK14Il2CppAssemblyEPK22Il2CppMonoAssemblyNameEES6_N6il2cpp5utils11PointerHashIS4_EEN14dense_hash_mapIS6_SA_SF_NS6_14EqualsComparerINS0_8equal_toIS5_EEEENS0_9allocatorISB_EEE9SelectKeyESK_SM_E10test_emptyEj
_hk:__ZN6il2cpp6icalls8mscorlib6System11Environment20GetWindowsFolderPathEi
P6g:_Convert_ToBoolean_m2833752130
Ctj:_Toggle_GraphicUpdateComplete_m2285510719
M7c:_UNITY_FT_RoundFix
lI:__ZN23CloudWebServicesManager23VirtualRedirectTransferER17RemapPPtrTransfer
vHc:__ZN9Scripting11UnityEngine19PhysicsJobOptions2D12CleanupProxyEv
Fok:_GC_is_heap_ptr
rqg:_HandshakeMessage_EncodeMessage_m3919107786
rwh:_ASN1_DecodeTLV_m1200977460
Ruf:_UnityEventBase_PrepareInvoke_m1785382128
xPd:__ZN23InterfaceActionInvoker2IP12Il2CppObjectP20Delegate_t1188392813E6InvokeEjP11Il2CppClassS1_S1_S3_
dOa:__ZNK12MeshRenderer22GetTypeVirtualInternalEv
OMg:_Char_System_IConvertible_ToUInt32_m3901815580
$0f:_Scrollbar_set_onValueChanged_m346467699
mui:__Z157RuntimeInvoker_Int32_t2950945753_RuntimeObject_Int32_t2950945753_Int32_t2950945753_Int32_t2950945753_SByte_t1669577662_SByte_t1669577662_Int32U26_t1369213839PFvvEPK10MethodInfoPvPS4_
cji:_ListPool_1_Release_m957266927_gshared
ice:__ZL105ConfigHandler_t4192437216_CustomAttributesCacheGenerator_ConfigHandler_ValidatePath_m3895556516____paths1P21CustomAttributesCache
vB:__ZN4FMOD6System17setSoftwareFormatEi17FMOD_SOUND_FORMATii18FMOD_DSP_RESAMPLER
Awa:__ZN14SafeBinaryRead19TransferSTLStyleMapINSt3__23mapIN4core12basic_stringIcNS3_20StringStorageDefaultIcEEEES7_NS1_4lessIS7_EE13stl_allocatorINS1_4pairIKS7_S7_EEL18MemLabelIdentifier1ELi16EEEEEEvRT_17TransferMetaFlags
vs:__ZL49__ManagedRegistrationHelperFunction_AimConstraintPv
Umd:__ZN2UI6Canvas27UpdateEventIndexesRecursiveERi
lJ:__ZN11UnityEngine15CloudWebService16SessionContainer21PrepareDataErrorEventERN4core12basic_stringIcNS2_20StringStorageDefaultIcEEEE
TAd:_ExecuteEvents_get_pointerUpHandler_m3515704212
INg:_ArrayList_set_Item_m2003485935
Jik:__ZNSt3__218uninitialized_copyIPNS_4pairIK10KeyWrapperIPK19Il2CppGenericMethodEP10MethodInfoEESB_EET0_T_SD_SC_
fVd:_SatelliteContractVersionAttribute__ctor_m3630863995
iie:__ZL79Convert_t2465617642_CustomAttributesCacheGenerator_Convert_ToUInt64_m3102114524P21CustomAttributesCache
MCd:_MouseButtonEventData_PressedThisFrame_m1060658845
qyd:_AxisEventData_get_moveVector_m270528189
Hib:__Z19TransferField_ArrayI19StreamedBinaryWriteILb0EE27Converter_SimpleNativeClassI8GUIStyleEEvRK23StaticTransferFieldInfoR31RuntimeSerializationCommandInfoRT0_
oJb:__Z27SetClippingPlaneShaderPropsR9GfxDevice
F4h:_ReadOnlyCollection_1_System_Collections_Generic_IListU3CTU3E_RemoveAt_m3969985996_gshared
zqj:_SymmetricTransform_CFB_m1755507252
wpa:__Z28BuildSingleStreamChannelInfoP11ChannelInfo17ShaderChannelMaskS1_
VIa:__ZNK13ScreenManager12GetIsFocusedEv
Mzf:_PlayerConnection_get_isConnected_m911966057
GLd:_GraphicRegistry_GetGraphicsForCanvas_m4219276355
H2g:__ZN23InterfaceActionInvoker3IP22ByteU5BU5D_t4116647657iiE6InvokeEjP11Il2CppClassP12Il2CppObjectS1_ii
YTe:_NumberFormatter_FastToDecHex_m699829267
dij:_PatternCompiler_MakeFlags_m1977119795
uCc:__Z35Transfer_Blittable_FixedBufferFieldI8JSONReadiEvRK29SerializationCommandArgumentsR31RuntimeSerializationCommandInfo
Dxa:__ZN15SerializeTraitsIN9ShaderLab16FastPropertyNameEE8TransferI19StreamedBinaryWriteILb0EEEEvRS1_RT_
Rce:__ZL59StreamingContext_t3711869237_CustomAttributesCacheGeneratorP21CustomAttributesCache
XQj:__ZNSt3__213__vector_baseIN6il2cpp2os19SocketHandleWrapperENS_9allocatorIS3_EEED2Ev
z4d:__ZL48_Type_t3588564251_CustomAttributesCacheGeneratorP21CustomAttributesCache
yKe:__ZL81FontUpdateTracker_t1839077620_CustomAttributesCacheGenerator_U3CU3Ef__mgU24cache0P21CustomAttributesCache
fFa:__ZN28ReflectionProbeAnchorManager18RemoveCachedAnchorERK4PPtrI9TransformE
dc:invoke_viiffi
Q6d:__ZL103RegionInfo_t1090270226_CustomAttributesCacheGenerator_RegionInfo_t1090270226____NativeName_PropertyInfoP21CustomAttributesCache
KXb:__ZN13sorted_vectorINSt3__24pairIN4core12basic_stringIcNS2_20StringStorageDefaultIcEEEEPK17MessageIdentifierEEN10vector_mapIS6_S9_NS0_4lessIS6_EENS0_9allocatorISA_EEE13value_compareESF_E10insert_oneERKSA_
_Sh:_Monitor_Monitor_wait_m3706677354
XI:__ZNSt3__26__treeINS_12__value_typeIN4core12basic_stringIcNS2_20StringStorageDefaultIcEEEEjEENS_19__map_value_compareIS6_S7_NS_4lessIS6_EELb1EEE13stl_allocatorIS7_L18MemLabelIdentifier88ELi16EEE4findIS6_EENS_15__tree_iteratorIS7_PNS_11__tree_nodeIS7_PvEEiEERKT_
HFc:__ZN5Unity9rapidjson13GenericReaderINS0_4UTF8IcEES3_13JSONAllocatorE10ParseFalseILj0ENS0_19GenericStringStreamIS3_EENS0_15GenericDocumentIS3_S4_S4_EEEEvRT0_RT1_
Jna:__ZL13MeshExtractorPv16VertexInputMasksiR11MeshBuffersR16DrawBuffersRangeRiS5_
xAa:__ZNK12CubemapArray20GetRuntimeMemorySizeEv
uVh:_TimeSpan_FromHours_m1109641064
V1b:__Z14resize_trimmedINSt3__26vectorIN9ShaderLab18SerializedPropertyENS0_9allocatorIS3_EEEEEvRT_j
ydb:__Z18Transfer_BlittableI17RemapPPtrTransferLb0EN4math12int3_storageEEvRK29SerializationCommandArgumentsR31RuntimeSerializationCommandInfo
mne:__ZL92StaticAccessorAttribute_t2432663902_CustomAttributesCacheGenerator_U3CNameU3Ek__BackingFieldP21CustomAttributesCache
fbf:_InternalEnumerator_1__ctor_m4124630986_gshared
zOj:__ZN6il2cpp2vm13MetadataCache38GetMethodInfoFromMethodDefinitionIndexEi
Ezd:_EventSystem_set_current_m38955169
zrc:__Z39MonoBehaviour_CUSTOM_GetScriptClassNameP12Il2CppObject
FMe:__ZL53Selectable_t3250028441_CustomAttributesCacheGeneratorP21CustomAttributesCache
ehj:_CostDelegate_EndInvoke_m2797921932
HHa:__ZN10VertexData8TransferI24GenerateTypeTreeTransferEEvRT_
d7g:_Double_IsInfinity_m820013146
f9g:__ZN21InterfaceFuncInvoker1I19Decimal_t2948259380P12Il2CppObjectE6InvokeEjP11Il2CppClassS2_S2_
oik:__ZN13Il2CppHashMapIPK19Il2CppGenericMethodP10MethodInfoN6il2cpp8metadata23Il2CppGenericMethodHashENS6_26Il2CppGenericMethodCompareENSt3__29allocatorINS9_4pairIK10KeyWrapperIS2_ES4_EEEEEC2EjRKS7_RKS8_
NUi:_List_1_TrimExcess_m440552561_gshared
LFf:_Screen_get_dpi_m495672463
URh:_UTF8Encoding_InternalGetByteCount_m2120178851
ene:__ZL130NativeTypeAttribute_t2250406315_CustomAttributesCacheGenerator_NativeTypeAttribute_set_IntermediateScriptingStructName_m3613994509P21CustomAttributesCache
hSb:__ZL10CullLightsRK22SceneCullingParametersR11CullResults
_bh:_Convert_ToUInt64_m3170916409
Xxd:__ZN9Scripting11UnityEngine12Experimental2XR14ReferencePoint12CleanupProxyEv
m_g:_Int64_System_IConvertible_ToInt16_m4062196970_AdjustorThunk
yTe:_MonoType_GetGenericTypeDefinition_m3201894896
lcc:__Z40GetTemporaryCachePathApplicationSpecificv
$2a:__ZN9GfxDevice16EndAsyncJobFrameEv
xBi:__Z99RuntimeInvoker_Int32_t2950945753_Ray_t3785851493_RuntimeObject_Single_t1397266774_Int32_t2950945753PFvvEPK10MethodInfoPvPS4_
UYj:__ZNK15dense_hashtableINSt3__24pairIK10KeyWrapperINS1_IPK12PropertyInfoP11Il2CppClassEEEjEES9_17ReflectionMapHashIS8_EN14dense_hash_mapIS9_jSD_NS9_14EqualsComparerINS0_8equal_toIS8_EEEENS0_9allocatorISB_EEE9SelectKeyESI_SK_E10test_emptyERK30dense_hashtable_const_iteratorISB_S9_SD_SM_SI_SK_E
xad:_UNITY_tt_face_load_hhea
xZe:_DerivedType_get_Assembly_m2979298667
Ifk:__ZN15dense_hashtableINSt3__24pairIK10KeyWrapperIPcES3_EES4_N6il2cpp5utils15PassThroughHashIS3_EEN14dense_hash_mapIS4_S3_SA_NS4_14EqualsComparerINS0_8equal_toIS3_EEEENS0_9allocatorIS6_EEE9SelectKeyESF_SH_E16reset_thresholdsEv
_k:___syscall3
Zpe:__ZL95MonoBehaviour_t3962482529_CustomAttributesCacheGenerator_MonoBehaviour_CancelInvoke_m3252264575P21CustomAttributesCache
nBi:__Z135RuntimeInvoker_RaycastHit2D_t2279581989_Vector2_t2156229523_Vector2_t2156229523_Single_t1397266774_Int32_t2950945753_Single_t1397266774PFvvEPK10MethodInfoPvPS4_
bl:___syscall6
e4a:__ZN9GfxDevice15GetNextCPUFenceEv
dl:___syscall4
gZe:_DerivedType_GetMethods_m3787404845
s0d:_ReturnMessage__ctor_m2352989078
X1a:__ZNSt3__26__treeINS_12__value_typeIN4core12basic_stringIcNS2_20StringStorageDefaultIcEEEEPN16MemoryFileSystem4NodeEEENS_19__map_value_compareIS6_SA_NS_4lessIS6_EELb1EEE13stl_allocatorISA_L18MemLabelIdentifier55ELi16EEE7destroyEPNS_11__tree_nodeISA_PvEE
DAi:__Z67RuntimeInvoker_Boolean_t97287965_TextGenerationSettings_t1351628751PFvvEPK10MethodInfoPvPS4_
eek:__ZN6il2cpp2vm3RCW14QueryInterfaceILb1EEEP14Il2CppIUnknownP15Il2CppComObjectRK10Il2CppGuid
Zng:_TlsServerCertificateRequest__ctor_m1334974076
iGc:__ZN27PerformanceReportingManager23VirtualRedirectTransferER14SafeBinaryRead
Y9g:_Convert_ToInt32_m1613163543
VJi:__Z52RuntimeInvoker_TimeSpan_t881159249_Int32_t2950945753PFvvEPK10MethodInfoPvPS4_
U8:__ZN9Scripting11UnityEngine9Playables8Playable12CleanupProxyEv
d4h:_ReadOnlyCollection_1_System_Collections_ICollection_CopyTo_m3127175806_gshared
sl:_emscripten_glShaderBinary
fxg:_String_op_Inequality_m215368492
yK:__ZN15DownloadHandler19OnFinishReceiveDataEv
tYh:_UInt16_ToString_m760649087
WZa:__ZNK20LocalFileSystemPosix6ExistsERK13FileEntryData
Qui:__Z21RuntimeInvoker_Guid_tPFvvEPK10MethodInfoPvPS4_
Ovi:__Z46RuntimeInvoker_CipherAlgorithmType_t1174400495PFvvEPK10MethodInfoPvPS4_
Irf:_Camera_GetAllCameras_m668492922
PHc:__ZN7Joint2D10DeactivateE19DeactivateOperation
akd:__Z58Register_UnityEngine_Canvas_GetETC1SupportedCanvasMaterialv
KVh:_TimeSpan_op_Inequality_m2467851530
klb:__ZN17AnimationCurveTplIfE8TransferI18StreamedBinaryReadILb1EEEEvRT_
a$d:__ZN28GenericInterfaceFuncInvoker1IP12Il2CppObjectP23HeaderU5BU5D_t204812840E6InvokeEPK10MethodInfoS1_S3_
jQi:_Array_Sort_TisUIVertex_t4057497605_m3996333845_gshared
Gog:_Context_get_ReceivedConnectionEnd_m4011125537
Uug:_ToBase64Transform_get_CanReuseTransform_m702204640
dEe:__ZL73ContactFilter2D_t3805203441_CustomAttributesCacheGenerator_maxNormalAngleP21CustomAttributesCache
Pyi:__Z53RuntimeInvoker_PropertyName_t3749835189_RuntimeObjectPFvvEPK10MethodInfoPvPS4_
LJg:_Swapper_BeginInvoke_m1688449973
vtf:_Display_get_renderingWidth_m1970428952
Xrj:_U3CTimedTriggerU3Ec__Iterator0_MoveNext_m825792986
Qga:__ZN16LevelGameManager23VirtualRedirectTransferER19StreamedBinaryWriteILb0EE
Svi:__Z81RuntimeInvoker_Void_t1185182177_RuntimeObject_Int32_t2950945753_Int64_t3736567304PFvvEPK10MethodInfoPvPS4_
AHa:__Z32TransferEnumWithNameForceIntSizeI14SafeBinaryRead16GfxPrimitiveTypeEvRT_RT0_PKc17TransferMetaFlags
Ov:__ZNSt3__26vectorIN4core12basic_stringIcNS1_20StringStorageDefaultIcEEEE13stl_allocatorIS5_L18MemLabelIdentifier1ELi16EEE21__push_back_slow_pathIS5_EEvOT_
Rpe:__ZL92Mesh_t3648964284_CustomAttributesCacheGenerator_Mesh_SetTriangles_m2205169959____baseVertex3P21CustomAttributesCache
BHi:__Z52RuntimeInvoker_Int32_t2950945753_HitInfo_t3229609740PFvvEPK10MethodInfoPvPS4_
qsi:__Z86RuntimeInvoker_Boolean_t97287965_Int16_t2552820387_Int16_t2552820387_Int32_t2950945753PFvvEPK10MethodInfoPvPS4_
Hge:__ZL80Convert_t2465617642_CustomAttributesCacheGenerator_Convert_ToBoolean_m2807110707P21CustomAttributesCache
G2d:__ZL72Enum_t4135868527_CustomAttributesCacheGenerator_Enum_GetName_m2151614395P21CustomAttributesCache
vii:_IndexedSet_1_IndexOf_m241693686_gshared
brd:__ZN11UnityEngine15PlatformWrapper30GetGraphicsDriverLibraryStringEv
NPf:_RuntimeMethodHandle_Equals_m3301340296_AdjustorThunk
KZh:_UInt64_System_IConvertible_ToSingle_m925613075_AdjustorThunk
dxj:__ZL24UnresolvedVirtualCall_40P12Il2CppObjectS0_PK10MethodInfo
xji:_ListPool_1__cctor_m704263611_gshared
Hmb:__Z18Transfer_BlittableI18StreamedBinaryReadILb0EELb0E4AABBEvRK29SerializationCommandArgumentsR31RuntimeSerializationCommandInfo
wSa:__ZN24GenerateTypeTreeTransfer19TransferSTLStyleMapINSt3__28multimapIN4core12basic_stringIcNS3_20StringStorageDefaultIcEEEE4PPtrI6ObjectENS1_4lessIS7_EE13stl_allocatorINS1_4pairIKS7_SA_EEL18MemLabelIdentifier52ELi16EEEEEEvRT_17TransferMetaFlags
au:__ZN16MecanimAnimation24DeleteAnimatedPropertiesERP26IAnimatedPropertyEvaluator
nDj:_CanvasRenderer_SetMaterial_m824577244
cIb:__Z14DrawGUITextureRK5RectTIfEP7Texture11ColorRGBA32P8Materiali
Kse:__ZL84RectOffset_t1369453676_CustomAttributesCacheGenerator_RectOffset_Cleanup_m2552807639P21CustomAttributesCache
B4h:_ReadOnlyCollection_1_System_Collections_Generic_ICollectionU3CTU3E_Add_m2686599243_gshared
gIf:_Transform_IsChildOf_m224006092
gNc:__ZNK11b2EdgeShape7RayCastEP15b2RayCastOutputRK14b2RayCastInputRK11b2Transformi
dCc:__ZN9JSONWrite8TransferI4AABBEEvRT_PKc17TransferMetaFlags
Y$b:__ZN15dense_hashtableINSt3__24pairIKiN4core17string_with_labelILi1EEEEEi18SInt32HashFunctionN14dense_hash_mapIiS5_S7_NS0_8equal_toIiEE13stl_allocatorIS6_L18MemLabelIdentifier1ELi16EEE9SelectKeyESA_SD_E12expand_arrayEjN21dense_hash_map_traits17integral_constantIbLb0EEE
lOh:_List_1_Clear_m2154023298_gshared
Nec:__Z13RegisterClassI15QualitySettingsEvPKc
wxj:__ZL24UnresolvedVirtualCall_59P12Il2CppObjectiPK10MethodInfo
lyd:_AbstractEventData_get_used_m2991176710
AEi:__Z94RuntimeInvoker_Void_t1185182177_ObjectU5BU5DU26_t712384779_Int32_t2950945753_Int32_t2950945753PFvvEPK10MethodInfoPvPS4_
Mr:__ZN13ConstraintJob17ConstraintJobDataD2Ev
TTc:__ZN10Collider2D13AwakeFromLoadE17AwakeFromLoadMode
Uqj:_Aes__ctor_m178909601
ZAa:__ZNK9Texture2D20GetRuntimeMemorySizeEv
v$d:_MethodCall_get_MethodSignature_m2407904958
GFc:__ZN5Unity9rapidjson13GenericReaderINS0_4UTF8IcEES3_13JSONAllocatorE9ParseTrueILj0ENS0_19GenericStringStreamIS3_EENS0_15GenericDocumentIS3_S4_S4_EEEEvRT0_RT1_
YZi:_List_1_Clear_m2003943277_gshared
Bm:_emscripten_glUniform2iv
d5:__ZL46__ManagedRegistrationHelperFunction_ColorGamutPv
MQh:_UnicodeEncoding_CopyChars_m785272451
GIh:_Enumerator_Dispose_m1204547613_AdjustorThunk
G3c:_UNITY_FT_Outline_Transform
A8b:__Z60Register_UnityEngine_Sprites_DataUtility_Internal_GetMinSizev
Yme:__ZL118NativeMethodAttribute_t4187428193_CustomAttributesCacheGenerator_NativeMethodAttribute_set_HasExplicitThis_m2961870915P21CustomAttributesCache
tJj:__ZN6il2cpp2vm5Class10GetMethodsEP11Il2CppClassPPv
qvd:__ZNK25UnityWebRequestJavaScript17GetUploadProgressEv
ONb:__Z30AddDefaultStreamsToMeshBuffersR9GfxDeviceR11MeshBuffersRK16DrawBuffersRange17ShaderChannelMaskS6_
sWi:_List_1_GetEnumerator_m1430071802_gshared
dCb:__ZN7ApiGLES17DeleteFramebufferERN2gl6HandleILNS0_10ObjectTypeE9EEES3_
vEb:__ZN15UniformTFMethod13MapBoneBufferEj
Shd:__ZN2UI14CanvasRendererD2Ev
LSi:_Array_InternalArray__get_Item_TisParameterModifier_t1461694466_m29553316_gshared
E_g:_Int64_CompareTo_m1928360444_AdjustorThunk
D$j:__ZN15dense_hashtableINSt3__24pairIK10KeyWrapperINS1_IPK9EventInfoP11Il2CppClassEEEjEES9_17ReflectionMapHashIS8_EN14dense_hash_mapIS9_jSD_NS9_14EqualsComparerINS0_8equal_toIS8_EEEENS0_9allocatorISB_EEE9SelectKeyESI_SK_E15set_deleted_keyERKSB_
Wrb:__Z9SetupArgviPPKc
rah:_Convert_ToInt64_m2075031821
Wse:__ZL111ScriptableObject_t2528358522_CustomAttributesCacheGenerator_ScriptableObject_CreateScriptableObject_m3504774547P21CustomAttributesCache
F7e:_InternalEnumerator_1__ctor_m236665673_gshared
_Lf:_RemotingException__ctor_m1015537352
Trj:_AnalyticsEventTracker_OnDisable_m1553012800
tGk:_glTexParameteri__wrapper
Rda:__ZN12ImmediatePtrI10GameObjectE8TransferI19StreamedBinaryWriteILb0EEEEvRT_
BAa:__ZN12CubemapArray23VirtualRedirectTransferER24GenerateTypeTreeTransfer
TW:__ZN12FileAccessor4OpenER15FileSystemEntry14FilePermission16FileAutoBehavior
Aqa:__ZNSt3__26vectorI4PPtrI6ShaderE13stl_allocatorIS3_L18MemLabelIdentifier53ELi16EEE8__appendEj
Phk:__ZN6il2cpp2os9Directory6CreateERKNSt3__212basic_stringIcNS2_11char_traitsIcEENS2_9allocatorIcEEEEPi
Lqa:__ZN4PPtrI6ShaderE8TransferI18StreamedBinaryReadILb0EEEEvRT_
Vha:__ZN23TransformChangeDispatch32QueueTransformChangeIfHasChangedERK15TransformAccess
D$a:__ZN15ArchiveReadFile5WriteEyPKvPy
sWe:_Assembly_get_FullName_m293988418
l_c:__ZN22WorldContactListener2D8PreSolveEP9b2ContactPK10b2Manifold
rqb:__ZN14SafeBinaryRead20OverrideRootTypeNameEPKc
X4c:__ZNSt3__26__treeINS_12__value_typeIN20TextRenderingPrivate7FontRefENS2_6OSFontEEENS_19__map_value_compareIS3_S5_NS_4lessIS3_EELb1EEENS_9allocatorIS5_EEE12__find_equalIS3_EERPNS_16__tree_node_baseIPvEESI_RKT_
EGc:__ZN27PerformanceReportingManager18ActiveSceneChangedEPS_P10UnitySceneS2_
B:tempValue
Clb:__ZN18StreamedBinaryReadILb1EE21TransferSTLStyleArrayI13dynamic_arrayI8Vector4fLj0EEEEvRT_17TransferMetaFlags
mZb:__Z29StdTemplateConversionFunctionIaiEbPvR14SafeBinaryRead
usk:__ZN6il2cpp8metadata24Il2CppGenericContextHash4HashEPK20Il2CppGenericContext
Y7e:_InternalEnumerator_1_get_Current_m356936020_AdjustorThunk
MIb:__ZN6Camera21RenderODSWorldTextureERK11CullResultsRK19SharedRendererSceneR17ShaderPassContextNS_10RenderFlagE
TZg:_Int32_ToString_m141394615_AdjustorThunk
ES:__Z29scripting_class_from_fullnamePKcS0_S0_
A0g:_Directory_GetCurrentDirectory_m219218555
fGg:_SmallXmlParser_UnexpectedEndError_m1914362401
wce:__ZL61FormatterTypeStyle_t3400733584_CustomAttributesCacheGeneratorP21CustomAttributesCache
P6a:__ZN14DelayedDeletorI15dense_hashtableINSt3__24pairIK9TextureIDiEES3_14GfxGenericHashIS3_EN14GfxDoubleCacheIS3_iS7_NS1_8equal_toIS3_EEN31GfxDoubleCacheConcurrencyPolicy11LocklessGetE42GfxDoubleCacheDefaultEmptyDeletedGeneratorIS3_EE9SelectKeyESA_13stl_allocatorIS5_L18MemLabelIdentifier24ELi16EEEEclEv
rad:_UNITY_FT_Stream_ReadAt
Vvj:_AudioSampleProvider_Dispose_m1993565764
JUh:_TimeSpan__ctor_m1896986612_AdjustorThunk
FFh:_EqualityComparer_1_System_Collections_IEqualityComparer_Equals_m1907027006_gshared
hEg:_ArgumentException__ctor_m1216717135
TCf:_Ray_ToString_m1732834890_AdjustorThunk
TBc:__ZN9JSONWrite8TransferI13dynamic_arrayI5RectTIfELj0EEEEvRT_PKc17TransferMetaFlags
OXi:_List_1_System_Collections_IList_Contains_m3860993176_gshared
nG:__ZN11AudioModule22CreateAudioClipFromWWWEP10IWWWStreamPKcbbi
Uhc:__ZN9Texture2DC2E10MemLabelId18ObjectCreationMode
nvb:__Z17DebugStringToFileIA59_cEvRKT_iPKci15LogMessageFlagsiiPFvRK11CppLogEntryE
AOf:_ObjectRecord_get_IsUnsolvedObjectReference_m1163921033
xYh:_UInt32_System_IConvertible_ToBoolean_m1763673183_AdjustorThunk
Luf:_UnityEvent_AddListener_m2276267359
sHa:__ZN13dynamic_arrayI11ChannelInfoLj0EE18resize_initializedEj12ResizePolicy
hyi:__Z35RuntimeInvoker_RangeInt_t2094684618PFvvEPK10MethodInfoPvPS4_
eta:__ZN6prcoreL11inner_clearILj4EEEvPhjjj
s$d:_MethodCall_get_Args_m148309537
W$d:_DictionaryEnumerator_get_Value_m2166220004
zHj:_NativeTypeAttribute__ctor_m1677513894
Huj:_PCMReaderCallback_BeginInvoke_m3391809637
uN:__GLOBAL__sub_I_Runtime_SceneManager_0_cpp
Qmi:__Z74RuntimeInvoker_Void_t1185182177_RuntimeObject_StreamingContext_t3711869237PFvvEPK10MethodInfoPvPS4_
Znk:_GC_initialize_offsets
X_:__ZNK8Playable6HandleEv
jVf:_SetPropertyUtility_SetColor_m2229203028
Xxk:___cxa_guard_abort
TU:__ZN14MessageHandler28MessageIDToMessageIdentifierEi
kIa:__ZNK11SpriteAtlas20GetRuntimeRenderDataEPK6Sprite
q0g:_FileSystemInfo__ctor_m3035148496
mog:_Context_get_SessionId_m1086671147
VYc:__Z13RegisterClassI17CapsuleCollider2DEvPKc
kZg:_Int32_System_IConvertible_ToDecimal_m2190376994_AdjustorThunk
kJh:_KeyValuePair_2_set_Key_m2121548577_AdjustorThunk
uKi:__Z46RuntimeInvoker_RefEmitPermissionSet_t484390987PFvvEPK10MethodInfoPvPS4_
vfe:__ZL88UTF7Encoding_t2644108479_CustomAttributesCacheGenerator_UTF7Encoding_GetBytes_m521917477P21CustomAttributesCache
b7:__ZL43__ManagedRegistrationHelperFunction_Vector4Pv
C$g:_InvalidOperationException__ctor_m2734335978
ew:__Z51Register_UnityEngine_Animator_get_hasBoundPlayablesv
r6i:_Collection_1_CopyTo_m3142835220_gshared
Id:emscriptenWebGLGetUniform
Bo:FUNCTION_TABLE_iiiiiiiiiii
eoj:_GUI_CallWindowDelegate_m3309453386
K8c:_cff_set_mm_blend
yFb:__ZN19GfxThreadableDevice15OnDeviceCreatedEb
$Tb:__ZL10CleanUpJobP20CullingGroupsJobData
MNb:__Z20IsRunningNativeTestsv
m0g:_DirectoryInfo_get_Exists_m3142069876
JKa:__ZN10MeshFilter23VirtualRedirectTransferER24GenerateTypeTreeTransfer
Oec:__Z13RegisterClassI16LightmapSettingsEvPKc
VHb:__ZN13RenderManager15BatchModeUpdateEv
jdi:_Predicate_1__ctor_m327447107_gshared
vcg:_X509Chain_get_CertificateAuthorities_m804805415
rOb:__Z14SetupLightmapsRK8Vector4fS1_R17ShaderPassContext
WDe:__ZL71ContactFilter2D_t3805203441_CustomAttributesCacheGenerator_useLayerMaskP21CustomAttributesCache
ZEf:_Vector2_get_one_m738793577
GVc:__ZN10ClipperLib7Clipper15SetWindingCountERNS_5TEdgeE
Onc:__ZNK4Mesh14GetIndexFormatEv
fpd:__ZN9Scripting11UnityEngine9Analytics21AnalyticsSessionState9InitProxyEv
sIh:_GenericEqualityComparer_1__ctor_m4072188982_gshared
tnj:_UriParser_set_DefaultPort_m4007715058
wdk:__ZN14dense_hash_mapI10KeyWrapperIP12Il2CppObjectEN6il2cpp2gc9CachedCCWENS4_5utils11PointerHashIS1_EENS3_14EqualsComparerINSt3__28equal_toIS2_EEEENSB_9allocatorINSB_4pairIKS3_S6_EEEEE13set_empty_keyERSH_
Xsj:_FieldWithTarget__ctor_m583221563
ld:_glVertexAttribIPointer
iQh:_StringBuilder_ToString_m3317489284
p8b:__ZNK6Sprite10GetPaddingE20SpriteRenderDataMode
rlh:_Array_InternalArray__ICollection_Remove_TisUInt32_t2560061978_m733727733_gshared
aRf:_CryptographicException__ctor_m503735289
F_d:_ConstructionCall_get_CallSiteActivationAttributes_m3498917408
Z1g:_Stream_EndRead_m1896469262
gki:__Z93RuntimeInvoker_Boolean_t97287965_Int32_t2950945753_SByte_t1669577662_ExceptionU26_t3600731591PFvvEPK10MethodInfoPvPS4_
vLb:__ZN14qsort_internal5QSortIP15RODataDepthPassi17ROSorterDepthPassEEvT_S4_T0_T1_
abd:_UNITY_ft_glyphslot_alloc_bitmap
x2h:_ReadOnlyCollection_1_System_Collections_IList_Add_m3642938800_gshared
xrg:_RSASslSignatureDeformatter_SetHashAlgorithm_m895570787
bR:__ZL36TransformAccessArray_InitializeClassPv
ugj:_X509CrlEntry__ctor_m4013514048
vMj:__ZN15dense_hashtableI10KeyWrapperIPK17Il2CppGenericInstES4_N6il2cpp8metadata21Il2CppGenericInstHashEN14dense_hash_setIS4_S7_NS4_14EqualsComparerINS6_24Il2CppGenericInstCompareEEENSt3__29allocatorIS4_EEE8IdentityESB_SE_E16reset_thresholdsEv
$xi:__Z87RuntimeInvoker_Color_t2555686324_Color_t2555686324_Color_t2555686324_Single_t1397266774PFvvEPK10MethodInfoPvPS4_
Qfd:_ft_raster1_render
$0h:_Collection_1_System_Collections_IList_get_IsReadOnly_m2288996004_gshared
Ssc:__Z47Register_UnityEngine_Mesh_RecalculateBoundsImplv
m3a:__ZN9GfxDevice27UpdateComputeSkinPoseBufferEP9GfxBufferP12SkinMeshInfo
XLh:_Enumerator_get_Current_m3382684163_AdjustorThunk
D3e:_InternalEnumerator_1_System_Collections_IEnumerator_Reset_m3677481164_AdjustorThunk
Hwk:__ZNKSt3__221__basic_string_commonILb1EE20__throw_length_errorEv
AFh:_EqualityComparer_1_System_Collections_IEqualityComparer_Equals_m245992594_gshared
Zti:__Z52RuntimeInvoker_UInt64_t4134040092_Single_t1397266774PFvvEPK10MethodInfoPvPS4_
cph:_Array_InternalArray__IndexOf_TisParameterModifier_t1461694466_m1227120810_gshared
NCb:__ZN18GfxFramebufferGLES13ReadbackImageER14ImageReferenceiiiiii
Jyc:__ZN5Unity9rapidjson6WriterI16TempBufferWriterNS0_4UTF8IcEES4_13JSONAllocatorE11WriteStringEPKcj
QFe:__ZL95WebRequestUtils_t3541624225_CustomAttributesCacheGenerator_WebRequestUtils_RedirectTo_m55747000P21CustomAttributesCache
m3:__ZN6prcoreL12RemapGenericI17TexFormatARGB888815TexFormatRGB565EEvPKNS_9InnerInfoE
Jz:__ZN4FMOD7Channel19setReverbPropertiesEPK29FMOD_REVERB_CHANNELPROPERTIES
Qsj:_StandardEventPayload_GetParameters_m2672427676
l4g:_StreamReader_Dispose_m156389394
sU:__ZN13MonoBehaviour22GetScriptFullClassNameEv
T2j:_il2cpp_object_get_class
Nug:_SymmetricAlgorithm_get_Padding_m1011382560
Kxc:__ZNSt3__26vectorIN10GUIManager16GUIObjectWrapperENS_9allocatorIS2_EEE21__push_back_slow_pathIS2_EEvOT_
Paj:_RIPEMD160Managed_JJ_m112143231
HKb:__ZN13BatchRendererC2ER15RenderLoopStatsRK15RenderNodeQueuebb
cff:_Comparer_1__ctor_m191896560_gshared
yuh:_PreviousInfo_t2148130204_marshal_pinvoke_back
L1a:__ZNK16MemoryFileSystem9EnumerateEPKcP19dynamic_block_arrayI13FileEntryInfoLj32EEbPPv19FileEnumerationFlag
eqb:__ZN13MonoBehaviour9CallAwakeEv
Usa:__ZN20SphericalHarmonicsL211AddWeightedERKS_f
jni:__Z82RuntimeInvoker_RuntimeObject_Int64_t3736567304_Int64_t3736567304_Int64_t3736567304PFvvEPK10MethodInfoPvPS4_
Leb:__Z19TransferField_ArrayI17RemapPPtrTransfer27Converter_SimpleNativeClassI8GUIStyleEEvRK23StaticTransferFieldInfoR31RuntimeSerializationCommandInfoRT0_
qP:__ZL22StaticInitializeShaderPv
xzc:__ZN9JSONWrite8TransferI10ColorRGBAfEEvRT_PKc17TransferMetaFlags
xud:__ZN11UnityEngine9Analytics22EventLimitResumedEventC2EjRKN4core12basic_stringIcNS2_20StringStorageDefaultIcEEEEb
Kbf:_InternalEnumerator_1__ctor_m3913006324_AdjustorThunk
NU:__Z25scripting_method_get_name18ScriptingMethodPtr
Irg:_SslCipherSuite_ComputeKeys_m661027754
lcf:_InternalEnumerator_1__ctor_m3322594868_gshared
BAf:_Object_set_name_m291480324
Jre:__ZL68UpdateCanvasRectTransform_t1832875547_CustomAttributesCacheGeneratorP21CustomAttributesCache
T6g:_Convert_ToBoolean_m481380807
$fh:_Decimal_Equals_m2486655999
$nk:_GC_exit_check
eXe:_AssemblyName_SetPublicKeyToken_m582470133
Myi:__Z52RuntimeInvoker_Boolean_t97287965_HitInfo_t3229609740PFvvEPK10MethodInfoPvPS4_
HC:__ZNK4PPtrI9AudioClipEcvPS0_Ev
lT:__Z20UnlockObjectCreationv
cbi:__ZN16VirtFuncInvoker2Ii19Color32_t2600501292S0_E6InvokeEjP12Il2CppObjectS0_S0_
OOb:__Z34SetupObjectBakedOcclusionInForwardbRK15SharedLightDataRK26SharedLightmapSettingsDataRK15LightmapIndicesR17ShaderPassContext
mxh:_DSAManaged_get_Random_m923751780
fR:__ZL29TransformAccessChangeCallbackPK15TransformAccessj
lJf:_Vector3_set_Item_m1772472431_AdjustorThunk
ofg:_Interpreter_PopulateGroup_m4042796257
hvd:__ZN9Scripting11UnityEngine10Networking18CertificateHandler9InitProxyEv
Sxd:__ZN9Scripting11UnityEngine12Experimental2XR13TrackableType9InitProxyEv
SWh:_Type_GetProperty_m3414567179
y8j:__ZN6il2cpp2vm13LivenessState25FieldCanContainReferencesEP9FieldInfo
cYb:__ZNSt3__26vectorINS_4pairIN4core12basic_stringIcNS2_20StringStorageDefaultIcEEEES6_EE13stl_allocatorIS7_L18MemLabelIdentifier38ELi16EEE6insertENS_11__wrap_iterIPKS7_EERSD_
xvf:_RenderPipelineManager_DoRenderLoop_Internal_m3799666479
Gwe:__ZL78Sprite_t280657092_CustomAttributesCacheGenerator_Sprite_get_packed_m1179604684P21CustomAttributesCache
Swj:__ZL24UnresolvedVirtualCall_27P12Il2CppObjectS0_aPK10MethodInfo
Klc:__Z13RegisterClassI14PlayerSettingsEvPKc
Jte:__ZL79Object_t631007953_CustomAttributesCacheGenerator_Object_Instantiate_m4029422268P21CustomAttributesCache
h8i:_Collection_1_System_Collections_IList_IndexOf_m3894953546_gshared
Gej:_PKCS12_get_Certificates_m26161562
Y6f:_NameObjectCollectionBase_Init_m2525481323
NNb:__ZN15SkyboxGenerator28GetCubemapSkyboxVertexFormatEv
Z5a:__ZN19ShaderPropertySheet24SetTextureWithExplicitIDERK23FastTexturePropertyNameP7Texture9TextureID
zNh:_List_1_Insert_m1582252370_gshared
Mjk:__ZN6il2cpp2vm6String8NewUtf16EPKDsi
ZPf:_SByte_System_IConvertible_ToByte_m2268214252_AdjustorThunk
whk:__ZN6il2cpp2os10ThreadImpl12QueueUserAPCEPFvPvES2_
DD:__Z32TransferEnumWithNameForceIntSizeI14SafeBinaryReadN10SampleClip17CompressionFormatEEvRT_RT0_PKc17TransferMetaFlags
Klj:_RegularExpression__ctor_m119502265
Mud:__ZN22BaseUnityConnectClient10QueueEventERN11UnityEngine15CloudWebService17CloudServiceEventEPKcjb
C0f:_DelegatePInvokeWrapper_RaycastAllCallback_t1884415901
C4h:_ReadOnlyCollection_1_System_Collections_Generic_ICollectionU3CTU3E_Clear_m522482168_gshared
bZc:__ZN13ProduceHelperI17PhysicsMaterial2DLb0EE7ProduceE10MemLabelId18ObjectCreationMode
mZe:_DerivedType_IsByRefImpl_m2585680005
H_d:_ConstructionCall_InitMethodProperty_m2021094586
Tqc:__Z27Texture_CUSTOM_GetDataWidthP12Il2CppObject
iPc:__ZN7b2World19ContactsCollideTaskEv
Odd:_UNITY_FT_Hypot
qze:__ZL95TextGenerator_t3211863866_CustomAttributesCacheGenerator_TextGenerator_get_lineCount_m916872812P21CustomAttributesCache
GNe:__ZL74CanvasScaler_t2767979955_CustomAttributesCacheGenerator_m_DefaultSpriteDPIP21CustomAttributesCache
e2j:_il2cpp_class_is_abstract
Cf:_emscripten_glGetError
m_j:__ZN15dense_hashtableINSt3__24pairIK10KeyWrapperIPK14Il2CppAssemblyEPK22Il2CppMonoAssemblyNameEES6_N6il2cpp5utils11PointerHashIS4_EEN14dense_hash_mapIS6_SA_SF_NS6_14EqualsComparerINS0_8equal_toIS5_EEEENS0_9allocatorISB_EEE9SelectKeyESK_SM_E14squash_deletedEv
MFg:_SmallXmlParser__ctor_m202236734
LA:__Z14FMOD_FILE_SeekPvjS_
K_f:_MaskableGraphic_OnDisable_m1757789159
Nta:__ZN7TextureC2E10MemLabelId18ObjectCreationMode
zYf:_LayoutGroup__ctor_m2162961217
Qod:__Z56Register_UnityEngine_Analytics_CustomEventData_AddStringv
Zld:__ZZN2UI6Canvas15InitializeClassEvEN39FunctorImpl_1449kCanvasHierarchyChanged4CallEPviR11MessageData
I_h:_ValueType_t3640485471_marshal_pinvoke_cleanup
kVb:__ZNK13RenderTexture32CalculateNeedsInvertedProjectionEv
p_b:__ZN10systeminfo18GetOperatingSystemEv
Kf:emscriptenWebGLGet
gX:__Z19CanReplaceComponentRN5Unity9ComponentEPKNS_4TypeEPN4core12basic_stringIcNS5_20StringStorageDefaultIcEEEE
MQe:_UnmanagedMemoryStream_Flush_m1540584491
b7i:_Collection_1_GetEnumerator_m3986802482_gshared
iXg:_GuidParser_ParseGuid2_m1914838819
Fjc:__ZN12CubemapArray11InitTextureEiii13TextureFormatb
$Ki:__Z36RuntimeInvoker_Enumerator_t185561725PFvvEPK10MethodInfoPvPS4_
B8b:__Z17GetSceneBuildInfoRKN4core12basic_stringIcNS_20StringStorageDefaultIcEEEEiR14SceneBuildInfo
hVi:_List_1_System_Collections_IList_get_Item_m1112579679_gshared
O9d:__ZL70ReliabilityContractAttribute_t502331440_CustomAttributesCacheGeneratorP21CustomAttributesCache
I2e:_InternalEnumerator_1_System_Collections_IEnumerator_get_Current_m55999184_gshared
snf:_ValueCollection_System_Collections_Generic_ICollectionU3CTValueU3E_Contains_m1842955046_gshared
bXj:__ZN24dense_hashtable_iteratorINSt3__24pairIK10KeyWrapperIPK10Il2CppTypeEjEES6_N6il2cpp8metadata14Il2CppTypeHashEN14dense_hash_mapIS6_jSB_NS6_14EqualsComparerINSA_26Il2CppTypeEqualityComparerEEENS0_9allocatorIS8_EEE9SelectKeyESF_SH_E30advance_past_empty_and_deletedEv
uzj:__ZL25UnresolvedVirtualCall_165P12Il2CppObjectiiPK10MethodInfo
HKd:_Graphic_get_depth_m815589653
Gnj:_Event_set_displayIndex_m1342258734
MGd:_ContentSizeFitter_get_horizontalFit_m2773126143
YYf:_LayoutGroup_SetLayoutInputForAxis_m2458344630
BOb:__ZL24AssignProjectorQueuesJobP30AssignProjectorQueuesJobHeader
PAh:_KeyValuePair_2_get_Key_m1218836954_gshared
ATd:_ParameterModifier_t1461694466_marshal_pinvoke
C4b:__ZNSt3__26vectorIN9ShaderLab20SerializedSubProgram15StructParameterENS_9allocatorIS3_EEE21__push_back_slow_pathIS3_EEvOT_
tYg:_Int16_System_IConvertible_ToUInt32_m3410279543
p4b:__ZN9ShaderLab20SerializedSubProgram14SetConstBufferEPKci
dVj:__ZN6il2cpp2os4File5CloseEPNS0_10FileHandleEPi
oNj:__ZNSt3__27__sort5IRN6il2cpp5utils11collections13ArrayValueMapIPK10Il2CppType17Il2CppInteropData26InteropDataToTypeConverterNS1_8metadata14Il2CppTypeLessENSA_26Il2CppTypeEqualityComparerEE12SortComparerEPS8_EEjT0_SH_SH_SH_SH_T_
dHf:_Touch_get_fingerId_m859576425_AdjustorThunk
UFi:__Z48RuntimeInvoker_Boolean_t97287965_Link_t544317964PFvvEPK10MethodInfoPvPS4_
Ipi:__Z32RuntimeInvoker_Int16_t2552820387PFvvEPK10MethodInfoPvPS4_
_5c:_cf2_getStdVW
PWi:_List_1_System_Collections_ICollection_CopyTo_m2688165607_gshared
DFi:__Z53RuntimeInvoker_UIVertex_t4057497605_Int32_t2950945753PFvvEPK10MethodInfoPvPS4_
bYh:_UInt16_CompareTo_m2664746316_AdjustorThunk
Bnf:_ValueCollection_GetEnumerator_m616748621_gshared
i2a:__ZN9GfxDevice13SetActiveTierE12GraphicsTier
jEc:__Z29Transfer_Blittable_ArrayFieldI8JSONReadjEvRT_R9ArrayInfoRK23StaticTransferFieldInfo
I8h:_ReadOnlyCollection_1_get_Item_m679165083_gshared
fok:_GC_check_finalizer_nested
qg:__setLetterbox
R2f:_ScrollRect_OnScroll_m3861066534
epf:_Dictionary_2_ToTKey_m224697230_gshared
pwe:__ZL72FormerlySerializedAsAttribute_t2859083114_CustomAttributesCacheGeneratorP21CustomAttributesCache
yUf:_OnValidateInput_Invoke_m1009124904
zij:_PatternCompiler_EmitFastRepeat_m3012952683
YMa:__ZNSt3__26vectorI17BlendShapeChannelNS_9allocatorIS1_EEE6assignINS_11__wrap_iterIPS1_EEEENS_9enable_ifIXaasr21__is_forward_iteratorIT_EE5valuesr16is_constructibleIS1_NS_15iterator_traitsISA_E9referenceEEE5valueEvE4typeESA_SA_
ovb:__Z12SetGfxDeviceP9GfxDevice
i_b:__ZN11TimeManager11GetRealtimeEv
Tse:__ZL91RectOffset_t1369453676_CustomAttributesCacheGenerator_RectOffset_get_horizontal_m2663785949P21CustomAttributesCache
xAf:_Object_GetHashCode_m1944636947
f0g:_BinaryReader_ReadUInt32_m2210658763
fB:__ZN29AudioEffectInternalDefinitionC2EP26UnityAudioEffectDefinitionb
B9h:_ReadOnlyCollection_1_System_Collections_IList_Remove_m2434650390_gshared
uYh:_UInt16_ToString_m3056878594_AdjustorThunk
Xjf:_ShimEnumerator_get_Value_m1878724567_gshared
KBh:_Dictionary_2_System_Collections_Generic_ICollectionU3CSystem_Collections_Generic_KeyValuePairU3CTKeyU2CTValueU3EU3E_Contains_m2803718146_gshared
zsj:_EventTrigger_set_repeatTime_m1188543944
lgg:_Interval_get_IsSingleton_m3386290029
z1j:__ZNSt3__2plIcNS_11char_traitsIcEENS_9allocatorIcEEEENS_12basic_stringIT_T0_T1_EERKS9_PKS6_
$Gf:_Time_get_unscaledDeltaTime_m4270080131
usd:__ZN18UnityConnectClient27OnPlayerSessionStateChangedEjyy
hza:_stbir_resize
qoh:_Array_IndexOf_TisCustomAttributeTypedArgument_t2723150157_m3158556463_gshared
aFh:_EqualityComparer_1_System_Collections_IEqualityComparer_GetHashCode_m360549782_gshared
cjh:_Environment_GetOSVersionString_m407782784
tCg:_DecoderExceptionFallback_Equals_m1082173956
ZGh:_EqualityComparer_1_System_Collections_IEqualityComparer_GetHashCode_m345188086_gshared
s8d:__ZL69Assembly_t_CustomAttributesCacheGenerator_Assembly_GetName_m981771927P21CustomAttributesCache
I5:__ZL59__ManagedRegistrationHelperFunction_AsyncGPUReadbackRequestPv
Kpe:__ZL93Mesh_t3648964284_CustomAttributesCacheGenerator_Mesh_GetAllocArrayFromChannelImpl_m3084065604P21CustomAttributesCache
RKa:__ZN4PPtrI4MeshE8TransferI14SafeBinaryReadEEvRT_
lMc:__ZN24b2ChainAndCapsuleContact6CreateEP9b2FixtureiS1_iP16b2BlockAllocator
_$a:__Z37ReadDirectoryInfo_UnityWebAndUnityRawR12FileAccessorRKN20ArchiveStorageHeader6HeaderERNS1_13DirectoryInfoE
sR:__ZNSt3__26__treeINS_12__value_typeIPKciEENS_19__map_value_compareIS3_S4_15compare_tstringIS3_ELb1EEENS_9allocatorIS4_EEE7destroyEPNS_11__tree_nodeIS4_PvEE
ush:_Array_InternalArray__Insert_TisIntPtr_t_m189626842_gshared
Abg:_X509Certificate2_get_IssuerName_m1277209535
xsh:_Locale_GetText_m3374010885
R0h:_Collection_1_System_Collections_IEnumerable_GetEnumerator_m1598238343_gshared
oaj:_RijndaelManaged_CreateEncryptor_m263736311
qUh:_WaitCallback__ctor_m1893321019
sLb:__ZN20DynamicPropertySheet14SetValueQueuedEN9ShaderLab16FastPropertyNameEN19ShaderPropertySheet12PropertyTypeEjNS2_8SetFlagsE
quf:_InvokableCallList_ClearPersistent_m1904264973
orb:__ZN25PathNamePersistentManagerD2Ev
RSa:__ZN17PersistentManager48IntegrateObjectAndUnlockIntegrationMutexInternalEi
Sue:__ZL85NativeDisableUnsafePtrRestrictionAttribute_t2582701661_CustomAttributesCacheGeneratorP21CustomAttributesCache
J1:__ZZ29InitializeSortingGroupManagerPvEN44PostLateUpdateSortingGroupsUpdateRegistrator7ForwardEv
oHe:__ZL55EventTrigger_t1076084509_CustomAttributesCacheGeneratorP21CustomAttributesCache
yxg:_SecurityElement_SearchForChildByTag_m900466299
Kp:__ZN6Object12SetHideFlagsENS_9HideFlagsE
tLc:__ZN9b2Fixture11SynchronizeEP12b2BroadPhaseRK11b2TransformS4_
Tah:_Convert_ToSingle_m3227075028
qDk:_emscripten_glGetFramebufferAttachmentParameteriv__wrapper
AUb:__ZN13RendererScene15InitializeUmbraEv
Alf:__ZN21InterfaceFuncInvoker2I26KeyValuePair_2_t2401056908P12Il2CppObjectiE6InvokeEjP11Il2CppClassS2_S2_i
fra:__Z28CalculateGlobalMatrixInverse23TransformAccessReadOnly
Yyf:_MonoBehaviour__ctor_m1579109191
OCe:__ZL59GUITargetAttribute_t25796337_CustomAttributesCacheGeneratorP21CustomAttributesCache
fIh:_GenericEqualityComparer_1_Equals_m3457564127_gshared
nhg:_BigInteger_ModInverse_m2426215562
p0:__ZN17CallbackArrayBaseIPFvPK9IndexListPK16RendererCullDataEPFvPKvS2_S5_EE8RegisterES7_SB_S9_
p4e:_InternalEnumerator_1_System_Collections_IEnumerator_Reset_m2386791007_AdjustorThunk
pCg:_DecoderExceptionFallback__ctor_m4044614564
h6e:_InternalEnumerator_1_System_Collections_IEnumerator_Reset_m3011999097_AdjustorThunk
Z3j:__ZN6il2cpp2vm6Thread17FullMemoryBarrierEv
RQe:_LocalDataStoreSlot__cctor_m644942532
ssk:__ZN6il2cpp6icalls8mscorlib6System6Object7GetTypeEP12Il2CppObject
xSd:_MonoProperty_CachePropertyInfo_m2968057423
pvd:__ZNK25UnityWebRequestJavaScript18GetDownloadedBytesEv
RCf:_Ray_GetPoint_m1852405345_AdjustorThunk
L6d:__ZL53RegionInfo_t1090270226_CustomAttributesCacheGeneratorP21CustomAttributesCache
IEe:__ZL85Canvas_t3310196443_CustomAttributesCacheGenerator_Canvas_get_sortingOrder_m1860900812P21CustomAttributesCache
W1d:__ZL74Single_t1397266774_CustomAttributesCacheGenerator_Single_IsNaN_m4024467661P21CustomAttributesCache
stb:__Z21BeginSplashScreenFadev
Bvd:__ZN12HeaderHelper14SetUnvalidatedERKN4core12basic_stringIcNS0_20StringStorageDefaultIcEEEES6_b
nz:__ZN4FMOD6SoundI7releaseEv
XKa:__ZN14SpriteRenderer13AwakeFromLoadE17AwakeFromLoadMode
B7c:_cff_parse_num
C0a:__ZN10MemoryFile9SetLengthEy
Rgb:__ZN5RectTIiE8TransferI24GenerateTypeTreeTransferEEvRT_
fKc:__ZNK15b2RevoluteJoint10GetAnchorBEv
ASg:_Exception_get_ClassName_m2428844642
Jqb:__Z28scripting_class_is_interface17ScriptingClassPtr
Hh:_glTexStorage2D
gUg:_CultureInfo_ConstructInternalLocaleFromName_m4012802696
bwa:__ZNK9ShaderLab10SubProgram14EnsureCompiledEv
d0e:_MethodBuilder_GetGenericArguments_m1765425737
ydh:_DateTime_CompareTo_m3687348273
Wmk:_GC_push_marked
Xdh:_DateTime_ToUniversalTime_m1945318289_AdjustorThunk
Wcf:_InternalEnumerator_1_MoveNext_m1262669372_gshared
nSg:_EventArgs__ctor_m32674013
H9g:_Convert_ToInt16_m1336719169
DU:__Z18BuildScriptClassId17ScriptingClassPtr
UBj:_TextGenerator_Init_m1168488231
Kyh:_RSAManaged_Finalize_m3915335854
Hp:__ZNK16LevelGameManager7GetNameEv
k_a:__ZL31DeleteLastPathNameComponentImplRKN4core12basic_stringIcNS_20StringStorageDefaultIcEEEEPKc
Qeh:_DBNull_System_IConvertible_ToUInt64_m4072736670
xpd:__ZN18UnityConnectClient15GetCloudServiceEv
vcb:__Z29Transfer_Blittable_ArrayFieldI14SafeBinaryRead5RectTIiEEvRT_R9ArrayInfoRK23StaticTransferFieldInfo
X6e:_InternalEnumerator_1_get_Current_m2698009637_gshared
RQj:__ZN6il2cpp2os19SocketHandleWrapperD2Ev
oAf:_U3CAddAndCreateU3Ec__AnonStorey1__ctor_m1186055370
RLc:__ZN15b2CircleContact6CreateEP9b2FixtureiS1_iP16b2BlockAllocator
Dqb:__ZL28SerializationCommandGroupForRK31TransferFunctionScriptingTraits17ScriptingClassPtr17ScriptingFieldPtrRK20CoreScriptingClasses
bga:__ZN10TagManager32RegisterDefaultTagsAndLayerMasksEv
DUh:_WaitHandle_Dispose_m738127030
K_i:_List_1_System_Collections_IList_get_IsReadOnly_m1729002068_gshared
mti:__Z50RuntimeInvoker_Double_t594665363_Int32_t2950945753PFvvEPK10MethodInfoPvPS4_
mdi:_Predicate_1_EndInvoke_m1490920825_gshared
Uie:__ZL78LoaderOptimization_t1484956347_CustomAttributesCacheGenerator_DisallowBindingsP21CustomAttributesCache
LBh:_Dictionary_2_System_Collections_Generic_ICollectionU3CSystem_Collections_Generic_KeyValuePairU3CTKeyU2CTValueU3EU3E_CopyTo_m3122240003_gshared
QCi:__Z104RuntimeInvoker_Void_t1185182177_Color_t2555686324_Single_t1397266774_SByte_t1669577662_SByte_t1669577662PFvvEPK10MethodInfoPvPS4_
i_i:_List_1_Remove_m3853969205_gshared
nMh:_Enumerator_System_Collections_IEnumerator_get_Current_m1540440674_gshared
uyg:_Single_System_IConvertible_ToInt16_m809233024_AdjustorThunk
Sod:__Z56Register_UnityEngine_Analytics_CustomEventData_AddUInt32v
Xuk:_fmodf
k$c:__Z75Register_UnityEngine_Physics2D_GetRayIntersectionNonAlloc_Internal_Injectedv
Vzb:__ZN4gles8InitCapsEP7ApiGLESP12GraphicsCapsR16GfxDeviceLevelGL
zza:__ZN6prcore14BlitImageFloatERK14ImageReferenceRS0_NS0_8BlitModeE
Asa:__Z24CalculateVertexLightDataRK15SharedLightDataR14GfxVertexLight
pi:_glEnable
AYj:__ZN15dense_hashtableINSt3__24pairIK10KeyWrapperINS1_IPK12PropertyInfoP11Il2CppClassEEEjEES9_17ReflectionMapHashIS8_EN14dense_hash_mapIS9_jSD_NS9_14EqualsComparerINS0_8equal_toIS8_EEEENS0_9allocatorISB_EEE9SelectKeyESI_SK_E15insert_noresizeERKSB_
Iaa:__ZN9Scripting11UnityEngine33ExcludeFromObjectFactoryAttribute12CleanupProxyEv
Zva:__ZNK9ShaderLab7Program28BeginReadUnsupportedVariantsEv
Oda:__ZN12CachedWriter11Align4WriteEv
Zzj:__ZL25UnresolvedVirtualCall_196P12Il2CppObject22UILineInfo_t4195266810S1_PK10MethodInfo
uRa:__ZNSt3__26vectorIN30RuntimeInitializeOnLoadManager9ClassInfoE13stl_allocatorIS2_L18MemLabelIdentifier13ELi16EEE7reserveEj
Jzc:__Z35Transfer_Blittable_FixedBufferFieldI9JSONWriteiEvRK29SerializationCommandArgumentsR31RuntimeSerializationCommandInfo
QEj:_HumanBone_t2465339518_marshal_pinvoke_cleanup
vIh:_Enumerator__ctor_m1590062855_AdjustorThunk
k$j:__ZN14dense_hash_mapI10KeyWrapperINSt3__24pairIPK10MethodInfoP11Il2CppClassEEEj17ReflectionMapHashIS8_ENS9_14EqualsComparerINS1_8equal_toIS8_EEEENS1_9allocatorINS2_IKS9_jEEEEEC2EjRKSB_RKSF_
nce:__ZL54SoapServices_t133988723_CustomAttributesCacheGeneratorP21CustomAttributesCache
oQe:_UnexceptionalStreamReader_Peek_m1842169584
Bqd:__ZN11UnityEngine7Connect15DeviceInfoEvent16CollectExtraInfoEv
Q2i:_Queue_1_System_Collections_IEnumerable_GetEnumerator_m3464578225_gshared
fKf:_TypeInferenceRuleAttribute__ctor_m2736695831
Aqf:_Bounds_GetHashCode_m1844059663_AdjustorThunk
TLe:__ZL66Navigation_t3049316579_CustomAttributesCacheGenerator_m_SelectOnUpP21CustomAttributesCache
JJf:_Vector4_Equals_m1779210055_AdjustorThunk
ach:_Convert_ChangeType_m739676612
ewk:_atoi
ZFb:__ZN20ArchiveStorageReader10InitializeER15FileSystemEntryyb
fwk:_atol
$kk:__ZThn8_N6il2cpp2vm13CachedCCWBaseINS0_13ManagedObjectEE6AddRefEv
BOd:_TypeBuilder_CreateType_m3375483507
M2h:_ReadOnlyCollection_1_GetEnumerator_m3690861713_gshared
svh:_ModulusRing_BarrettReduction_m167376748
rLf:_RemotingServices_GetRealProxy_m2081098851
Vwh:_BlockProcessor_Core_m189015002
qLj:__ZN15dense_hashtableINSt3__24pairIK10KeyWrapperIPKcEP11Il2CppClassEES5_N6il2cpp5utils11StringUtils12StringHasherIS4_EEN14dense_hash_mapIS5_S8_SE_NS5_14EqualsComparerINSB_13VmStringUtils21CaseSensitiveComparerEEENS0_9allocatorIS9_EEE9SelectKeyESJ_SL_EC2EjRKSE_RKSJ_RKSN_
yDk:_emscripten_glScissor__wrapper
Fo:FUNCTION_TABLE_viifi
Go:FUNCTION_TABLE_viiff
jFg:_X501__cctor_m1166912714
jIe:__ZL102PointerEventData_t3807901092_CustomAttributesCacheGenerator_PointerEventData_set_lastPress_m2928324031P21CustomAttributesCache
o4d:__ZL37Type_t_CustomAttributesCacheGeneratorP21CustomAttributesCache
ut:__ZN9Scripting11UnityEngine14AnimationState9InitProxyEv
qOc:__ZNSt3__26__sortIRN18Overlap2DQueryBase29ColliderHitsByDepthComparitorEPP10Collider2DEEvT0_S7_T_
arf:_Bounds_ToString_m4208690781
m4j:__ZN15dense_hashtableINSt3__24pairIK10KeyWrapperINS1_IP11Il2CppClassjEEES4_EES6_N6il2cpp8metadata14ArrayClassHashEN14dense_hash_mapIS6_S4_SB_NS6_14EqualsComparerINSA_17ArrayClassCompareEEENS0_9allocatorIS8_EEE9SelectKeyESF_SH_E5clearEv
PKj:__ZNSt3__218uninitialized_copyIPNS_4pairIK10KeyWrapperIPK11Il2CppClassEPKcEESB_EET0_T_SD_SC_
j0j:__ZN6il2cpp2vm14TypeNameParser5ParseEb
nRe:_Math_Sqrt_m1297338011
B4g:_StreamWriter_Initialize_m3490883444
dXh:_Type_GetGenericArguments_m3500465462
pQj:__ZN15dense_hashtableINSt3__24pairIK10KeyWrapperIP9FieldInfoEiEES5_N6il2cpp5utils11PointerHashIS3_EEN14dense_hash_mapIS5_iSB_NS5_14EqualsComparerINS0_8equal_toIS4_EEEENS0_9allocatorIS7_EEE9SelectKeyESG_SI_E12resize_deltaEjj
cud:__ZN23UnityPurchasingSettingsC2Ev
Fxk:__ZNSt9bad_allocD0Ev
FQd:_Module_IsDefined_m2423524910
$Ye:_DerivedType_create_unmanaged_type_m747846525
FBe:__ZL60EventType_t3528516131_CustomAttributesCacheGenerator_repaintP21CustomAttributesCache
Tka:__ZN17GPUFenceInternals7ReleaseEv
GMe:__ZL66Selectable_t3250028441_CustomAttributesCacheGenerator_m_NavigationP21CustomAttributesCache
YTd:_ResolveEventHandler__ctor_m1911137231
Tnc:__ZN17MaterialScripting18CreateWithMaterialE21ScriptingObjectOfTypeI8MaterialEPS1_
A9i:_Collection_1_System_Collections_IList_Contains_m2393482847_gshared
lVb:__ZL10RenderFaceR9GfxDeviceR18MaterialStateCacheP13RenderTextureiif
poh:_Array_IndexOf_TisCustomAttributeNamedArgument_t287865710_m2817957199_gshared
J3h:_ReadOnlyCollection_1_System_Collections_IList_RemoveAt_m1980090087_gshared
Vdj:_ExtendedKeyUsageExtension_ToString_m2116504780
YVa:__ZNK5Unity9Component38MarkGameObjectAndComponentDependenciesER27GarbageCollectorThreadState
R$g:_BinaryReader_Read_m3708759962
GE:__ZNK7Texture21GetShadowSamplingModeEv
cV:__ZNK11TypeManager15ClassNameToRTTIEPKcb
m5:__ZL57__ManagedRegistrationHelperFunction_DefaultExecutionOrderPv
iJa:__ZN13ScreenManager21OnWindowRegainedFocusEv
wnb:__Z18Transfer_BlittableI18StreamedBinaryReadILb0EELb1EdEvRK29SerializationCommandArgumentsR31RuntimeSerializationCommandInfo
Azb:__ZN9GfxDevice26CreateDefaultVertexBuffersEv
SEk:_emscripten_glVertexAttrib2fv__wrapper
Pwd:__ZN13RuntimeStaticINSt3__26vectorIPN5physx15PxVehicleWheelsENS0_9allocatorIS4_EEEELb0EE13StaticDestroyEPv
APe:_SynchronizedReader_ReadToEnd_m2160105378
RYa:__ZN12HandlerChain19InitializeFileEntryER13FileEntryData
jCa:__ZN4crnd12symbol_codec32decode_receive_static_data_modelERNS_25static_huffman_data_modelE
sic:__ZN18ScriptingArguments8AddFloatEf
NMd:_Image_set_fillOrigin_m469806249
pqd:__ZN11UnityEngine15PlatformWrapper16GetVRRenderScaleEv
JAc:__Z18Transfer_BlittableI9JSONWriteLb0EaEvRK29SerializationCommandArgumentsR31RuntimeSerializationCommandInfo
GI:__ZN11UnityEngine15CloudWebService14DataDispatcher34OnSessionContainerArchivedAndReadyERNS0_16SessionContainerE
Hzf:_ConnectionChangeEvent__ctor_m764126802
UIc:__ZN7b2World11CreateJointEPK10b2JointDef
Bhg:_Kernel_Multiply_m193213393
kSe:_IntComparer__ctor_m2901422390
ZTd:_ResolveEventHandler_Invoke_m1337322179
sde:__ZL50HMACMD5_t2742219965_CustomAttributesCacheGeneratorP21CustomAttributesCache
uef:_Comparer_1__ctor_m1078828713_gshared
uhb:__Z18Transfer_BlittableI19StreamedBinaryWriteILb0EELb0E8Vector3fEvRK29SerializationCommandArgumentsR31RuntimeSerializationCommandInfo
fLh:_Enumerator_VerifyState_m2621680056_gshared
Emj:_UriParser_InternalRegister_m3643767086
mze:__ZL106TextGenerator_t3211863866_CustomAttributesCacheGenerator_TextGenerator_INTERNAL_get_rectExtents_m183810018P21CustomAttributesCache
H$b:__ZN14SafeBinaryRead19TransferSTLStyleMapINSt3__23mapIN4core12basic_stringIcNS3_20StringStorageDefaultIcEEEEiNS1_4lessIS7_EENS1_9allocatorINS1_4pairIKS7_iEEEEEEEEvRT_17TransferMetaFlags
bVg:_DateTimeFormatInfo_get_RawAbbreviatedDayNames_m1257850285
dYj:__ZN15dense_hashtableINSt3__24pairIK10KeyWrapperINS1_IPK11Il2CppImageP11Il2CppClassEEEjEES9_17ReflectionMapHashIS8_EN14dense_hash_mapIS9_jSD_NS9_14EqualsComparerINS0_8equal_toIS8_EEEENS0_9allocatorISB_EEE9SelectKeyESI_SK_ED2Ev
qcd:_gray_move_to
Meh:_DBNull_System_IConvertible_ToSingle_m13713620
kNg:_Char_ToLowerInvariant_m1926695830
oOe:__ZL127U3CDelayedSetDirtyU3Ec__Iterator0_t3170500204_CustomAttributesCacheGenerator_U3CDelayedSetDirtyU3Ec__Iterator0_Reset_m160466733P21CustomAttributesCache
Jrf:_CameraCallback__ctor_m899467377
F3h:_ReadOnlyCollection_1_System_Collections_IList_Contains_m1327645028_gshared
_Md:_Image_GetDrawingDimensions_m3060965396
Aze:__ZL69FontTextureRebuildCallback_t2467502454_CustomAttributesCacheGeneratorP21CustomAttributesCache
wXh:_TypeLoadException__ctor_m1154572625
Lxa:__ZNSt3__27__sort4IRPFbRKNS_4pairIN9ShaderLab16FastPropertyNameE10ColorRGBAfEES7_EPS5_EEjT0_SC_SC_SC_T_
RWe:_AssemblyDescriptionAttribute__ctor_m3993445315
Mog:_Context_get_WriteSequenceNumber_m1115956887
Ylg:_CipherSuite_get_ClientHMAC_m377589750
tRi:_Dictionary_2_Do_ICollectionCopyTo_TisKeyValuePair_2_t2401056908_m1169495264_gshared
I0e:_OpCodes__cctor_m3821715395
LGd:_ContentSizeFitter__ctor_m2349275633
Uke:__ZL56TypeConverter_t2249118273_CustomAttributesCacheGeneratorP21CustomAttributesCache
k9i:_Collection_1_RemoveAt_m3506636491_gshared
_na:__Z26TransformVerticesInnerLoopILb1ELb0ELb0EEvPhRK10Matrix4x4fRK10Matrix3x3fjPKhiS8_ii25GfxTransformVerticesFlagsj
aFc:__ZN8JSONRead8TransferI9BoundsIntEEvRT_PKc17TransferMetaFlagsb
dgk:__ZN24dense_hashtable_iteratorINSt3__24pairIK10KeyWrapperIPcES3_EES4_N6il2cpp5utils15PassThroughHashIS3_EEN14dense_hash_mapIS4_S3_SA_NS4_14EqualsComparerINS0_8equal_toIS3_EEEENS0_9allocatorIS6_EEE9SelectKeyESF_SH_E30advance_past_empty_and_deletedEv
ob:invoke_viidi
M0a:__ZN25SingleBlockMemoryFileData9SetLengthEy
UPi:_Array_Sort_TisOrderBlock_t1585977831_m2922111197_gshared
yKd:_Graphic_OnRectTransformDimensionsChange_m3695755375
$Pf:_SByte_System_IConvertible_ToChar_m1489191771_AdjustorThunk
dz:__ZN9AudioClip7CleanupEv
Flc:__Z13RegisterClassI18DelayedCallManagerEvPKc
TIi:__Z76RuntimeInvoker_Void_t1185182177_Int32_t2950945753_PlayableBinding_t354260709PFvvEPK10MethodInfoPvPS4_
fgg:_Interval_t1802865632_marshal_pinvoke_cleanup
y5j:__ZNK15dense_hashtableINSt3__24pairIK10KeyWrapperIP11Il2CppClassES4_EES5_N6il2cpp8metadata16SZArrayClassHashEN14dense_hash_mapIS5_S4_SA_NS5_14EqualsComparerINS9_19SZArrayClassCompareEEENS0_9allocatorIS7_EEE9SelectKeyESE_SG_E12test_deletedEj
R9g:_Convert_ToInt16_m1223489986
VKd:_Graphic_GraphicUpdateComplete_m1502194795
DDc:__Z18Transfer_BlittableI8JSONReadLb0EdEvRK29SerializationCommandArgumentsR31RuntimeSerializationCommandInfo
PZd:_SynchronizationAttribute_EnterContext_m1660729920
CCj:_Canvas_get_referencePixelsPerUnit_m3420541976
L3h:_ReadOnlyCollection_1_System_Collections_ICollection_get_SyncRoot_m2522539235_gshared
Enj:_Event_get_current_m2393892120
Xtj:_VertexHelper_Clear_m627349662
PDh:_DefaultComparer_Equals_m3688244916_gshared
F2a:__ZNK9GfxDevice13GetViewMatrixEv
NQe:_UnmanagedMemoryStream_Dispose_m2681886347
XUa:__ZN17RemapPPtrTransferC2E24TransferInstructionFlagsb
u3e:_InternalEnumerator_1_System_Collections_IEnumerator_get_Current_m1295084274_gshared
_8g:_Convert_ToDecimal_m889385228
fW:__ZN8TypeTree8BlobReadERPKhS1_ib
Xwe:__ZL87Display_t1387065949_CustomAttributesCacheGenerator_Display_GetSystemExtImpl_m2808197389P21CustomAttributesCache
jJg:_Array_Reverse_m3714848183
UId:_Dropdown_ClearOptions_m4085591601
YFd:_CanvasUpdateRegistry_InternalRegisterCanvasElementForGraphicRebuild_m3522560454
dBh:_KeyValuePair_2__ctor_m880186442_gshared
cTa:__ZN18LoadSceneOperation23GetAllowSceneActivationEv
Yia:__ZN6CameraD0Ev
A3i:_Collection_1_System_Collections_IList_get_IsReadOnly_m2319019412_gshared
LBe:__ZL57EventModifiers_t2016417398_CustomAttributesCacheGeneratorP21CustomAttributesCache
V0h:_Collection_1_System_Collections_IList_IndexOf_m837396833_gshared
iRa:__ZN14SafeBinaryRead21TransferSTLStyleArrayINSt3__26vectorIi13stl_allocatorIiL18MemLabelIdentifier13ELi16EEEEEEvRT_17TransferMetaFlags
$Cg:_EncoderFallback__cctor_m3806755293
W3e:_InternalEnumerator_1__ctor_m962177456_AdjustorThunk
r4c:_raccess_guess_apple_double
tBb:__ZL18ProgramUniform1uivPK7ApiGLESjiihPKv
OAi:__Z66RuntimeInvoker_Boolean_t97287965_AnimationMixerPlayable_t821371386PFvvEPK10MethodInfoPvPS4_
Ojc:__ZN14Texture2DArray13RebuildMipMapEv
oKj:__ZN13Il2CppHashSetIPK17Il2CppGenericInstN6il2cpp8metadata21Il2CppGenericInstHashENS4_24Il2CppGenericInstCompareENSt3__29allocatorI10KeyWrapperIS2_EEEEC2EjRKS5_RKS6_
tab:__Z18Transfer_BlittableI14SafeBinaryReadLb1EaEvRK29SerializationCommandArgumentsR31RuntimeSerializationCommandInfo
ogk:__ZN6il2cpp2gc16GarbageCollector14RemoveWeakLinkEPPv
q4b:__ZN9ShaderLab20SerializedSubProgram14AddVectorParamEPKcii15ShaderParamTypei
oXi:_List_1_GetEnumerator_m563931292_gshared
Mld:__ZN2UI14CanvasRenderer12CleanupClassEv
i6g:_Enumerator__ctor_m3362421874
yAe:__ZL94AudioSampleProvider_t3950279772_CustomAttributesCacheGenerator_U3CtrackIndexU3Ek__BackingFieldP21CustomAttributesCache
Nck:__ZN6il2cpp2vm6Object3BoxEP11Il2CppClassPv
Y3j:__ZN6il2cpp2vm6Thread7SetNameEP12Il2CppThreadP12Il2CppString
dsk:__ZNSt3__214__split_bufferINS_12basic_stringIDsNS_11char_traitsIDsEENS_9allocatorIDsEEEERNS4_IS6_EEEC2EjjS8_
$J:__ZN11UnityEngine15CloudWebService10RestClientINS0_23WebRequestRestHeaderMapEE16SetRequestHeaderERKN4core12basic_stringIcNS4_20StringStorageDefaultIcEEEESA_
nRa:__ZN30RuntimeInitializeOnLoadManager15ClassMethodInfo8TransferI14SafeBinaryReadEEvRT_
z_d:_ConstructionCall_InitDictionary_m2824447813
NTd:_TargetException__ctor_m3701535709
HGi:__Z86RuntimeInvoker_Int32_t2950945753_Vector3_t3722313464_Vector3_t3722313464_RuntimeObjectPFvvEPK10MethodInfoPvPS4_
fH:__ZL22InitializeModule_Audiov
x1a:__ZN16MemoryFileSystem8IsLockedERK13FileEntryData
b7j:__ZN6il2cpp6icalls8mscorlib6System2IO6MonoIO5WriteEiP11Il2CppArrayiiPi
Txf:_Mathf_InverseLerp_m4155825980
zqi:__Z92RuntimeInvoker_RuntimeObject_RuntimeObject_RuntimeObject_SByte_t1669577662_SByte_t1669577662PFvvEPK10MethodInfoPvPS4_
el:_emscripten_glBindRenderbuffer
Wnk:_GC_dirty_init
ubk:__ZN6il2cpp2vm5Image33GetCachedMemoryMappedResourceFileEP24Il2CppReflectionAssembly
Jbk:__ZN6il2cpp2vm5Field14GetValueObjectEP9FieldInfoP12Il2CppObject
yjd:__ZNK2UI6Canvas16GetTargetDisplayEv
KFi:__Z69RuntimeInvoker_Void_t1185182177_Int32_t2950945753_Vector2_t2156229523PFvvEPK10MethodInfoPvPS4_
Pod:__Z63Register_UnityEngine_Analytics_CustomEventData_Internal_Destroyv
lVh:_TimeSpan_CompareTo_m3633415627_AdjustorThunk
qBc:__ZN9JSONWrite8TransferI4PPtrI9Texture2DEEEvRT_PKc17TransferMetaFlags
x6i:_Collection_1_Remove_m3611142372_gshared
_pb:__ZN13MonoBehaviour17RemoveFromManagerEv
jJf:_Vector3_get_Item_m668685504_AdjustorThunk
Mja:__ZN12ImageFilters14AddImageFilterERK11ImageFilter
ybc:__ZN19RuntimeSceneManager32LoadSceneAsyncByNameOrBuildIndexERKN4core12basic_stringIcNS0_20StringStorageDefaultIcEEEEiNS_11LoadingModeEb
LYd:_Context_NotifyDynamicSinks_m1841702879
moj:_GUIUtility_get_pixelsPerPoint_m2369948084
kxg:_WindowsIdentity_System_Runtime_Serialization_IDeserializationCallback_OnDeserialization_m3428853631
NN:__ZN13MemoryManagerC2Ev
UNa:__ZN12SkinMeshInfo10DeallocateEPS_
dLj:__ZNK15dense_hashtableINSt3__24pairIK10KeyWrapperIPKcEP11Il2CppClassEES5_N6il2cpp5utils11StringUtils12StringHasherIS4_EEN14dense_hash_mapIS5_S8_SE_NS5_14EqualsComparerINSB_13VmStringUtils21CaseSensitiveComparerEEENS0_9allocatorIS9_EEE9SelectKeyESJ_SL_E8min_sizeEjj
s2f:_ScrollRect_SetDirty_m214267968
VKi:__Z74RuntimeInvoker_Int32_t2950945753_UIVertex_t4057497605_UIVertex_t4057497605PFvvEPK10MethodInfoPvPS4_
R0a:__ZN20ArchiveStorageReader28AcquireAndPrefillUnusedBlockEjPNS_11CacheResultE
IKg:_Boolean_System_IConvertible_ToDateTime_m603510836
Jjc:__Z12NHxRoughnessIA4_tEvP9Texture2DPT_iiii
tai:__ZN28GenericInterfaceFuncInvoker2IibbE6InvokeEPK10MethodInfoP12Il2CppObjectbb
wwh:_ASN1_get_Value_m1857007406
oyj:__ZL25UnresolvedVirtualCall_105P12Il2CppObjecthPK10MethodInfo
NH:__Z6simd4iiiii
KXa:__ZN9Transform5ResetEv
W9g:_Decimal_op_Explicit_m1842265407
fhb:__Z22TransferField_NonArrayI24GenerateTypeTreeTransfer16Converter_StringEvRK23StaticTransferFieldInfoR31RuntimeSerializationCommandInfoRT0_
C5:__ZL47__ManagedRegistrationHelperFunction_FixedUpdatePv
sDj:_CanvasRenderer_SetAlphaTexture_m2009567627
e8c:_UNITY_FT_CMap_New
U3e:_InternalEnumerator_1_get_Current_m4241643334_AdjustorThunk
X2e:_InternalEnumerator_1_MoveNext_m154749640_AdjustorThunk
vsb:__Z17MainLoopKeepalivePv
ZMe:__ZL62Slider_t3903728902_CustomAttributesCacheGenerator_m_HandleRectP21CustomAttributesCache
zMj:__ZN15dense_hashtableI10KeyWrapperIPK17Il2CppGenericInstES4_N6il2cpp8metadata21Il2CppGenericInstHashEN14dense_hash_setIS4_S7_NS4_14EqualsComparerINS6_24Il2CppGenericInstCompareEEENSt3__29allocatorIS4_EEE8IdentityESB_SE_E12expand_arrayEjN21dense_hash_map_traits17integral_constantIbLb0EEE
_9e:_InternalEnumerator_1_get_Current_m1588647567_AdjustorThunk
buk:_printf_core
_9d:__ZL51GCHandle_t3351438187_CustomAttributesCacheGeneratorP21CustomAttributesCache
_Uf:_InputField_get_caretBlinkRate_m3620074524
sVa:__ZN11PreloadData39ShouldIgnoreInGarbageDependencyTrackingEv
X3e:_InternalEnumerator_1_System_Collections_IEnumerator_Reset_m1716381123_AdjustorThunk
ftg:_RSAPKCS1SignatureFormatter_CreateSignature_m3191980616
Sva:__ZN10builtintex16GetDefaultTexEnvE16TextureDimensionb
BDb:__ZL25CheckCopyTextureArgumentsRK7ApiGLESP11GLESTextureS3_
aaf:_InternalEnumerator_1__ctor_m362401472_AdjustorThunk
pVi:_List_1_AsReadOnly_m2400800347_gshared
IHk:_glDeleteShader__wrapper
J$:__ZNK15PlayableMethods18InvokeOnGraphStartER18ScriptingObjectPtrRK9HPlayable
Dgb:__Z29Transfer_Blittable_ArrayFieldI24GenerateTypeTreeTransferyEvRT_R9ArrayInfoRK23StaticTransferFieldInfo
M_h:_ValueType_Equals_m1524437845
Wne:__ZL71RuntimePlatform_t4159857903_CustomAttributesCacheGenerator_OSXWebPlayerP21CustomAttributesCache
Zz:__ZN4FMOD7SystemI9playSoundE17FMOD_CHANNELINDEXPNS_5SoundEbPPNS_7ChannelE
rEi:__Z123RuntimeInvoker_RuntimeObject_Ray_t3785851493_RuntimeObject_Single_t1397266774_Int32_t2950945753_RuntimeObject_RuntimeObjectPFvvEPK10MethodInfoPvPS4_
H_g:_Int64_GetHashCode_m703091690
J6:__ZL60__ManagedRegistrationHelperFunction_ReflectionProbeBlendInfoPv
Hgj:_X509CrlEntry_get_RevocationDate_m606796547
IWc:__ZN17PhysicsMaterial2D5ResetEv
Rnj:_Event_get_commandName_m4275147343
d9g:_Decimal_op_Implicit_m4256234411
Xab:__Z24TransferPPtrToMonoObjecti17ScriptingClassPtrP23DataToCreateNullWrapper24TransferInstructionFlags
Ay:__ZN12AudioManager23VirtualRedirectTransferER18StreamedBinaryReadILb0EE
bni:__Z60RuntimeInvoker_RuntimeObject_RuntimeObject_Int16_t2552820387PFvvEPK10MethodInfoPvPS4_
HMa:__ZN10VertexData13SwapEndianessEv
h4g:_StreamReader__ctor_m3941437302
tdc:__Z57Register_UnityEngine_Transform_INTERNAL_get_localRotationv
T8f:_IPv6Address_get_Address_m1389170741
aRa:__ZN30RuntimeInitializeOnLoadManager23VirtualRedirectTransferER17RemapPPtrTransfer
lAk:dynCall_viif
XWe:_AssemblyName_get_Flags_m1616840602
Nu:__ZN7mecanim4hand8HandPoseC2Ev
Mec:__Z13RegisterClassIN5Unity9ComponentEEvPKc
uPe:_StringReader_ReadLine_m2337102945
jeb:__ZL26Transfer_SimpleNativeClassI17RemapPPtrTransfer8GradientLb0EEvRK29SerializationCommandArgumentsR31RuntimeSerializationCommandInfo
gpe:__ZL49Shader_t4151988712_CustomAttributesCacheGeneratorP21CustomAttributesCache
$sf:__ZN23InterfaceActionInvoker3IiP8String_tP24ObjectU5BU5D_t2843939325E6InvokeEjP11Il2CppClassP12Il2CppObjectiS1_S3_
muc:__GLOBAL__sub_I_artifacts_WebGL_codegenerator_0_cpp_3029
fLg:_Boolean_Equals_m2410333903_AdjustorThunk
y$i:_List_1_System_Collections_IList_Contains_m2131605266_gshared
Fce:__ZL61ISurrogateSelector_t3040401154_CustomAttributesCacheGeneratorP21CustomAttributesCache
c1i:_List_1_ToArray_m1990123684_gshared
WK:__ZN13UploadHandlerD2Ev
Bw:__GLOBAL__sub_I_Modules_AssetBundle_Public_1_cpp
Kyk:dynCall_viiiiiffi
Bc:_emscripten_glBlendFuncSeparate
q8i:_Collection_1_Add_m809543251_gshared
lS:__Z20scripting_string_newPKc
Plj:_Parser_IsSingleline_m326238187
IQg:_CollectionBase_get_Count_m1708965601
OSf:_HMAC__ctor_m97939284
B5h:_ReadOnlyCollection_1_System_Collections_IList_get_Item_m1005238747_gshared
vie:__ZL49DBNull_t3725197148_CustomAttributesCacheGeneratorP21CustomAttributesCache
L_h:_ValueType_DefaultEquals_m2927252100
ozc:__ZN9JSONWrite12AppendToNodeEPN5Unity9rapidjson12GenericValueINS1_4UTF8IcEE13JSONAllocatorEEPKcRS6_
Dwh:_ASN1_ToString_m1340204511
Zbg:_X509ChainElementEnumerator_get_Current_m1301774989
fLc:__ZN16PhysicsManager2D20GetRigidBodyVelocityERK11Rigidbody2D
Bcg:_X509Store_get_Certificates_m2149701265
r6a:__ZN20GfxAsyncReadbackDataD2Ev
zCh:_DefaultComparer_GetHashCode_m2865442331_gshared
LWh:_Type_GetField_m2961003358
dJe:__ZL144StandaloneInputModule_t2760469101_CustomAttributesCacheGenerator_StandaloneInputModule_t2760469101____allowActivationOnMobileDevice_PropertyInfoP21CustomAttributesCache
iba:__ZN9Scripting11UnityEngine13ComputeBuffer12CleanupProxyEv
hQh:_StringBuilder_set_Chars_m3548656617
XUj:__ZN6il2cpp2os4File17GetFileAttributesERKNSt3__212basic_stringIcNS2_11char_traitsIcEENS2_9allocatorIcEEEEPi
qHi:__Z59RuntimeInvoker_Int32_t2950945753_X509ChainStatus_t133602714PFvvEPK10MethodInfoPvPS4_
xE:__ZN17AudioCustomFilterD2Ev
gyc:__ZN11IMGUIModule26SetDeveloperConsoleVisibleEb
XHi:__Z56RuntimeInvoker_Void_t1185182177_MonoResource_t4103430009PFvvEPK10MethodInfoPvPS4_
dXa:__ZN9Transform16ResetReplacementEv
Plk:_GC_unpromote_black_lists
ww:__ZN9Scripting11UnityEngine2XR5Tango9GridIndex9InitProxyEv
xCb:__ZN18GfxFramebufferGLES18ReleaseFramebufferEP17RenderSurfaceBaseP14GfxContextGLES
tCc:__Z18Transfer_BlittableI8JSONReadLb1EiEvRK29SerializationCommandArgumentsR31RuntimeSerializationCommandInfo
QPe:_TextReader_Dispose_m4253712522
yL:__ZN19CloudServiceHandler34HandleSaveFileWebRequestPlayerLoopEv
$je:__ZL82BigInteger_t2902905090_CustomAttributesCacheGenerator_BigInteger__ctor_m2474659844P21CustomAttributesCache
nxd:__ZL47__ManagedRegistrationHelperFunction_XRNodeStatePv
QD:__Z31GetParentSampleClipFromInstancePN11SoundHandle8InstanceE
bcj:_InternalAsyncResult_get_BytesRead_m3975435112
rfc:__ZNK28RectTransformPropertyBinding13GetFloatValueERKN11UnityEngine9Animation10BoundCurveE
IVb:__ZN6Camera22StandaloneCustomRenderENS_10RenderFlagEP6ShaderRKN4core12basic_stringIcNS3_20StringStorageDefaultIcEEEEPNS_21PerformRenderFunctionE
Koh:_Array_InternalArray__IndexOf_TisKeyValuePair_2_t2401056908_m4118889689_gshared
mSa:__ZNSt3__26vectorI4PPtrI6ObjectE13stl_allocatorIS3_L18MemLabelIdentifier52ELi16EEE6assignINS_11__wrap_iterIPS3_EEEENS_9enable_ifIXaasr21__is_forward_iteratorIT_EE5valuesr16is_constructibleIS3_NS_15iterator_traitsISD_E9referenceEEE5valueEvE4typeESD_SD_
K1h:_Collection_1_System_Collections_ICollection_get_IsSynchronized_m500240145_gshared
Nsk:__ZN6il2cpp2os16ThreadLocalValue8GetValueEPPv
Ebg:_X509Certificate2_get_PublicKey_m370665820
fPj:__ZN6il2cpp2vm13MetadataCache14GetGenericInstEPKPK10Il2CppTypej
eF:__ZN13AudioListener17ReadExtensionNameEi
cd:_glUniform1uiv
ksd:__ZN11UnityEngine7Connect20RemoteConfigSettings35CallConfigUpdatedOnMainThreadStaticEPS1_
$5i:_Collection_1_System_Collections_Generic_ICollectionU3CTU3E_get_IsReadOnly_m1419845799_gshared
$rj:_U3CTimedTriggerU3Ec__Iterator0_System_Collections_Generic_IEnumeratorU3CobjectU3E_get_Current_m3822291412
nGj:_Rigidbody2D_AddTorque_m1535770154
lp:setThrew
ksg:_SslClientStream_OnLocalPrivateKeySelection_m1934775249
Bjc:__ZL21BuildEmptyCubeTexturePKci11ColorRGBA3217TextureColorSpace
Kwe:__ZL106AsyncOperation_t1445031843_CustomAttributesCacheGenerator_AsyncOperation_InvokeCompletionEvent_m1410305036P21CustomAttributesCache
gMg:_Byte_ToString_m721125428
K$b:__ZN14SafeBinaryRead21TransferSTLStyleArrayINSt3__26vectorIN9ShaderLab20SerializedSubProgramENS1_9allocatorIS4_EEEEEEvRT_17TransferMetaFlags
hph:_Array_InternalArray__IndexOf_TisX509ChainStatus_t133602714_m48896230_gshared
m_a:__ZN19dynamic_block_arrayI13FileEntryInfoLj32EE4growEj
CCc:__Z15Transfer_StringI8JSONReadLb1EEvRK29SerializationCommandArgumentsR31RuntimeSerializationCommandInfo
zTa:__ZN16LightmapSettings15AppendLightmapsEiRK13dynamic_arrayI12LightmapDataLj0EE
d2:__ZN6prcoreL17RemapGenericFloatI17TexFormatRGBFloat15TexFormatRGHalfEEvPKNS_9InnerInfoE
jbe:__ZL63IContributeEnvoySink_t2817847987_CustomAttributesCacheGeneratorP21CustomAttributesCache
uad:_sfnt_load_face
C3c:_UNITY_FT_Render_Glyph_Internal
N7j:__ZNSt3__212basic_stringIDsNS_11char_traitsIDsEENS_9allocatorIDsEEE21__grow_by_and_replaceEjjjjjjPKDs
u8c:_UNITY_ft_service_list_lookup
syj:__ZL25UnresolvedVirtualCall_109P12Il2CppObjectiaPK10MethodInfo
ceb:__Z18Transfer_BlittableI17RemapPPtrTransferLb1E11ColorRGBA32EvRK29SerializationCommandArgumentsR31RuntimeSerializationCommandInfo
gwc:__ZN5IMGUI21SelectReceivingWindowER8GUIStateb
cTf:_HMAC_Initialize_m3157696427
Lra:__ZN4PPtrI5LightE8TransferI14SafeBinaryReadEEvRT_
bvk:___strchrnul
DZi:_List_1_System_Collections_ICollection_CopyTo_m3643417403_gshared
WO:__ZN13BaseAllocator13TryDeallocateEPv
mjb:__Z29Transfer_Blittable_ArrayFieldI19StreamedBinaryWriteILb0EEfEvRT_R9ArrayInfoRK23StaticTransferFieldInfo
wji:_ListPool_1_Release_m1363449253_gshared
xag:_X509SubjectKeyIdentifierExtension__ctor_m2055934916
lyc:__ZN9Scripting19UnityEngineInternal5Input17NativeInputSystem9InitProxyEv
vLh:_Enumerator_Dispose_m2531396701_AdjustorThunk
f1a:__ZN16MemoryFileSystem5WriteER13FileEntryDatayPvPy
yPc:__ZNK21b2ClearBodyForcesTask13GetRangeCountEv
Ztk:_sprintf
Y4b:__ZN9Scripting25CreateNullExceptionObjectE18ScriptingObjectPtr
Fyh:_PrivateKeyInfo_DecodeRSA_m2889346634
kE:__ZN13AudioListener17RemoveFromManagerEv
xd:_glAttachShader
WGd:_ContentSizeFitter_SetLayoutHorizontal_m2833273874
D2h:_ReadOnlyCollection_1_System_Collections_IList_RemoveAt_m134366701_gshared
Elg:__ZN28GenericInterfaceFuncInvoker1IbP22Int32U5BU5D_t385246372E6InvokeEPK10MethodInfoP12Il2CppObjectS1_
zia:__ZNK6Camera19GetProjectionMatrixEv
pLe:__ZL70InputField_t3762917431_CustomAttributesCacheGenerator_m_SelectionColorP21CustomAttributesCache
AVf:_InputField_SetToCustomIfContentTypeIsNot_m2813459946
Tji:__Z49RuntimeInvoker_DateTime_t3738529785_RuntimeObjectPFvvEPK10MethodInfoPvPS4_
DSc:__ZN21b2FindNewContactsTask15AddContactPairsERK16b2ContactManagerP14b2FixtureProxyS4_R13dynamic_arrayINS_17b2DeferredContactELj0EE
aoe:__ZL70RuntimePlatform_t4159857903_CustomAttributesCacheGenerator_FlashPlayerP21CustomAttributesCache
DXg:_Guid_GetHashCode_m3042133858_AdjustorThunk
cda:__Z38PreallocateObjectFromPersistentManagerib
wnj:_Event_t2956885303_marshal_pinvoke_cleanup
Fxg:_SecurityException_get_FirstPermissionThatFailed_m3934559164
wfg:_Interpreter_Backtrack_m2828876822
eBa:__ZNK9Texture2D20GetUnscaledTextureIDEv
m$i:_List_1_get_Capacity_m3666274724_gshared
pQf:_SByte_System_IConvertible_ToType_m4075253447
Gzh:_StrongName_get_PublicKey_m1841537984
YFk:_glFenceSync__wrapper
hIj:__ZNK15dense_hashtableINSt3__24pairIK10KeyWrapperIPK22Il2CppGenericParameterEP11Il2CppClassEES6_N6il2cpp5utils11PointerHashIS4_EEN14dense_hash_mapIS6_S9_SE_NS6_14EqualsComparerINS0_8equal_toIS5_EEEENS0_9allocatorISA_EEE9SelectKeyESJ_SL_E8min_sizeEjj
$Hf:_Transform_INTERNAL_get_worldToLocalMatrix_m2730237241
Jyg:_Single_System_IConvertible_ToUInt64_m3299129161
_we:__ZL53GameObject_t1113636619_CustomAttributesCacheGeneratorP21CustomAttributesCache
jIi:__Z51RuntimeInvoker_Void_t1185182177_HitInfo_t3229609740PFvvEPK10MethodInfoPvPS4_
jBa:__ZNK9Texture2D26CanReuploadDataToGfxDeviceEv
Bee:__ZL63CodeAccessPermission_t2681295399_CustomAttributesCacheGeneratorP21CustomAttributesCache
YTa:__Z29ClearRepeatingLogMessageStatev
l8e:_InternalEnumerator_1_get_Current_m3191242573_gshared
ZLg:_Byte_Equals_m1161982810_AdjustorThunk
CHi:__Z53RuntimeInvoker_Int32_t2950945753_UICharInfo_t75501106PFvvEPK10MethodInfoPvPS4_
Rkc:__ZN15QualitySettings12CleanupClassEv
CZ:__ZN21EnlightenSceneMappingaSERKS_
fga:__ZN14SafeBinaryRead21TransferSTLStyleArrayI13dynamic_arrayI17SortingLayerEntryLj0EEEEvRT_17TransferMetaFlags
g0c:__ZL48__ManagedRegistrationHelperFunction_MeshColliderPv
G0i:_List_1_GrowIfNeeded_m278824317_gshared
pFb:__ZN7ApiGLESD2Ev
Eha:__ZN9Transform47ClearTransformHierarchyAndApplyToSerializedDataEv
aRj:_CertificateHandler_t2739891000_marshal_pinvoke
RDc:__ZN8JSONRead21TransferSTLStyleArrayINSt3__26vectorI8MonoPPtr13stl_allocatorIS3_L18MemLabelIdentifier1ELi16EEEEEEvRT_17TransferMetaFlags
cXf:_InputField_IsSelectionVisible_m3622592134
QJg:_AssemblyLoadEventHandler_Invoke_m1462077361
cja:__ZN6Camera23VirtualRedirectTransferER19StreamedBinaryWriteILb0EE
CAk:dynCall_fidi
_Vj:__ZN15dense_hashtableINSt3__24pairIK10KeyWrapperINS1_IPK9FieldInfoP11Il2CppClassEEEjEES9_17ReflectionMapHashIS8_EN14dense_hash_mapIS9_jSD_NS9_14EqualsComparerINS0_8equal_toIS8_EEEENS0_9allocatorISB_EEE9SelectKeyESI_SK_E12resize_deltaEjj
XRc:__ZNK35b2SolveDiscreteIslandVelocitiesTask13GetRangeCountEv
JVi:_List_1_TrimExcess_m3433550210_gshared
aMj:__ZNK15dense_hashtableINSt3__24pairIK10KeyWrapperIPK19Il2CppGenericMethodEPK26Il2CppGenericMethodIndicesEES6_N6il2cpp8metadata23Il2CppGenericMethodHashEN14dense_hash_mapIS6_SA_SE_NS6_14EqualsComparerINSD_26Il2CppGenericMethodCompareEEENS0_9allocatorISB_EEE9SelectKeyESI_SK_E8min_sizeEjj
gbe:__ZL58IContextProperty_t840037424_CustomAttributesCacheGeneratorP21CustomAttributesCache
xoj:_GUILayoutEntry__ctor_m2229197035
RL:__ZN11UnityEngine15CloudWebService14RestDownloaderD2Ev
IZe:_EnumBuilder_get_Assembly_m1175292766
IYb:__Z29StdTemplateConversionFunctionIjhEbPvR14SafeBinaryRead
ima:__ZN15dense_hashtableINSt3__24pairIKN9ShaderLab7Program23ShaderKeywordSetAndHashEPKNS2_10SubProgramEEES4_NS3_24ShaderKeywordHashFunctorEN14dense_hash_mapIS4_S8_SA_NS0_8equal_toIS4_EE13stl_allocatorIS9_L18MemLabelIdentifier67ELi16EEE9SelectKeyESD_SG_E15insert_noresizeERKS9_
AQi:_Array_swap_TisCustomAttributeNamedArgument_t287865710_TisCustomAttributeNamedArgument_t287865710_m881919420_gshared
Dcc:__ZNK13MonoBehaviour13GetScriptTypeEv
Lta:__ZN13RenderTexture12SetDimensionE16TextureDimension
Yrg:_SslClientStream_set_ClientCertSelectionDelegate_m1261530976
z9:__ZN9Scripting11UnityEngine16GradientColorKey9InitProxyEv
ne:_SDL_FreeRW
IHe:__ZL109ExecuteEvents_t3484638744_CustomAttributesCacheGenerator_ExecuteEvents_U3Cs_HandlerListPoolU3Em__0_m391641698P21CustomAttributesCache
HIi:__Z79RuntimeInvoker_Void_t1185182177_Int32_t2950945753_ParameterModifier_t1461694466PFvvEPK10MethodInfoPvPS4_
Tkd:__Z34CanvasRenderer_Get_Custom_PropCullP12Il2CppObject
bD:__ZN20SoundChannelInstance8getDelayE14FMOD_DELAYTYPEPjS1_
tqk:__ZNSt3__26__treeINS_12__value_typeIPvxEENS_19__map_value_compareIS2_S3_NS_4lessIS2_EELb1EEENS_9allocatorIS3_EEE12__find_equalIS2_EERPNS_16__tree_node_baseIS2_EESF_RKT_
zma:__ZNSt3__26vectorIN20GpuProgramParameters15StructParameterENS_9allocatorIS2_EEEC2ERKS5_
Z1e:_ArrayReadOnlyList_1_Contains_m232667507_gshared
Rsi:__Z77RuntimeInvoker_Boolean_t97287965_IntPtr_t_Int32_t2950945753_SByte_t1669577662PFvvEPK10MethodInfoPvPS4_
EBf:_PlayableHandle_GetPlayableType_m432385838_AdjustorThunk
q2c:__ZNSt3__26vectorIN20TextRenderingPrivate8FontImpl13CharacterInfoE13stl_allocatorIS3_L18MemLabelIdentifier1ELi16EEE8__appendEj
v:tempBigInt
cNi:_Array_InternalArray__Insert_TisKeyframe_t4206410242_m1558638568_gshared
Mge:__ZL77Convert_t2465617642_CustomAttributesCacheGenerator_Convert_ToByte_m3567528984P21CustomAttributesCache
ve:_emscripten_glVertexAttrib1fv
q0b:__ZNSt3__26vectorIN9ShaderLab20SerializedSubProgram12UAVParameterENS_9allocatorIS3_EEE7reserveEj
Cxk:__ZSt11__terminatePFvvE
PA:__ZN12AudioManager14systemCallbackEP11FMOD_SYSTEM24FMOD_SYSTEM_CALLBACKTYPEPvS3_
Wci:_Nullable_1_Equals_m4046255732_gshared
D7h:_ReadOnlyCollection_1_System_Collections_Generic_ICollectionU3CTU3E_Clear_m3451551308_gshared
HEd:_BaseMeshEffect_OnEnable_m3291426649
Mrf:_ClassLibraryInitializer_Init_m988673678
XJg:_AssemblyLoadEventHandler_BeginInvoke_m1281107466
isa:__ZN16ReflectionProbes16UpdateSampleDataEv
_Kf:_TrackingServices_NotifyUnmarshaledObject_m2784831802
hPg:_ReadOnlyArrayListWrapper_Sort_m2577012511
r5:__ZL46__ManagedRegistrationHelperFunction_UnityEventPv
QUg:_CultureInfo_GetCultureInfo_m56098747
Bya:__ZN14Texture2DArray5ResetEv
vSb:__Z20AddActiveLocalLightsR11CullResultsR27LocalLightCullingParametersPPK15SharedLightDataPK8Vector4fRK9IndexListPfRSA_R12ActiveLightsSG_P5RectTIfEP13TargetEyeMask
Os:__ZL53__ManagedRegistrationHelperFunction_AnimatorStateInfoPv
Q8g:_Convert_ToDecimal_m1284148187
p$h:_Collection_1__ctor_m3489157029_gshared
mpe:__ZL117TouchScreenKeyboard_t731888065_CustomAttributesCacheGenerator_TouchScreenKeyboard_Open_m3609399077____autocorrection2P21CustomAttributesCache
L4:__ZL52__ManagedRegistrationHelperFunction_AndroidJNIHelperPv
W5c:_cf2_getNormalizedVector
Uea:__ZN5RectTIfE8TransferI18StreamedBinaryReadILb0EEEEvRT_
Se:_JS_Sound_Play
Wif:_KeyCollection_GetEnumerator_m1862005650_gshared
C8h:_ReadOnlyCollection_1_System_Collections_IList_set_Item_m1538987737_gshared
h$b:__ZN9ShaderLab16SerializedShader8TransferI14SafeBinaryReadEEvRT_
TSa:__ZN5Mutex7TryLockEv
YLd:_GridLayoutGroup_set_constraint_m3308895167
gBe:__ZL103AudioSource_t3935305588_CustomAttributesCacheGenerator_AudioSource_ReadExtensionPropertyValue_m72717540P21CustomAttributesCache
S_d:_ConstructionCallDictionary_SetMethodProperty_m3145285304
Kcb:__ZN15SerializeTraitsI13dynamic_arrayIsLj0EEE19ResizeSTLStyleArrayERS1_i
Nvi:__Z243RuntimeInvoker_Void_t1185182177_Int16_t2552820387_RuntimeObject_Int32_t2950945753_Int32_t2950945753_Int32_t2950945753_SByte_t1669577662_SByte_t1669577662_SByte_t1669577662_SByte_t1669577662_Int16_t2552820387_SByte_t1669577662_SByte_t1669577662PFvvEPK10MethodInfoPvPS4_
S2e:_InternalEnumerator_1_System_Collections_IEnumerator_get_Current_m1503522504_gshared
Dkc:__ZN19ShaderPropertySheet16SetVectorIndexedEN9ShaderLab16FastPropertyNameEifRK8Vector4fNS_8SetFlagsE
dWh:_Type_get_IsAbstract_m1120089130
pJf:_Vector3_get_normalized_m2454957984_AdjustorThunk
Vq:__ZN14SafeBinaryRead21TransferSTLStyleArrayIN4core12basic_stringIcNS1_20StringStorageDefaultIcEEEEEEvRT_17TransferMetaFlags
mnj:_UriFormatException__ctor_m1115096473
l6e:_InternalEnumerator_1_Dispose_m2818366163_AdjustorThunk
Gmh:_Array_InternalArray__IEnumerable_GetEnumerator_TisSlot_t384495010_m460993382_gshared
l4j:__ZN15dense_hashtableINSt3__24pairIK10KeyWrapperINS1_IP11Il2CppClassjEEES4_EES6_N6il2cpp8metadata14ArrayClassHashEN14dense_hash_mapIS6_S4_SB_NS6_14EqualsComparerINSA_17ArrayClassCompareEEENS0_9allocatorIS8_EEE9SelectKeyESF_SH_E9copy_fromERKSK_j
kZb:__Z29StdTemplateConversionFunctionIayEbPvR14SafeBinaryRead
DSh:_WaitHandle__ctor_m1707080176
nMi:__Z55RuntimeInvoker_Boolean_t97287965_Nullable_1_t2603721331PFvvEPK10MethodInfoPvPS4_
fqj:_GUIUtility_IsExitGUIException_m3644066650
qM:__ZN11UnityEngine15CloudWebService14DataDispatcher4StopEv
MSc:__ZN12WheelJoint2D23VirtualRedirectTransferER19StreamedBinaryWriteILb0EE
vYg:_Int16_System_IConvertible_ToUInt64_m134975563
s0b:__ZNSt3__26vectorIN9ShaderLab20SerializedSubProgram12UAVParameterENS_9allocatorIS3_EEE8__appendEj
Z2e:_InternalEnumerator_1__ctor_m4191108945_gshared
FZj:__ZNK15dense_hashtableINSt3__24pairIK10KeyWrapperINS1_IPK9EventInfoP11Il2CppClassEEEjEES9_17ReflectionMapHashIS8_EN14dense_hash_mapIS9_jSD_NS9_14EqualsComparerINS0_8equal_toIS8_EEEENS0_9allocatorISB_EEE9SelectKeyESI_SK_E12test_deletedERK24dense_hashtable_iteratorISB_S9_SD_SM_SI_SK_E
hwc:__ZN5IMGUI9GUIWindow5OnGUIER8GUIState
Mvj:_AudioConfigurationChangeHandler_EndInvoke_m4175380841
Onk:_GC_maybe_gc
qyg:_Single_System_IConvertible_ToDecimal_m325860800_AdjustorThunk
Erh:_Array_InternalArray__ICollection_CopyTo_TisSingle_t1397266774_m455540885_gshared
r4:__ZN17ScriptingGCHandle7AcquireE18ScriptingObjectPtr25ScriptingGCHandleWeakness
xzj:__ZL25UnresolvedVirtualCall_168P12Il2CppObject39CustomAttributeNamedArgument_t287865710S1_PK10MethodInfo
Tif:_KeyCollection_System_Collections_ICollection_get_IsSynchronized_m829086683_gshared
evi:__Z74RuntimeInvoker_RuntimeObject_RuntimeObject_Int64_t3736567304_RuntimeObjectPFvvEPK10MethodInfoPvPS4_
Vmf:_Enumerator__ctor_m1734342590_gshared
vzk:dynCall_iifiii
$kb:__ZN18StreamedBinaryReadILb1EE8TransferI13dynamic_arrayIjLj0EEEEvRT_PKc17TransferMetaFlags
mxi:__Z85RuntimeInvoker_Int32_t2950945753_RuntimeObject_Int32U26_t1369213839_Int32_t2950945753PFvvEPK10MethodInfoPvPS4_
Zya:__Z21HasAlphaTextureFormat13TextureFormat
XG:__ZN12AudioManager6UpdateEv
Tya:__ZN14ImageReference9BlitImageERKS_NS_8BlitModeE
wRe:_MissingFieldException__ctor_m3742452630
sdg:_X509Chain__ctor_m2674663382
dN:__GLOBAL__sub_I_Runtime_Core_Callbacks_0_cpp
E7h:_ReadOnlyCollection_1_System_Collections_Generic_IListU3CTU3E_Insert_m1121807192_gshared
Uqb:__ZN23CachedSerializationDataD2Ev
HUb:__ZNK25CameraStackRenderingState31CalculateStereoCameraTargetTypeEv
Ira:__ZN14RenderSettings23VirtualRedirectTransferER14SafeBinaryRead
tbf:_InternalEnumerator_1_get_Current_m114240259_gshared
INc:__ZNK13b2CircleShape5CloneEP16b2BlockAllocator
Ehk:__ZN6il2cpp2os10ThreadImpl15CurrentThreadIdEv
WFh:_EqualityComparer_1__ctor_m1138336971_gshared
Iqa:__ZN17GlobalGameManager8TransferI17RemapPPtrTransferEEvRT_
QGe:__ZL73FieldWithTarget_t3058750293_CustomAttributesCacheGenerator_m_StaticStringP21CustomAttributesCache
Gug:_SymmetricAlgorithm_get_Key_m3241860519
VXf:_U3CMouseDragOutsideRectU3Ec__Iterator1_Reset_m2233410497
ZM:__GLOBAL__sub_I_Runtime_Camera_5_cpp
lZc:__ZN10Collider2DC2E10MemLabelId18ObjectCreationMode
hog:_ClientSessionInfo_get_HostName_m2118440995
Epa:__ZN16LevelGameManager8TransferI18StreamedBinaryReadILb0EEEEvRT_
hed:_UNITY_tt_face_load_fpgm
xha:__Z17IsObjectAvailablei
JOa:__ZN12InputManagerD0Ev
Bua:__Z32TransferEnumWithNameForceIntSizeI14SafeBinaryRead17TextureFilterModeEvRT_RT0_PKc17TransferMetaFlags
qde:__ZL64DSASignatureFormatter_t2007981259_CustomAttributesCacheGeneratorP21CustomAttributesCache
NSh:_ExecutionContext_Capture_m681135907
CBh:_Dictionary_2_System_Collections_IDictionary_Add_m4011968134_gshared
Smb:__Z18Transfer_BlittableI18StreamedBinaryReadILb0EELb1EtEvRK29SerializationCommandArgumentsR31RuntimeSerializationCommandInfo
_3e:_InternalEnumerator_1_System_Collections_IEnumerator_get_Current_m2889979481_AdjustorThunk
xwk:_posix_memalign
dDf:_Rect_get_position_m2115952571
qye:__ZL90SceneManager_t2787271929_CustomAttributesCacheGenerator_SceneManager_LoadScene_m1758133949P21CustomAttributesCache
K5h:_ReadOnlyCollection_1_get_Item_m4005849861_gshared
s4f:_Slider_get_direction_m3871593184
Awh:_ASN1_GetBytes_m3305539297
Y0i:_List_1_Remove_m2092116835_gshared
Cve:__ZL86Logger_t274032455_CustomAttributesCacheGenerator_Logger_LogFormat_m3030796110____args2P21CustomAttributesCache
phe:__ZL77Convert_t2465617642_CustomAttributesCacheGenerator_Convert_ToSByte_m717245755P21CustomAttributesCache
Ldf:_DefaultComparer__ctor_m2039558311_gshared
oU:__ZNK15MonoScriptCache7ReleaseEv
dJj:__ZN6il2cpp2vm5Class13HasReferencesEP11Il2CppClass
BNg:_CLSCompliantAttribute__ctor_m581760440
fg:_glBindTexture
Quk:_snprintf
B$g:_InvalidCastException__ctor_m2551002860
KCi:__Z50RuntimeInvoker_RuntimeObject_Resources_t1597885468PFvvEPK10MethodInfoPvPS4_
REk:_emscripten_glVertexAttrib1fv__wrapper
puf:_InvokableCallList_RemoveListener_m1769379719
ckc:__ZN16LevelGameManagerC2E10MemLabelId18ObjectCreationMode
uvj:_AudioExtensionManager_RemoveExtensionFromManager_m442924172
_yf:_MonoBehaviour_Internal_IsInvokingAll_m2820042090
oDk:_emscripten_glGetProgramInfoLog__wrapper
fu:__ZN25AnimatedPropertyEvaluator29BindCurveToScriptingObjectPtrERKN13AnimationClip10FloatCurveEj18ScriptingObjectPtrb
gJa:__ZN13ScreenManager20SetScreenOrientationE17ScreenOrientation
T3i:_Collection_1_SetItem_m1090516645_gshared
eJe:__ZL52InputMode_t3382566315_CustomAttributesCacheGeneratorP21CustomAttributesCache
qwg:_String_Equals_m1744302937
ttf:_Display__ctor_m501911701
Z3h:_ReadOnlyCollection_1_System_Collections_Generic_IListU3CTU3E_Insert_m1020890112_gshared
tRg:_Hashtable__cctor_m4112166779
GId:_Dropdown_get_onValueChanged_m2462066659
UHd:_DefaultControls_SetDefaultTextValues_m1943359795
bNb:__Z19SetupMotionMatricesR6CameraR18RPDataMotionVector
iFj:__ZL7log2_64y
TLd:_GridLayoutGroup_get_cellSize_m2967185053
pch:_CurrentSystemTimeZone_GetUtcOffset_m340358963
vej:_PKCS12_Decrypt_m1280162536
h4e:_InternalEnumerator_1_get_Current_m3081223448_gshared
Knj:_Event_get_isMouse_m1058251071
Uoa:__ZN10VertexDataC2ERKS_17ShaderChannelMask10MemLabelId
qQg:_CaseInsensitiveHashCodeProvider_AreEqual_m1790260777
s4i:_Collection_1_IndexOf_m3762683187_gshared
X8c:_otv_JSTF_validate
Cma:__ZN22CreateGpuProgramOutputC2Ev
Yhg:_BigInteger_op_LessThanOrEqual_m3925173639
Euf:_PersistentCallGroup_Initialize_m4253175514
HKg:_Boolean_System_IConvertible_ToChar_m4279513009_AdjustorThunk
mRg:_Hashtable__ctor_m1763145853
L3d:__ZL66RuntimeArray_CustomAttributesCacheGenerator_Array_Sort_m3145621264P21CustomAttributesCache
JXf:_InputField_get_layoutPriority_m2945430764
dUe:_NumberFormatter_ScaleOrder_m3813786990
PCi:__Z43RuntimeInvoker_VerticalWrapMode_t2936607737PFvvEPK10MethodInfoPvPS4_
g1e:__ZN25GenericVirtActionInvoker2IP12Il2CppObjectS1_E6InvokeEPK10MethodInfoS1_S1_S1_
Gyh:_PrivateKeyInfo_DecodeDSA_m771724585
Uge:__ZL81Convert_t2465617642_CustomAttributesCacheGenerator_Convert_ToDateTime_m1031474510P21CustomAttributesCache
qgg:_Interval_get_Size_m4163671410_AdjustorThunk
hHe:__ZL53EventHandle_t600343995_CustomAttributesCacheGeneratorP21CustomAttributesCache
ohc:__ZN8GUILayer12CleanupClassEv
wPg:_SynchronizedArrayListWrapper_get_SyncRoot_m3862302789
YUi:_List_1_System_Collections_IEnumerable_GetEnumerator_m839737540_gshared
OYh:_UInt32_System_IConvertible_ToSByte_m1061556466
JMf:_WellKnownClientTypeEntry__ctor_m2471908952
cJj:__ZN6il2cpp2vm5Class4InitEP11Il2CppClass
ha:invoke_vidi
tVe:_NumberFormatter_FormatRoundtrip_m19342689
nMf:_RemotingServices_CreateClientProxyForContextBound_m783705199
PDi:__Z30RuntimeInvoker_Axis_t809944411PFvvEPK10MethodInfoPvPS4_
Ioc:__ZNK15GUIEventManager15GetEventAtIndexEi
obj:_InternalAsyncResult_get_ProceedAfterHandshake_m2508379800
Kmd:__ZN2UI14CanvasRenderer17SyncDirtyElementsER8JobFence
Omb:__Z18Transfer_BlittableI18StreamedBinaryReadILb0EELb0ExEvRK29SerializationCommandArgumentsR31RuntimeSerializationCommandInfo
hbh:_Convert_ToUInt16_m2952781888
jgf:_Enumerator_System_Collections_IEnumerator_get_Current_m3816090481_gshared
yjk:__ZN6il2cpp5utils11StringUtils15StringDuplicateEPKc
lEh:_DefaultComparer_Equals_m2480133610_gshared
Ula:__ZNK9ShaderLab21ShaderRasterStateDesc16ToGfxRasterStateEPK19ShaderPropertySheetS3_R14GfxRasterState
pQi:_Array_Sort_TisVector3_t3722313464_m1915176437_gshared
Xsk:__ZN6il2cpp2os9EventImplC2Ebb
U2f:_ScrollRect_OnInitializePotentialDrag_m3139711961
YOh:_List_1_System_Collections_IList_get_IsFixedSize_m3566150119_gshared
Dv:__ZN4PPtrI13MonoBehaviourE8TransferI19StreamedBinaryWriteILb0EEEEvRT_
BYi:_List_1_get_Item_m2113769949_gshared
L_f:_MaskableGraphic_OnTransformParentChanged_m329502413
dHa:__ZNSt3__26vectorI13dynamic_arrayI8Vector2fLj0EENS_9allocatorIS3_EEE6assignINS_11__wrap_iterIPS3_EEEENS_9enable_ifIXaasr21__is_forward_iteratorIT_EE5valuesr16is_constructibleIS3_NS_15iterator_traitsISC_E9referenceEEE5valueEvE4typeESC_SC_
MFf:_ScriptableObject_t2528358522_marshal_pinvoke
GQ:__Z20IsMatrixBuiltinParamPKcPi
c_j:__ZN6il2cpp2gc19AppendOnlyGCHashMapINSt3__24pairIPK10MethodInfoP11Il2CppClassEEP11Il2CppArray17ReflectionMapHashIS9_ENS2_8equal_toIS9_EEEC2Ev
_vg:_String_memcpy4_m979367827
Nxg:_SecurityFrame_t1422462475_marshal_pinvoke
yXj:__ZN15dense_hashtableINSt3__24pairIK10KeyWrapperINS1_IPK10MethodInfoP11Il2CppClassEEEjEES9_17ReflectionMapHashIS8_EN14dense_hash_mapIS9_jSD_NS9_14EqualsComparerINS0_8equal_toIS8_EEEENS0_9allocatorISB_EEE9SelectKeyESI_SK_E16reset_thresholdsEv
LQh:_UnicodeEncoding_GetBytesInternal_m1902824297
fkc:__ZN8Renderer19PostInitializeClassEv
foh:_Array_FindIndex_TisRuntimeObject_m2504082708_gshared
Gmd:__ZNSt3__26__treeINS_12__value_typeINS_4pairIKiS3_EEN2UI14DepthSortLayerEEENS_19__map_value_compareIS4_S7_NS_4lessIS4_EELb1EEE13stl_allocatorIS7_L18MemLabelIdentifier1ELi16EEE25__emplace_unique_key_argsIS4_JRKNS_21piecewise_construct_tENS_5tupleIJOS4_EEENSK_IJEEEEEENS2_INS_15__tree_iteratorIS7_PNS_11__tree_nodeIS7_PvEEiEEbEERKT_DpOT0_
mgj:_X509Chain_FindCertificateRoot_m1937726457
e4g:_StreamAsyncResult_get_AsyncWaitHandle_m3390046559
vqd:__ZN11UnityEngine15PlatformWrapper21GetVRPlayAreaGeometryER13dynamic_arrayI8Vector3fLj0EE
jpk:__ZN6il2cpp6icalls8mscorlib6System8Delegate23CreateDelegate_internalEP20Il2CppReflectionTypeP12Il2CppObjectP22Il2CppReflectionMethodb
khf:_Enumerator_System_Collections_IEnumerator_get_Current_m921113401_AdjustorThunk
eRg:_DictionaryEntry_get_Value_m618120527_AdjustorThunk
lqb:__ZN18DelayedCallManager18CancelCallDelayed2E4PPtrI6ObjectEPF15CallObjectStatePS1_PvES7_
Afa:__ZN25ThreadsafeLinearAllocator10ReallocateEPvji
K9a:__Z18Transfer_BlittableI14SafeBinaryReadLb1E11QuaternionfEvRK29SerializationCommandArgumentsR31RuntimeSerializationCommandInfo
F1:__ZN18SpriteAtlasManagerD0Ev
Qtj:_ToggleGroup_set_allowSwitchOff_m4192200290
RFi:__Z57RuntimeInvoker_Boolean_t97287965_KeyValuePair_2_t71524366PFvvEPK10MethodInfoPvPS4_
pHa:__ZN10Matrix4x4f8TransferI14SafeBinaryReadEEvRT_
EYj:__ZNK10KeyWrapperINSt3__24pairIPK12PropertyInfoP11Il2CppClassEEE14EqualsComparerINS0_8equal_toIS7_EEEclERKS8_SE_
oRf:_CryptographicUnexpectedOperationException__ctor_m2381988196
H_j:__ZN14dense_hash_mapI10KeyWrapperIPK22Il2CppGenericParameterEPK24MonoGenericParameterInfoN6il2cpp5utils11PointerHashIS2_EENS4_14EqualsComparerINSt3__28equal_toIS3_EEEENSD_9allocatorINSD_4pairIKS4_S7_EEEEE15set_deleted_keyERSJ_
M6e:_InternalEnumerator_1_System_Collections_IEnumerator_get_Current_m4213507601_gshared
UX:__Z6AppendRKN4core12basic_stringIcNS_20StringStorageDefaultIcEEEEPKc
eLi:__Z74RuntimeInvoker_DictionaryEntry_t3123975638_RuntimeObject_SByte_t1669577662PFvvEPK10MethodInfoPvPS4_
JVa:__ZL14OnWorldStoppedv
Pmh:_Array_InternalArray__IEnumerable_GetEnumerator_TisCustomAttributeNamedArgument_t287865710_m523021714_gshared
_ck:__ZN6il2cpp2vm6Object12NullableInitEPhP12Il2CppObjectP11Il2CppClass
P1h:__ZN21InterfaceFuncInvoker1I19Vector4_t3319028937iE6InvokeEjP11Il2CppClassP12Il2CppObjecti
E7:__ZN9Scripting11UnityEngine16TrackedReference12CleanupProxyEv
c5c:__ZN20TextRenderingPrivate19NativeTextGeneratorC2ERK11UTF16StringPNS_8FontImplE11ColorRGBA32ifRK8Vector2fbifiibffbbP13dynamic_arrayIN2UI8UIVertexELj0EE
dSg:_HashKeys_get_SyncRoot_m3757723936
Zpj:_GUIUtility_RemoveCapture_m1294193818
lzb:__ZN7ApiGLES18ClearBufferSubDataEjN2gl12BufferTargetEll
Dbc:__Z37Camera_Get_Custom_PropAllCamerasCountv
aAa:__ZN14Texture2DArray8TransferI18StreamedBinaryReadILb0EEEEvRT_
S$i:_List_1_CopyTo_m2746988508_gshared
Wwc:__Z38Register_UnityEngine_GUIStyle_get_namev
Oxb:__ZN13GfxDeviceGLES13AfterDrawCallEv
Lfd:_Split_Cubic
bb:invoke_fiiii
sXf:_InputField_OnSubmit_m3583210804
qCe:__ZL72GUISkin_t1244372282_CustomAttributesCacheGenerator_m_horizontalScrollbarP21CustomAttributesCache
ymj:_Uri_CheckHostName_m2213216182
OEk:_emscripten_glBindRenderbuffer__wrapper
XRi:_Mesh_SetUvsImpl_TisVector2_t2156229523_m3009194955_gshared
jjg:_HMAC_set_Key_m3535779141
rQi:_Array_Sort_TisVector4_t3319028937_TisVector4_t3319028937_m4254533673_gshared
hbf:_InternalEnumerator_1_System_Collections_IEnumerator_Reset_m729791527_AdjustorThunk
BOg:_ArrayListWrapper_Contains_m2641184447
wfd:_ft_black_render
msi:__Z177RuntimeInvoker_Int32_t2950945753_RuntimeObject_Int32_t2950945753_Int32_t2950945753_RuntimeObject_Int32_t2950945753_EncoderFallbackBufferU26_t2343550713_CharU5BU5DU26_t3299466565PFvvEPK10MethodInfoPvPS4_
KAk:dynCall_viiifi
_Bb:__ZN18GfxFramebufferGLES20ActiveContextChangedEPP17RenderSurfaceBaseS2_
Dve:__ZL86Logger_t274032455_CustomAttributesCacheGenerator_Logger_LogFormat_m3300686007____args3P21CustomAttributesCache
t6a:__Z19PluginsRenderMarkeri
idf:_InternalEnumerator_1__ctor_m2307827786_AdjustorThunk
z0b:__ZNSt3__26vectorIN9ShaderLab20SerializedSubProgram15StructParameterENS_9allocatorIS3_EEE6assignINS_11__wrap_iterIPS3_EEEENS_9enable_ifIXaasr21__is_forward_iteratorIT_EE5valuesr16is_constructibleIS3_NS_15iterator_traitsISC_E9referenceEEE5valueEvE4typeESC_SC_
Aya:__ZN14Texture2DArray21AwakeFromLoadThreadedEv
Onb:__Z29Transfer_Blittable_ArrayFieldI18StreamedBinaryReadILb0EEyEvRT_R9ArrayInfoRK23StaticTransferFieldInfo
fHf:_Touch_get_position_m3109777936_AdjustorThunk
zbk:__ZNSt3__214__split_bufferIN6il2cpp2vm5Image20EmbeddedResourceDataERNS_9allocatorIS4_EEEC2EjjS7_
fAe:__ZL66SkeletonBone_t4134054672_CustomAttributesCacheGenerator_parentNameP21CustomAttributesCache
jFd:_CanvasScaler_set_screenMatchMode_m2975492035
Cod:__Z69Register_UnityEngine_Analytics_UnityAnalyticsHandler_Internal_Destroyv
Ccg:_X509Certificate2Collection_Add_m3151757943
c4d:__ZL83RuntimeArray_CustomAttributesCacheGenerator_RuntimeArray____LongLength_PropertyInfoP21CustomAttributesCache
lff:_Comparer_1__cctor_m951016718_gshared
J1c:__ZN9Scripting11UnityEngine13CharacterInfo9InitProxyEv
fOc:__ZNSt3__227__insertion_sort_incompleteIR15DepthComparitorP8DepthHitEEbT0_S5_T_
uQg:_CaseInsensitiveHashCodeProvider_get_DefaultInvariant_m4264275163
Pie:__ZL67IndexOutOfRangeException_t1578797820_CustomAttributesCacheGeneratorP21CustomAttributesCache
Esi:__Z195RuntimeInvoker_Int32_t2950945753_RuntimeObject_Int32_t2950945753_Int32_t2950945753_Int32_t2950945753_RuntimeObject_DecoderFallbackBufferU26_t3866396827_ByteU5BU5DU26_t4057885439_SByte_t1669577662PFvvEPK10MethodInfoPvPS4_
UH:__ZN5physx14PxLightCpuTask12addReferenceEv
noa:__ZNK15InstancingProps35FillInstanceBufferDispatchConstantsIN10Instancing14RenderLoopArgsEEEvPPvjjRK19ShaderPropertySheetRKT_
BGi:__Z86RuntimeInvoker_Int32_t2950945753_Color32_t2600501292_Color32_t2600501292_RuntimeObjectPFvvEPK10MethodInfoPvPS4_
DGa:__ZN21EnlightenSceneMapping8TransferI19StreamedBinaryWriteILb0EEEEvRT_
Tdk:__ZN6il2cpp2gc16GarbageCollector19InitializeFinalizerEv
t9h:_ReadOnlyCollection_1_System_Collections_Generic_ICollectionU3CTU3E_get_IsReadOnly_m2508509261_gshared
Gxc:__ZN10GUIManager10DoGUIEventER10InputEventb
XIc:__ZN16PhysicsManager2D25AddJointBreakLimitUpdatesEP7Joint2D
Dfb:__Z35Transfer_Blittable_FixedBufferFieldI24GenerateTypeTreeTransferxEvRK29SerializationCommandArgumentsR31RuntimeSerializationCommandInfo
L9c:_otv_LangSys_validate
hEf:_RectOffset_get_right_m2294081512
jzj:__ZL25UnresolvedVirtualCall_154P12Il2CppObjectfPK10MethodInfo
zPd:__ZN25GenericVirtActionInvoker1IP20Delegate_t1188392813E6InvokeEPK10MethodInfoP12Il2CppObjectS1_
ANi:_Array_InternalArray__set_Item_TisLink_t544317964_m1234244240_gshared
ned:_UNITY_TT_Init_Glyph_Loading
Fnc:__Z20CalculateSqrDistanceRK8Vector3fRK4AABB
NId:_OptionData_get_text_m2997376818
$hf:_Enumerator__ctor_m324536319_gshared
iPf:_SerializationInfo_GetBoolean_m1756153320
EC:__Z32AudioMixerDuckingProcessCallbackP21UnityAudioEffectStatePfS1_jii
L1f:_U3CClickRepeatU3Ec__Iterator0_System_Collections_IEnumerator_get_Current_m543328413
Byf:_Mesh_get_uv2_m3615020997
Q3h:_ReadOnlyCollection_1_Contains_m2979956790_gshared
djc:__ZN26CustomRenderTextureManagerD2Ev
gFh:_EqualityComparer_1_System_Collections_IEqualityComparer_Equals_m4172006498_gshared
Fy:__ZN12AudioManager8TransferI24GenerateTypeTreeTransferEEvRT_
FOi:_Array_qsort_TisOrderBlock_t1585977831_m3322202512_gshared
Ixf:_Mathf_Round_m4098141538
gta:__Z25GetBytesFromTextureFormat13TextureFormat
EJa:__ZN9Texture3D19UnloadFromGfxDeviceEb
y6j:__ZN6il2cpp6icalls8mscorlib6System9Threading6Thread20Thread_free_internalEP12Il2CppThreadi
Ytb:__ZNK11PreloadData18GetInstanceIDArrayER13dynamic_arrayIiLj0EE
Mdb:__Z18Transfer_BlittableI17RemapPPtrTransferLb0EsEvRK29SerializationCommandArgumentsR31RuntimeSerializationCommandInfo
_Aa:__ZN7Cubemap23VirtualRedirectTransferER19StreamedBinaryWriteILb0EE
p7f:__KeysEnumerator_get_Current_m2996478063
TRe:_AmbiguousMatchException__ctor_m2012725345
lV:__Z32scripting_class_get_assemblyname17ScriptingClassPtr
ENc:__ZN9b2Simplex9ReadCacheEPK14b2SimplexCachePK15b2DistanceProxyRK11b2TransformS5_S8_
MOe:__ZL109LayoutUtility_t2745813735_CustomAttributesCacheGenerator_LayoutUtility_U3CGetFlexibleWidthU3Em__3_m1091238571P21CustomAttributesCache
xCi:__Z99RuntimeInvoker_Boolean_t97287965_Int32_t2950945753_PointerEventDataU26_t867828220_SByte_t1669577662PFvvEPK10MethodInfoPvPS4_
s5e:_InternalEnumerator_1_get_Current_m2128158355_AdjustorThunk
P3a:__ZN9GfxDevice21RegisterNativeTextureE9TextureIDi16TextureDimension
DKd:_GraphicRegistry__ctor_m1851575309
fIi:__Z52RuntimeInvoker_Void_t1185182177_Keyframe_t4206410242PFvvEPK10MethodInfoPvPS4_
HTc:__ZN13SliderJoint2D8TransferI14SafeBinaryReadEEvRT_
Mje:__ZL53TypeFilter_t2356120900_CustomAttributesCacheGeneratorP21CustomAttributesCache
lqk:__ZN6il2cpp6icalls8mscorlib6System10Reflection4Emit11TypeBuilder20create_generic_classEP27Il2CppReflectionTypeBuilder
jCb:__ZNK16UniformCacheGLES6SubmitEjRK13dynamic_arrayIN20GpuProgramParameters14ValueParameterELj0EERKS0_IiLj0EE
Tlh:_PlayableHandle_IsPlayableOfType_TisAnimationLayerMixerPlayable_t3631223897_m201603007_gshared
Nfe:__ZL50Monitor_t2197244473_CustomAttributesCacheGeneratorP21CustomAttributesCache
HTj:__ZNSt3__26vectorIPK10MethodInfoNS_9allocatorIS3_EEE26__swap_out_circular_bufferERNS_14__split_bufferIS3_RS5_EE
pig:_PrimalityTest_EndInvoke_m1035389364
EF:__Z60Register_UnityEngine_AudioListener_GetNumExtensionPropertiesv
_i:_emscripten_glUniformMatrix4fv
A4j:__ZN15dense_hashtableINSt3__24pairIK10KeyWrapperINS1_IP11Il2CppClassjEEES4_EES6_N6il2cpp8metadata14ArrayClassHashEN14dense_hash_mapIS6_S4_SB_NS6_14EqualsComparerINSA_17ArrayClassCompareEEENS0_9allocatorIS8_EEE9SelectKeyESF_SH_E13set_empty_keyERKS8_
vWa:__ZN12ScriptMapperD2Ev
$mf:_Enumerator_Dispose_m3040896940_AdjustorThunk
AIk:b100
Eyf:_Mesh_get_colors32_m1253190811
xmk:_GC_stopped_mark
Gxd:__ZL59__ManagedRegistrationHelperFunction_SubsystemDescriptorBasePv
tpf:_AnimationCurve_Finalize_m2397002729
R5f:_Text_OnEnable_m616205807
EMi:__Z50RuntimeInvoker_RuntimeObject_ColorTween_t809614380PFvvEPK10MethodInfoPvPS4_
gXf:_InputField_OnFillVBO_m3649106646
POf:_SerializationCallbacks__cctor_m1674315180
A1b:__Z32TransferEnumWithNameForceIntSizeI14SafeBinaryRead7FogModeEvRT_RT0_PKc17TransferMetaFlags
IOj:__ZNK15dense_hashtableI10KeyWrapperIPK19Il2CppGenericMethodES4_N6il2cpp8metadata23Il2CppGenericMethodHashEN14dense_hash_setIS4_S7_NS4_14EqualsComparerINS6_26Il2CppGenericMethodCompareEEENSt3__29allocatorIS4_EEE8IdentityESB_SE_E23find_position_with_hashERKS4_j
mla:__ZNSt3__26vectorIN12FlareManager10FlareEntryENS_9allocatorIS2_EEE21__push_back_slow_pathIS2_EEvOT_
n3b:__ZN9ShaderLab20SerializedSubProgram16TextureParameter8TransferI19StreamedBinaryWriteILb0EEEEvRT_
Cea:__ZNK7Hash12812PackToUInt32Ev
CPg:_SynchronizedArrayListWrapper_IndexOf_m3642674350
yee:__ZL58WindowsIdentity_t2948242406_CustomAttributesCacheGeneratorP21CustomAttributesCache
yM:__ZN11UnityEngine15CloudWebService16SessionContainer8AddEventEPNS0_14CloudEventInfoE
U7a:__Z4TrimRKN4core12basic_stringIcNS_20StringStorageDefaultIcEEEES5_
R6h:_ReadOnlyCollection_1_CopyTo_m209634623_gshared
G9f:_SPKey_Equals_m4205549017
lRi:_Dictionary_2_Do_ICollectionCopyTo_TisKeyValuePair_2_t3842366416_m1399105608_gshared
tHe:__ZL77ExecuteEvents_t3484638744_CustomAttributesCacheGenerator_U3CU3Ef__mgU24cache2P21CustomAttributesCache
Obg:_X509Certificate2_Import_m4026562329
nif:_Enumerator_System_Collections_IEnumerator_get_Current_m2763095718_AdjustorThunk
WFk:_glGetStringi__wrapper
lHa:__ZN10VertexData8TransferI14SafeBinaryReadEEvRT_
a1:__ZN13RuntimeStaticI12AdsIdHandlerLb0EE16StaticInitializeEPv
lok:_GC_malloc_atomic
vWd:_ActivatedClientTypeEntry_ToString_m2494181680
fJh:_HashSet_1_GetEnumerator_m3346268098_gshared
_qk:__ZN6il2cpp5utils6Memory13AlignedMallocEjj
kCf:_PropertyName_GetHashCode_m3570549176_AdjustorThunk
Dse:__ZL55PropertyName_t3749835189_CustomAttributesCacheGeneratorP21CustomAttributesCache
yXf:_Selectable_get_animator_m2899312855
oT:__ZL20SortItemByInstanceIDRKN18AwakeFromLoadQueue4ItemES2_
YIf:_Vector2_op_Multiply_m2347887432
TJd:_FontData_get_maxSize_m195374730
H7f:_TypeConverterAttribute__ctor_m1774069684
etd:__ZN20UnityConnectSettings8TransferI24GenerateTypeTreeTransferEEvRT_
zic:__ZZN12MeshRenderer15InitializeClassEvEN29FunctorImpl_205kDidDeleteMesh4CallEPviR11MessageData
HFg:_Byte_ToString_m4063101981
ISe:_MonoType_GetConstructors_m2574682189
sQc:__ZN25b2SynchronizeFixturesTask7TaskJobEPS_j
FFf:_SceneManager_LoadSceneAsyncNameIndexInternal_m4031498323
Hik:__ZNK15dense_hashtableINSt3__24pairIK10KeyWrapperIPK19Il2CppGenericMethodEP10MethodInfoEES6_N6il2cpp8metadata23Il2CppGenericMethodHashEN14dense_hash_mapIS6_S9_SD_NS6_14EqualsComparerINSC_26Il2CppGenericMethodCompareEEENS0_9allocatorISA_EEE9SelectKeyESH_SJ_E10test_emptyERK30dense_hashtable_const_iteratorISA_S6_SD_SL_SH_SJ_E
cbe:__ZL59SinkProviderData_t4151372974_CustomAttributesCacheGeneratorP21CustomAttributesCache
Tdf:__ZN21InterfaceFuncInvoker1Ii22OrderBlock_t1585977831E6InvokeEjP11Il2CppClassP12Il2CppObjectS0_
HVj:__ZN15dense_hashtableINSt3__24pairIK10KeyWrapperINS1_IPK14Il2CppAssemblyP11Il2CppClassEEEjEES9_17ReflectionMapHashIS8_EN14dense_hash_mapIS9_jSD_NS9_14EqualsComparerINS0_8equal_toIS8_EEEENS0_9allocatorISB_EEE9SelectKeyESI_SK_E12expand_arrayEjN21dense_hash_map_traits17integral_constantIbLb0EEE
l_:__ZL31InitializeRendererUpdateManagerPv
jTd:_ParameterInfo__ctor_m2779026345
rVf:_InputField_set_onValueChange_m1251390545
k7:__ZN9Scripting11UnityEngine18WaitForFixedUpdate12CleanupProxyEv
fci:_Func_1_EndInvoke_m3591709415_gshared
bKd:_FontData_get_verticalOverflow_m4132840071
D6:__ZL46__ManagedRegistrationHelperFunction_RectOffsetPv
AUe:_NumberFormatter_get_IsZeroInteger_m2263284741
WF:__ZN13AudioListener12CleanupClassEv
mya:__ZNSt3__26__treeINS_12__value_typeIiNS_4pairIP4ListI8ListNodeI9BehaviourEES8_EEEENS_19__map_value_compareIiSA_NS_4lessIiEELb1EEENS_9allocatorISA_EEE7destroyEPNS_11__tree_nodeISA_PvEE
rRj:_GameLoader_LoadCar_m3116504473
mVg:_DateTimeFormatInfo_get_LongTimePattern_m1595254249
Lcj:_X509Certificate_PEM_m2020851166
Yvh:_BigInteger_op_GreaterThanOrEqual_m700865613
osh:_Array_InternalArray__Insert_TisDateTime_t3738529785_m2308632330_gshared
HOa:__ZN11TimeManager8TransferI19StreamedBinaryWriteILb0EEEEvRT_
_pg:_TlsServerCertificateRequest_ProcessAsTls1_m3214041063
nEe:__ZL55WheelJoint2D_t1756757149_CustomAttributesCacheGeneratorP21CustomAttributesCache
fad:_compare_uni_maps
lzi:__Z72RuntimeInvoker_Boolean_t97287965_Vector2_t2156229523_Vector2_t2156229523PFvvEPK10MethodInfoPvPS4_
grd:__ZN11UnityEngine15PlatformWrapper27GetGraphicsCapsSupportFlagsEv
Xid:__ZNSt3__218__insertion_sort_3IRPFbPN2UI6CanvasES3_EPS3_EEvT0_S8_T_
mRi:_Dictionary_2_Do_ICollectionCopyTo_TisRuntimeObject_m3695543300_gshared
jjb:__ZN12NativeBufferI16Converter_StringE15SetupForWritingER9ArrayInfo
cwh:_SequentialSearchPrimeGeneratorBase_GenerateSearchBase_m3595783982
Cw:__ZN13RuntimeStaticI18AssetBundleManagerLb1EE16StaticInitializeEPv
oCk:___cxa_end_catch__wrapper
nxi:__Z121RuntimeInvoker_Int32_t2950945753_RuntimeObject_Int32U26_t1369213839_Int32_t2950945753_Int32_t2950945753_Int32_t2950945753PFvvEPK10MethodInfoPvPS4_
Xwd:__GLOBAL__sub_I_artifacts_WebGL_codegenerator_0_cpp_7402
rNg:_Char_ToString_m278452217
Xlg:_CipherSuite_get_DecryptionCipher_m2839827488
l3h:_ReadOnlyCollection_1_System_Collections_IList_set_Item_m4047645019_gshared
WNb:__ZNK4PPtrI5LightEcvPS0_Ev
Jxd:__ZL50__ManagedRegistrationHelperFunction_ReferencePointPv
Thg:_BigInteger_op_RightShift_m460065452
Yqb:__ZN13MonoBehaviour22DoScriptRebuildWarningEv
h7j:__ZN6il2cpp6icalls8mscorlib6System5Array13ClearInternalEP11Il2CppArrayii
N$f:_RectMask2D_get_rootCanvasRect_m2913509457
kgd:__Z38TextGenerator_Get_Custom_PropLineCountP12Il2CppObject
jyk:_llvm_cttz_i32
lBg:_Encoding_GetEncoding_m2801244948
eyc:__ZN11IMGUIModule25GetGUIStyleScriptingClassEv
Fcd:_tt_get_interface
_bj:_SslStreamBase_EndRead_m495357226
j6j:__ZN6il2cpp5utils9PathUtils7CombineIcEENSt3__212basic_stringIT_NS3_11char_traitsIS5_EENS3_9allocatorIS5_EEEERKSA_SC_
X8i:_Collection_1_System_Collections_IList_get_IsFixedSize_m214626114_gshared
Yui:__Z64RuntimeInvoker_RuntimeObject_SByte_t1669577662_SByte_t1669577662PFvvEPK10MethodInfoPvPS4_
zpj:_GUIScrollGroup_CalcHeight_m3173593443
sfe:__ZL86UTF7Encoding_t2644108479_CustomAttributesCacheGenerator_UTF7Encoding_Equals_m227704363P21CustomAttributesCache
nee:__ZL59ApplicationTrust_t3270368423_CustomAttributesCacheGeneratorP21CustomAttributesCache
UZe:_EnumBuilder_GetConstructorImpl_m3068576149
oS:__Z18ConvertUTF16toUTF8PPKtS0_PPhS2_15ConversionFlags
gik:__ZN6il2cpp2os20PathErrnoToErrorCodeERKNSt3__212basic_stringIcNS1_11char_traitsIcEENS1_9allocatorIcEEEEi
fLe:__ZL68InputField_t3762917431_CustomAttributesCacheGenerator_m_KeyboardTypeP21CustomAttributesCache
qpc:__Z24GetActualTargetFrameRatev
XEj:__ZL16my_g_bit_nth_msfj
qug:_SHA512Managed_Sigma1_m922902398
sme:__ZL129GenerateManagedProxyAttribute_t2394178854_CustomAttributesCacheGenerator_GenerateManagedProxyAttribute_set_NativeType_m3203265247P21CustomAttributesCache
P4j:__ZN15dense_hashtableINSt3__24pairIK10KeyWrapperIP11Il2CppClassES4_EES5_N6il2cpp8metadata16SZArrayClassHashEN14dense_hash_mapIS5_S4_SA_NS5_14EqualsComparerINS9_19SZArrayClassCompareEEENS0_9allocatorIS7_EEE9SelectKeyESE_SG_E12expand_arrayEjN21dense_hash_map_traits17integral_constantIbLb0EEE
Brf:__ZN30GenericInterfaceActionInvoker1IP18Camera_t4157153871E6InvokeEPK10MethodInfoP12Il2CppObjectS1_
qDh:_DefaultComparer_GetHashCode_m3369508712_gshared
n2i:_Enumerator_MoveNext_m3662315381_AdjustorThunk
Ipg:_TlsClientFinished_ProcessAsTls1_m2429863130
sWd:_ActivatedClientTypeEntry_get_ApplicationUrl_m2894992111
eKb:__Z23SetupStereoFlareElementP11FlareVertexRK8Vector2fS3_S3_RK11ColorRGBA32RK10Matrix4x4fRK8Vector3fb
Qwj:__ZL24UnresolvedVirtualCall_25P12Il2CppObjectS0_S0_PK10MethodInfo
qJj:__ZN6il2cpp2vm5Class15GetInstanceSizeEPK11Il2CppClass
J_h:_ValueType__ctor_m2036258423
ta:invoke_iiiifiiii
Lle:__ZL63ExpressionCollection_t1810289389_CustomAttributesCacheGeneratorP21CustomAttributesCache
i9i:__ZN23InterfaceActionInvoker2Ii20UICharInfo_t75501106E6InvokeEjP11Il2CppClassP12Il2CppObjectiS0_
gOi:_Array_InternalArray__set_Item_TisPlayerLoopSystem_t105772105_m93492520_gshared
Jne:__ZL126AttributeHelperEngine_t2735742303_CustomAttributesCacheGenerator_AttributeHelperEngine_GetDefaultExecutionOrderFor_m2255077112P21CustomAttributesCache
UIf:_Vector2_Equals_m832062989_AdjustorThunk
Ujf:_ShimEnumerator_MoveNext_m2406150314_gshared
DCb:__ZL19BlitFramebufferImplRN4gles23BlitFramebufferDrawQuadER9GfxDevice9TextureIDRK8Vector4f
odb:__Z18Transfer_BlittableI17RemapPPtrTransferLb0EhEvRK29SerializationCommandArgumentsR31RuntimeSerializationCommandInfo
BWj:__ZN15dense_hashtableINSt3__24pairIK10KeyWrapperIPK10Il2CppTypeEjEES6_N6il2cpp8metadata14Il2CppTypeHashEN14dense_hash_mapIS6_jSB_NS6_14EqualsComparerINSA_26Il2CppTypeEqualityComparerEEENS0_9allocatorIS8_EEE9SelectKeyESF_SH_E4findERS7_
tzk:dynCall_viiiiiiiiiiiiii
g4c:_UNITY_FT_List_Add
Djc:__ZN14Texture2DArray11InitTextureEiii13TextureFormatb
Hdj:_X509Extension__ctor_m1474351312
ffe:__ZL104Encoding_t1523322056_CustomAttributesCacheGenerator_Encoding_t1523322056____DecoderFallback_PropertyInfoP21CustomAttributesCache
vfi:_InvokableCall_1_Invoke_m1524307439_gshared
uAa:__ZN12CubemapArray21AwakeFromLoadThreadedEv
u7:__ZN9Scripting11UnityEngine10Vector2Int12CleanupProxyEv
j0g:_Directory_CreateDirectoriesInternal_m3735342319
yOh:_List_1_RemoveAll_m517055598_gshared
dsc:__Z41Camera_CUSTOM_WorldToScreenPoint_InjectedP12Il2CppObjectRK8Vector3fRS1_
IZf:_LayoutUtility_GetLayoutProperty_m3731360667
w$j:__ZN15dense_hashtableINSt3__24pairIK10KeyWrapperINS1_IPK11Il2CppImageP11Il2CppClassEEEjEES9_17ReflectionMapHashIS8_EN14dense_hash_mapIS9_jSD_NS9_14EqualsComparerINS0_8equal_toIS8_EEEENS0_9allocatorISB_EEE9SelectKeyESI_SK_E14squash_deletedEv
vug:_SHAConstants__cctor_m1699027474
pRd:_MonoEventInfo_t346866618_marshal_pinvoke_back
BQc:__ZN39b2PrepareDiscreteIslandContactIndexTask7TaskJobEPS_j
zOb:__ZNK6Camera26GetStereoSingleCullEnabledEv
EOh:_List_1_TrimExcess_m4121641494_gshared
ehe:__ZL78Convert_t2465617642_CustomAttributesCacheGenerator_Convert_ToInt16_m1733792763P21CustomAttributesCache
yRa:__Z14resize_trimmedINSt3__26vectorIN4core12basic_stringIcNS2_20StringStorageDefaultIcEEEE13stl_allocatorIS6_L18MemLabelIdentifier13ELi16EEEEEvRT_j
sab:__Z18Transfer_BlittableI14SafeBinaryReadLb0EaEvRK29SerializationCommandArgumentsR31RuntimeSerializationCommandInfo
vNg:_CharEnumerator_System_Collections_IEnumerator_get_Current_m1328529384
Aeh:_DBNull__ctor_m3431698857
aFa:__ZN4core8hash_setINS_4pairIKiiLb0EEENS_9hash_pairINS_4hashIiEES2_iEENS_10equal_pairINSt3__28equal_toIiEES2_iEEE6insertERKS3_
aEj:_AnimationLayerMixerPlayable__ctor_m860721801
Dki:__Z98RuntimeInvoker_Boolean_t97287965_RuntimeObject_Int32_t2950945753_RuntimeObject_Int64U26_t200113976PFvvEPK10MethodInfoPvPS4_
xed:_UNITY_FT_List_Iterate
Dqa:__ZN17GlobalGameManager8TransferI24GenerateTypeTreeTransferEEvRT_
QMg:_Char_System_IConvertible_ToUInt64_m3536560782
CEh:_EqualityComparer_1__cctor_m3452395357_gshared
Wdg:_X509ChainStatus_get_Status_m2572005749_AdjustorThunk
EIb:__Z20SyncFenceCullResultsR11CullResults
jEb:__ZN15TextureTFMethod20IsBoneCountSupportedEi
Zhh:_Double_ToString_m3828879243_AdjustorThunk
Oeb:__Z22TransferField_NonArrayI17RemapPPtrTransfer27Converter_SimpleNativeClassI8GUIStyleEEvRK23StaticTransferFieldInfoR31RuntimeSerializationCommandInfoRT0_
WPe:_TextReader_Synchronized_m3004980758
dwd:__ZNK20UnityWebRequestProtoI24UnityWebRequestTransport16AtomicRefCounter14RedirectHelper14ResponseHelper15DownloadHandler13UploadHandler18CertificateHandler12HeaderHelper14AsyncOperationE16GetUploadedBytesEv
Mdc:__ZNK17AnimationCurveTplIfE20EvaluateWithoutCacheEfRf
_yi:__Z67RuntimeInvoker_Boolean_t97287965_Rect_t2360479859_SByte_t1669577662PFvvEPK10MethodInfoPvPS4_
Lma:__ZN19ShaderPropertySheet10SetTextureERK23FastTexturePropertyNameP7Texture
GXe:_CustomAttributeData__ctor_m2966233049
LFd:_CanvasUpdateRegistry_PerformUpdate_m1793997159
T9f:_WebHeaderCollection_GetKey_m809097130
ioc:__ZN4Mesh10SetNormalsEPK8Vector3fj
Yqj:_AesManaged_CreateDecryptor_m692040246
pjk:__ZNSt3__212basic_stringIDsNS_11char_traitsIDsEENS_9allocatorIDsEEE9__grow_byEjjjjjj
HBj:_TextGenerationSettings_t1351628751_marshal_pinvoke_back
fv:__ZN17AnimationCurveTplIfE8TransferI14SafeBinaryReadEEvRT_
GNi:_Array_InternalArray__set_Item_TisInt16_t2552820387_m2544074754_gshared
THg:_ArithmeticException__ctor_m3551809662
L5d:__ZL51BitArray_t4087883509_CustomAttributesCacheGeneratorP21CustomAttributesCache
F1i:__ZN21InterfaceFuncInvoker0I19Vector4_t3319028937E6InvokeEjP11Il2CppClassP12Il2CppObject
IJi:__Z72RuntimeInvoker_CustomAttributeNamedArgument_t287865710_Int32_t2950945753PFvvEPK10MethodInfoPvPS4_
cD:__ZNK11AudioSource9IsPlayingEv
JDa:__ZNSt3__26vectorIN15QualitySettings14QualitySettingENS_9allocatorIS2_EEE6assignIPS2_EENS_9enable_ifIXaasr21__is_forward_iteratorIT_EE5valuesr16is_constructibleIS2_NS_15iterator_traitsIS9_E9referenceEEE5valueEvE4typeES9_S9_
mea:__ZNK5Unity9Component10GetEnabledEv
c2f:_ScrollRect_get_scrollSensitivity_m2832710591
eFh:_EqualityComparer_1__cctor_m3995042002_gshared
F0c:__GLOBAL__sub_I_artifacts_WebGL_codegenerator_0_cpp_5479
W_i:_List_1_CopyTo_m1758106197_gshared
wOh:_List_1_CheckCollection_m1671972112_gshared
l2j:_il2cpp_class_get_image
Shf:_Enumerator_System_Collections_IEnumerator_get_Current_m1747693366_gshared
XQh:_UnicodeEncoding_GetPreamble_m3002287178
JW:__Z16AsyncReadRequestP16AsyncReadCommand
EIj:__ZNK15dense_hashtableINSt3__24pairIK10KeyWrapperIPK22Il2CppGenericParameterEP11Il2CppClassEES6_N6il2cpp5utils11PointerHashIS4_EEN14dense_hash_mapIS6_S9_SE_NS6_14EqualsComparerINS0_8equal_toIS5_EEEENS0_9allocatorISA_EEE9SelectKeyESJ_SL_E12test_deletedEj
avj:_AudioSource_get_spatialize_m3609701298
nNe:__ZL56Toggle_t2735377061_CustomAttributesCacheGenerator_m_IsOnP21CustomAttributesCache
A7a:__ZN20GpuProgramParameters14AddVectorParamEPKcii15ShaderParamTypeiiiP16PropertyNamesSet
cvd:__ZN9Scripting19UnityEngineInternal15WebRequestUtils12CleanupProxyEv
zvd:__ZNK12HeaderHelper3GetERKN4core12basic_stringIcNS0_20StringStorageDefaultIcEEEE
_Oa:__ZN9InputAxis8TransferI14SafeBinaryReadEEvRT_
DT:__ZNK21ExecutionOrderManager30GetCustomAwakeFromLoadQueueForEPKN5Unity4TypeE
yud:__Z27RegisterModule_UnityConnectv
Zvd:__ZN18CertificateHandler7ReleaseEv
Wfc:__ZZL31RegisterRectTransformPropertiesR22GenericPropertyBindingEN32Wrapper_RectTransformSizeDeltax013GetFloatValueEPv
h3g:_MemoryStream_Expand_m3554752073
TZj:__ZN6il2cpp2vm10Reflection27GetCustomAttributesCacheForEP25Il2CppReflectionParameter
PFf:_ScriptableObject_CreateInstance_m2611081756
lpe:__ZL115TouchScreenKeyboard_t731888065_CustomAttributesCacheGenerator_TouchScreenKeyboard_Open_m3609399077____keyboardType1P21CustomAttributesCache
sbf:_InternalEnumerator_1_System_Collections_IEnumerator_get_Current_m1635397542_gshared
O3g:_Path__cctor_m3273994011
yrj:_AnalyticsEventTracker__ctor_m3064238498
Ixk:__ZNSt11logic_errorD2Ev
Vch:_DateTimeUtils_CountRepeat_m3396693018
qWc:__ZNK17Physics2DSettings22GetTypeVirtualInternalEv
bEk:_glBindRenderbuffer__wrapper
FB:__ZN10ObjectPoolIN4FMOD12ChannelGroupENS0_13ChannelGroupIEE7SetSizeEi
Jqj:_SymmetricTransform_FinalDecrypt_m764004682
vKc:__ZN12b2MouseJointC2EPK15b2MouseJointDef
XFc:__ZN9Scripting11UnityEngine26ParticleSystemVertexStream9InitProxyEv
D0i:_List_1_System_Collections_IList_get_Item_m1315368445_gshared
oIe:__ZL114PointerEventData_t3807901092_CustomAttributesCacheGenerator_PointerEventData_get_pointerCurrentRaycast_m2627585223P21CustomAttributesCache
tjj:_Parser_ParseGroupingConstruct_m263270497
$yd:_UIBehaviour_OnDisable_m1784507360
Gve:__ZL112PlayerConnection_t3081694049_CustomAttributesCacheGenerator_PlayerConnection_MessageCallbackInternal_m1914517467P21CustomAttributesCache
sO:__Z22ValidateTlsfAllocationPvjiS_
K5e:_InternalEnumerator_1_MoveNext_m3525157932_gshared
wud:__ZN11UnityEngine9Analytics22EventLimitReachedEventC2EjyyRKN4core12basic_stringIcNS2_20StringStorageDefaultIcEEEEb
Orf:_Color__ctor_m2943235014_AdjustorThunk
C$j:__ZN14dense_hash_mapI10KeyWrapperINSt3__24pairIPK9EventInfoP11Il2CppClassEEEj17ReflectionMapHashIS8_ENS9_14EqualsComparerINS1_8equal_toIS8_EEEENS1_9allocatorINS2_IKS9_jEEEEE15set_deleted_keyERSH_
ecb:__Z14resize_trimmedINSt3__26vectorI17AnimationCurveTplIfE13stl_allocatorIS3_L18MemLabelIdentifier1ELi16EEEEEvRT_j
fcc:__Z12GUIDToStringRK9UnityGUID
PJf:_Vector4_op_Division_m264790546
ZC:__ZN11SoundHandleC2ERKS_
tUf:_InputField_set_shouldHideMobileInput_m1650743574
MOj:__ZNK6il2cpp5utils11collections13ArrayValueMapIPK10Il2CppType17Il2CppInteropData26InteropDataToTypeConverterNS_8metadata14Il2CppTypeLessENS8_26Il2CppTypeEqualityComparerEE10find_firstERKS5_
OTc:__ZN16b2PrismaticJoint16SetMaxMotorForceEf
X1i:_List_1_Reverse_m1445355384_gshared
E1g:_FileStream_get_CanSeek_m331583577
MYb:__Z29StdTemplateConversionFunctionItxEbPvR14SafeBinaryRead
RLf:_WellKnownServiceTypeEntry_get_ObjectType_m3211195371
Iuj:_PCMReaderCallback_EndInvoke_m3916876196
Ir:__ZNSt3__26__sortIR23DependencySortPredicatePN4core4pairIiP9BehaviourLb0EEEEEvT0_S9_T_
dje:__ZL65MissingMethodException_t1274661534_CustomAttributesCacheGeneratorP21CustomAttributesCache
rSf:_DSAParameters_t1885824122_marshal_pinvoke_back
Tvh:_Kernel_MultiplyByDword_m1266935086
mjk:__ZN4utf89unchecked8utf8to16INSt3__220back_insert_iteratorINS2_12basic_stringIDsNS2_11char_traitsIDsEENS2_9allocatorIDsEEEEEEPKcEET_T0_SE_SD_
qah:_Convert_ToInt64_m3916071102
voi:__Z158RuntimeInvoker_Boolean_t97287965_RuntimeObject_Int32U26_t1369213839_Int32_t2950945753_Int32_t2950945753_RuntimeObject_SByte_t1669577662_ContextU26_t3937453398PFvvEPK10MethodInfoPvPS4_
Wzg:_String_Trim_m3384720403
Mra:__ZN14RenderSettings18TransferDeprecatedI14SafeBinaryReadEEvRT_
Lsi:__Z93RuntimeInvoker_Single_t1397266774_SingleU26_t1922108698_Single_t1397266774_Single_t1397266774PFvvEPK10MethodInfoPvPS4_
C7j:__ZN6il2cpp2vm9Exception27RaiseNullReferenceExceptionERKNS_5utils10StringViewIDsEEP19Il2CppSequencePoint
znj:_Event__ctor_m526447123
qje:__ZL56RankException_t3812021567_CustomAttributesCacheGeneratorP21CustomAttributesCache
XFi:__Z72RuntimeInvoker_Boolean_t97287965_CustomAttributeNamedArgument_t287865710PFvvEPK10MethodInfoPvPS4_
Vvi:__Z88RuntimeInvoker_RuntimeObject_RuntimeObject_RuntimeObject_RuntimeObject_Int32_t2950945753PFvvEPK10MethodInfoPvPS4_
cXh:_Type_ToString_m3975981286
aP:__ZN12TLSAllocatorI14StackAllocatorE8AllocateEji
mwj:_ConsumeSampleFramesNativeFunction_BeginInvoke_m342678987
CU:__ZN16ScriptingManager18GetMonoScriptCacheEi
mGb:__ZN20ArchiveStorageHeader13GetDataOffsetERKNS_6HeaderE
Hjj:_ExpressionAssertion__ctor_m2554412824
dlj:_CapturingGroup_IsComplex_m4061114763
ePi:_Array_Resize_TisCustomAttributeTypedArgument_t2723150157_m3021884250_gshared
PJh:_Enumerator_System_Collections_IEnumerator_get_Current_m2237476582_gshared
zab:__Z18Transfer_BlittableI14SafeBinaryReadLb1EyEvRK29SerializationCommandArgumentsR31RuntimeSerializationCommandInfo
o$h:_WeakReference_Finalize_m2841826116
QTe:_NullReferenceException__ctor_m3076065613
kzc:__ZN8JSONRead8TransferIfEEvRT_PKc17TransferMetaFlagsb
wAj:__ZL25UnresolvedVirtualCall_221P12Il2CppObject6Guid_tS1_PK10MethodInfo
UYf:_LayoutGroup_OnDisable_m3483954898
ZSh:_SynchronizationLockException__ctor_m3407855920
ebi:_Comparison_1_EndInvoke_m3981968715_gshared
_3b:__ZN9ShaderLab7Program22ComputeSupportsShadowsEv
Aag:_X509SubjectKeyIdentifierExtension_Decode_m1505409124
g4b:__ZL23AddGpuProgramParametersR20GpuProgramParametersRKNSt3__26vectorIN9ShaderLab20SerializedSubProgram15MatrixParameterENS1_9allocatorIS5_EEEERKNS2_INS4_15VectorParameterENS6_ISB_EEEEiiP16PropertyNamesSet
s2:__ZN6prcoreL17RemapGenericFloatI18TexFormatARGBFloat17TexFormatRGBAHalfEEvPKNS_9InnerInfoE
vrj:_AnalyticsEventParamListContainer__ctor_m1995104893
zzg:_String_System_IConvertible_ToUInt16_m2888090399
CWe:_Assembly_InternalGetType_m3065345470
PH:__ZN13Simd4iFactoryIN6detail9FourTupleEEC2Eiiii
x4e:_InternalEnumerator_1__ctor_m3390957028_gshared
PUd:_ResourceSet__ctor_m3356376607
yHd:_FloatTween_set_startValue_m53556027_AdjustorThunk
nBd:_PhysicsRaycaster_get_maxRayIntersections_m3887348715
Lae:__ZL56_ParameterInfo_t489405856_CustomAttributesCacheGeneratorP21CustomAttributesCache
dGa:__ZN15SerializeTraitsI33EnlightenTerrainChunksInformationE8TransferI14SafeBinaryReadEEvRS0_RT_
oLc:__ZN6b2Body12SetTransformERK6b2Vec2f
Akc:__ZNK32RendererMaterialAnimationBinding9BindValueER6ObjectRKN11UnityEngine9Animation14GenericBindingERNS3_10BoundCurveE
RLe:__ZL109MaskableGraphic_t3839221559_CustomAttributesCacheGenerator_MaskableGraphic_ParentMaskStateChanged_m1092090553P21CustomAttributesCache
imf:_Transform_1_Invoke_m1731820209_gshared
JJj:__ZN6il2cpp2vm5Class11IsInterfaceEPK11Il2CppClass
Wee:__ZL50Decoder_t2204182725_CustomAttributesCacheGeneratorP21CustomAttributesCache
tza:__ZL18stbir__support_onef
Syg:_Single_CompareTo_m189772128
ZAc:__Z26Transfer_UnityEngineObjectI9JSONWriteLb0EEvRK29SerializationCommandArgumentsR31RuntimeSerializationCommandInfo
Hdf:_DefaultComparer_Compare_m4042058291_gshared
AMd:_Image_set_overrideSprite_m3213596394
exa:__ZNSt3__26vectorIN4core12basic_stringIcNS1_20StringStorageDefaultIcEEEE13stl_allocatorIS5_L18MemLabelIdentifier1ELi16EEE6assignINS_11__wrap_iterIPS5_EEEENS_9enable_ifIXaasr21__is_forward_iteratorIT_EE5valuesr16is_constructibleIS5_NS_15iterator_traitsISF_E9referenceEEE5valueEvE4typeESF_SF_
Dmd:__ZNSt3__27__sort5IRNS_6__lessIN2UI14DepthSortEntryES3_EEPS3_EEjT0_S7_S7_S7_S7_T_
o1g:_FileLoadException_ToString_m2989457882
Gdj:_AuthorityKeyIdentifierExtension__ctor_m2197389230
svj:_AudioListener_ClearExtensionProperties_m3849891634
N3c:_UNITY_FT_DivFix
xSi:_Array_InternalArray__get_Item_TisDecimal_t2948259380_m3511003792_gshared
yx:__ZL45__ManagedRegistrationHelperFunction_AudioClipPv
cXc:__ZN17PolygonCollider2D12SetPolygon2DEP9Polygon2D
kwg:_SecurityElement_IsValidAttributeValue_m948345692
Pjc:__ZN14Texture2DArrayC2E10MemLabelId18ObjectCreationMode
a1e:_Action_3__ctor_m967275408_gshared
Ca:invoke_vdd
Dn:FUNCTION_TABLE_fiii
f9d:__ZL102MethodInfo_t_CustomAttributesCacheGenerator_MethodInfo_MakeGenericMethod_m1996785325____typeArguments0P21CustomAttributesCache
fQe:_TextWriter_Write_m2252948084
_mc:__Z19RegisterModule_Corev
s_d:_AsyncResult_get_CallMessage_m1679778649
mnh:_Array_InternalArray__IEnumerable_GetEnumerator_TisPlayableBinding_t354260709_m1924544205_gshared
Ygc:__ZNK30SpriteRendererAnimationBinding12GetPPtrValueERKN11UnityEngine9Animation10BoundCurveE
Tgd:__ZZ29InitializeTextRenderingModulevEN27cleanupAfterLoadRegistrator7ForwardEv
WSg:_CCFixed_FromDateTime_m3894190577
uUb:__Z29PluginsIssueRenderingExtEvent26UnityRenderingExtEventTypePv
Lni:__Z116RuntimeInvoker_RuntimeObject_RuntimeObject_Int32_t2950945753_RuntimeObject_RuntimeObject_RuntimeObject_RuntimeObjectPFvvEPK10MethodInfoPvPS4_
HPf:_RuntimeMethodHandle__ctor_m2229201676_AdjustorThunk
yNf:_MessageFormatter_ReadMethodCall_m2327590823
rjc:__Z14RandomRotationP9Texture2DPhiiii
Cqh:_Array_InternalArray__ICollection_Add_TisUInt16_t2177724958_m3981262878_gshared
Efh:_Decimal_GetBits_m453754410
cJh:_HashSet_1_Contains_m3173358704_gshared
ptj:_ToggleEvent__ctor_m834619998
Lcf:_InternalEnumerator_1_Dispose_m436383441_AdjustorThunk
dkg:_PKCS1_Encode_v15_m2077073129
I8a:__ZN10Instancing11DrawAPIArgsC2ERK19ShaderPropertySheetPK8Vector4fS6_S6_i
qBh:_Dictionary_2_get_Values_m2682483593_gshared
H0h:_Collection_1_set_Item_m4084225937_gshared
LLi:__Z51RuntimeInvoker_OrderBlock_t1585977831_RuntimeObjectPFvvEPK10MethodInfoPvPS4_
gEf:_RectOffset_get_left_m1232181034
k5j:__ZNSt3__214__split_bufferIN6il2cpp8metadata18GenericArrayMethodERNS_9allocatorIS3_EEED2Ev
o7a:__ZN4gles14UseGLSLProgramER15DeviceStateGLESjbij
iBi:__Z59RuntimeInvoker_Boolean_t97287965_Int32_t2950945753_IntPtr_tPFvvEPK10MethodInfoPvPS4_
HHk:_glDeleteProgram__wrapper
Fza:__ZN6prcoreL18BlitFloatToIntegerERK14ImageReferenceRS0_
Peh:_DBNull_System_IConvertible_ToUInt32_m3784627971
bog:_ClientSessionCache_Add_m964342678
wpc:__ZN23TransformChangeDispatch46GetAndClearChangedTransformsForMultipleSystemsEyR13dynamic_arrayI23TransformAccessReadOnlyLj0EERS0_IyLj0EEPN9profiling6MarkerE
jKb:__Z13GetIPhysics2Dv
VL:__ZN11UnityEngine15CloudWebService14RestDownloader17OnCompleteContentEv
sVj:__ZN15dense_hashtableINSt3__24pairIK10KeyWrapperINS1_IPK14Il2CppAssemblyP11Il2CppClassEEEjEES9_17ReflectionMapHashIS8_EN14dense_hash_mapIS9_jSD_NS9_14EqualsComparerINS0_8equal_toIS8_EEEENS0_9allocatorISB_EEE9SelectKeyESI_SK_E15insert_noresizeERKSB_
G8a:__ZN10Instancing11DrawAPIArgsC2Ev
SHf:_Transform_get_localScale_m129152068
Ufh:_DivideByZeroException__ctor_m3496959969
gCb:__ZN26SinglePassStereoSupportExt19AfterDrawCallStereoEv
t3f:_ScrollRect_get_layoutPriority_m1584702890
Pa:invoke_viffi
fek:__ZN6il2cpp2gcL10CleanupCCWEPvS1_
Sa:invoke_vifff
sGk:_glGetVertexAttribiv__wrapper
Re:_emscripten_request_fullscreen
Adi:_Predicate_1_Invoke_m851618236_gshared
X6d:__ZL67IsolatedStorageException_t3468072396_CustomAttributesCacheGeneratorP21CustomAttributesCache
Mrb:__ZN20LocalFileSystemWebGL6DeleteER13FileEntryDatab
Te:_emscripten_glDisableVertexAttribArray
nlh:_Array_InternalArray__ICollection_Remove_TisSingle_t1397266774_m3361324455_gshared
an:FUNCTION_TABLE_iiiifiiii
Xxe:__ZL90AnimationCurve_t3046754366_CustomAttributesCacheGenerator_AnimationCurve_Cleanup_m35123172P21CustomAttributesCache
S3i:_Collection_1_set_Item_m839097518_gshared
$4e:_InternalEnumerator_1__ctor_m3456047704_gshared
lc:invoke_fifffi
t$h:_Collection_1_System_Collections_IList_Add_m2969482770_gshared
Fwh:_BitConverterLE_GetBytes_m4130646282
TAb:__ZN4gles23ClearCurrentFramebufferEP7ApiGLESbbbRK10ColorRGBAffi
fyg:_UnverifiableCodeAttribute__ctor_m3990698597
rhi:_UnityEvent_1_Invoke_m3604335408_gshared
hie:__ZL79Convert_t2465617642_CustomAttributesCacheGenerator_Convert_ToUInt64_m2652538228P21CustomAttributesCache
cf:_emscripten_glDeleteObjectARB
Qzd:_EventSystem_RaycastComparer_m3685368675
Zf:_IMG_Load
yXc:__ZN14SafeBinaryRead21TransferSTLStyleArrayI13dynamic_arrayIS1_I8Vector2fLj0EELj0EEEEvRT_17TransferMetaFlags
S2:__ZN6prcoreL27StretchGenericFloatBilinearI18TexFormatARGBFloatEEvPKNS_9InnerInfoE
txh:_DSAManaged_CreateSignature_m2233977444
gKe:__ZL87U3CDelayedDestroyDropdownListU3Ec__Iterator0_t3853912249_CustomAttributesCacheGeneratorP21CustomAttributesCache
bFg:_PKCS12_RemoveCertificate_m1421555398
X4f:_Slider_FindSelectableOnLeft_m1667068522
L2:__ZN6prcoreL17RemapGenericFloatI17TexFormatRGBAHalf18TexFormatARGBFloatEEvPKNS_9InnerInfoE
sOc:__ZNSt3__27__sort4IRN18Overlap2DQueryBase29ColliderHitsByDepthComparitorEPP10Collider2DEEjT0_S7_S7_S7_T_
hxc:__Z14GetBuiltinSkini
F$d:_MethodDictionary_get_Item_m1201458851
qH:___cxx_global_var_init_13
FH:___cxx_global_var_init_10
GH:___cxx_global_var_init_11
Vki:__Z60RuntimeInvoker_SByte_t1669577662_RuntimeObject_RuntimeObjectPFvvEPK10MethodInfoPvPS4_
Ywh:_CryptoConvert_ToInt32LE_m3340980429
ol:_JS_SystemInfo_GetBrowserVersionString
aXa:__ZN2UI13RectTransform23VirtualRedirectTransferER14SafeBinaryRead
ERa:__ZN24GenerateTypeTreeTransfer8TransferINSt3__26vectorIN4core12basic_stringIcNS3_20StringStorageDefaultIcEEEE13stl_allocatorIS7_L18MemLabelIdentifier13ELi16EEEEEEvRT_PKc17TransferMetaFlags
anf:_Enumerator_MoveNext_m3045873697_gshared
Oxi:__Z31RuntimeInvoker_Rect_t2360479859PFvvEPK10MethodInfoPvPS4_
M1b:__ZNSt3__26vectorIN9ShaderLab20SerializedSubProgramENS_9allocatorIS2_EEE6assignIPS2_EENS_9enable_ifIXaasr21__is_forward_iteratorIT_EE5valuesr16is_constructibleIS2_NS_15iterator_traitsIS9_E9referenceEEE5valueEvE4typeES9_S9_
kDc:__Z18Transfer_BlittableI8JSONReadLb0E8BitFieldEvRK29SerializationCommandArgumentsR31RuntimeSerializationCommandInfo
Mvg:_SecurityPermission_set_Flags_m1503445204
YIh:_HashSet_1_CopyTo_m2849056227_gshared
Dkb:__ZL17Transfer_GUIStyleI18StreamedBinaryReadILb1EELb0EEvRK29SerializationCommandArgumentsR31RuntimeSerializationCommandInfo
Luc:__ZN9Scripting11UnityEngine15ScrollViewState9InitProxyEv
Bvh:_ModulusRing_Multiply_m343333088
Wze:__ZL76AnimatorTransitionInfo_t2534804151_CustomAttributesCacheGenerator_m_AnyStateP21CustomAttributesCache
G$b:__ZN9ShaderLab14SerializedPass8TransferI14SafeBinaryReadEEvRT_
Ewc:__Z71Register_UnityEngine_GUILayoutUtility_INTERNAL_CALL_Internal_MoveWindowv
aF:__ZN12AudioManager16SetListenerPauseEb
fXc:__ZThn160_N17PolygonCollider2DD0Ev
QUc:__ZNSt3__26__sortIRN10ClipperLib12LocMinSorterEPNS1_12LocalMinimumEEEvT0_S6_T_
oHc:__ZL50__ManagedRegistrationHelperFunction_ContactPoint2DPv
RAe:__ZL77AudioClip_t3680889665_CustomAttributesCacheGenerator_m_PCMSetPositionCallbackP21CustomAttributesCache
dQh:_StringBuilder_get_Length_m3238060835
Jce:__ZL64OnSerializedAttribute_t2595932830_CustomAttributesCacheGeneratorP21CustomAttributesCache
ea:invoke_viiiiiiiiiii
Dtk:___syscall_ret
yej:_DeriveBytes_set_Salt_m1400945044
ZBd:_PointerEventData_set_worldNormal_m1888481930
dFd:_CanvasScaler_set_referencePixelsPerUnit_m1768965301
pkj:_AnchorInfo__ctor_m46784903
Jmg:_CipherSuiteCollection_get_Item_m4188309062
cbj:_SslHandshakeHash_HashFinal_m2573455475
HZd:_SynchronizationAttribute_ReleaseLock_m1030353464
nlc:__ZN14qsort_internal30FindAndMovePivotToLastPositionIP8Vector2fi26PointDistanceSortPredicateEEvT_S4_T0_T1_
Wod:__Z56Register_UnityEngine_Analytics_CustomEventData_AddDoublev
fIa:__ZN11ChannelInfo8TransferI19StreamedBinaryWriteILb0EEEEvRT_
sjk:__ZN4utf88internal13validate_nextIPKcEENS0_9utf_errorERT_S5_Rj
SSc:__ZN12WheelJoint2D8TransferI14SafeBinaryReadEEvRT_
oNe:__ZL53ToggleGroup_t123837990_CustomAttributesCacheGeneratorP21CustomAttributesCache
xtg:_SHA1Internal_AddLength_m2737455899
Mae:__ZL59_PropertyBuilder_t1366136710_CustomAttributesCacheGeneratorP21CustomAttributesCache
jXf:_InputField_CreateCursorVerts_m3585916868
QAh:_KeyValuePair_2_get_Value_m755756747_gshared
h9b:__Z34Register_UnityEngine_Gradient_Initv
VYf:_LayoutGroup_OnDidApplyAnimationProperties_m1333813659
T_e:_GenericTypeParameterBuilder_IsArrayImpl_m67259334
TYd:_Context_ToString_m1073616138
cTe:_DefaultMemberAttribute_get_MemberName_m3384235354
hJa:__ZN13ScreenManager23SetIsOrientationEnabledE18EnabledOrientationb
nUf:_InputField_EnforceTextHOverflow_m3400115777
Tzk:dynCall_viffffii
QWi:_List_1_System_Collections_IEnumerable_GetEnumerator_m1225415523_gshared
g1c:__ZN9Scripting11UnityEngine12TreeInstance9InitProxyEv
B_c:__Z22RecreatePhysicsWorld2Dv
czi:__Z41RuntimeInvoker_TextureWrapMode_t584250749PFvvEPK10MethodInfoPvPS4_
cPa:__ZN9InputAxis8TransferI19StreamedBinaryWriteILb0EEEEvRT_
TYg:__Z33il2cpp_codegen_check_sub_overflowxx
Qme:__ZL98NativeMethodAttribute_t4187428193_CustomAttributesCacheGenerator_U3CIsThreadSafeU3Ek__BackingFieldP21CustomAttributesCache
gVf:_InputField_get_caretColor_m2973283772
oji:_ListPool_1_Release_m591299672_gshared
wQc:__ZN14qsort_internal5QSortIPN25b2SynchronizeFixturesTask14b2DeferredMoveEiPFbRKS2_S5_EEEvT_S8_T0_T1_
h4d:__ZL160U3CGetEnumeratorU3Ec__Iterator0_t1202911786_CustomAttributesCacheGenerator_U3CGetEnumeratorU3Ec__Iterator0_System_Collections_IEnumerator_get_Current_m596993724P21CustomAttributesCache
H$f:_RectMask2D_get_Canvas_m9990042
nbf:_InternalEnumerator_1_MoveNext_m1096095130_AdjustorThunk
R$h:_Collection_1_RemoveAt_m226266097_gshared
Hhi:_UnityEvent_1_AddListener_m1590149461_gshared
yCe:__ZL63GUISkin_t1244372282_CustomAttributesCacheGenerator_m_ScrollViewP21CustomAttributesCache
Xre:__ZL62SortingGroupsUpdate_t3400410071_CustomAttributesCacheGeneratorP21CustomAttributesCache
yhh:_Double_System_IConvertible_ToInt16_m3591921965_AdjustorThunk
gbi:_Comparison_1_Invoke_m2925518770_gshared
dha:__ZN10GameObject23VirtualRedirectTransferER18StreamedBinaryReadILb0EE
sqj:_SymmetricTransform__ctor_m2693628991
wPe:_ObjectDisposedException__ctor_m1034312941
ug:_glFrontFace
O2g:_FileSystemInfo_InternalRefresh_m1700260373
cJd:_Dropdown_OnSubmit_m1624226516
tje:__ZL101RuntimeMethodHandle_t1133924984_CustomAttributesCacheGenerator_RuntimeMethodHandle_Equals_m3301340296P21CustomAttributesCache
wOj:__ZNK15dense_hashtableINSt3__24pairIK10KeyWrapperIPK19Il2CppGenericMethodEPK26Il2CppGenericMethodIndicesEES6_N6il2cpp8metadata23Il2CppGenericMethodHashEN14dense_hash_mapIS6_SA_SE_NS6_14EqualsComparerINSD_26Il2CppGenericMethodCompareEEENS0_9allocatorISB_EEE9SelectKeyESI_SK_E12test_deletedEj
J_f:_MaskUtilities_IsDescendantOrSelf_m2247511982
Lti:__Z51RuntimeInvoker_UInt16_t2177724958_SByte_t1669577662PFvvEPK10MethodInfoPvPS4_
Vji:__Z46RuntimeInvoker_Double_t594665363_RuntimeObjectPFvvEPK10MethodInfoPvPS4_
Vyi:__Z34RuntimeInvoker_Vector2_t2156229523PFvvEPK10MethodInfoPvPS4_
qia:__ZN12BaseRenderer21SetGlobalLayeringDataE18GlobalLayeringDataj
ygd:__Z51Register_UnityEngine_TextGenerator_GetLinesInternalv
Jmf:_Enumerator_get_Current_m2250080680_AdjustorThunk
drj:_AesManaged_set_Key_m767972181
WXg:_Int16_System_IConvertible_ToBoolean_m1656400658_AdjustorThunk
KLg:_Byte_System_IConvertible_ToInt64_m285584218
WBe:__ZL120GUILayoutUtility_t66395690_CustomAttributesCacheGenerator_GUILayoutUtility_INTERNAL_CALL_Internal_MoveWindow_m2976690564P21CustomAttributesCache
a2:__ZN6prcoreL17RemapGenericFloatI17TexFormatRGBFloat18TexFormatRGBAFloatEEvPKNS_9InnerInfoE
_Qg:_DictionaryEntry_t3123975638_marshal_pinvoke_cleanup
Xph:_Array_InternalArray__ICollection_Add_TisDictionaryEntry_t3123975638_m665385049_gshared
joe:__ZL57BootConfigData_t3818279794_CustomAttributesCacheGeneratorP21CustomAttributesCache
THj:_WritableAttribute__ctor_m1991076220
BRe:_MissingMemberException__ctor_m2707802176
akc:__ZN28ReflectionProbeAnchorManager10InitializeEv
xCj:_Canvas_get_renderMode_m841659411
r_c:__ZN16PhysicsManager2D12BeginContactEP9b2Contact
ePf:_SerializationInfo_GetValue_m42271953
ID:__ZN9AudioClip11CreateSoundEv
Q$j:__ZN14dense_hash_mapI10KeyWrapperINSt3__24pairIPK9FieldInfoP11Il2CppClassEEEj17ReflectionMapHashIS8_ENS9_14EqualsComparerINS1_8equal_toIS8_EEEENS1_9allocatorINS2_IKS9_jEEEEEC2EjRKSB_RKSF_
jx:__ZN4core8hash_setINS_4pairIKiiLb0EEENS_9hash_pairINS_4hashIiEES2_iEENS_10equal_pairINSt3__28equal_toIiEES2_iEEE4growEi
ix:__ZN4core8hash_setINS_4pairIKiiLb0EEENS_9hash_pairINS_4hashIiEES2_iEENS_10equal_pairINSt3__28equal_toIiEES2_iEEE4growEv
Nzf:_PlayerConnection_GetConnectionNativeApi_m3116196780
nXj:__ZNK15dense_hashtableINSt3__24pairIK10KeyWrapperINS1_IPK10MethodInfoP11Il2CppClassEEEjEES9_17ReflectionMapHashIS8_EN14dense_hash_mapIS9_jSD_NS9_14EqualsComparerINS0_8equal_toIS8_EEEENS0_9allocatorISB_EEE9SelectKeyESI_SK_E13find_positionERSA_
Y6b:__Z10tesvertLeqP10TESSvertexS0_
Mtd:__ZN11UnityEngine7Connect16PersistentValues13RestoreValuesER8JSONRead
phd:__ZN9Scripting11UnityEngine8Tilemaps8TileData9InitProxyEv
N3d:__ZL65RuntimeArray_CustomAttributesCacheGenerator_Array_Sort_m182264525P21CustomAttributesCache
JXg:_Guid_BaseToString_m3600006650
L$a:__ZN20ArchiveStorageReader31TryToReadDirectoryFromBlockDataEyPKvj
izd:_PointerEventData_set_pointerEnter_m3256217464
bak:__ZN6il2cpp2vmL11GetIdentityEP14Il2CppIUnknown
ank:_GC_push_gc_structures
Spg:_TlsServerCertificate_ProcessAsTls1_m819212276
gUi:_List_1_System_Collections_Generic_ICollectionU3CTU3E_get_IsReadOnly_m507350231_gshared
BRi:_Dictionary_2_Do_ICollectionCopyTo_TisRuntimeObject_m3942192587_gshared
cUj:__ZN6il2cpp6icalls8mscorlib6SystemL8IsPublicEPK9EventInfo
Vaf:_InternalEnumerator_1_MoveNext_m359138619_AdjustorThunk
WGe:__ZL63EventTrigger_t2527451695_CustomAttributesCacheGenerator_m_RulesP21CustomAttributesCache
rig:_PrimalityTests_RabinMillerTest_m2544317101
X7a:__Z22GetShaderCachePathGLESv
sPc:__ZN27b2UpdateTriggerContactsTask7TaskJobEPS_j
whg:_Kernel_DwordDivMod_m1540317819
Mei:_CachedInvokableCall_1_Invoke_m931536002_gshared
i2i:_Enumerator_System_Collections_IEnumerator_get_Current_m1399273671_gshared
ROd:_TypeBuilder_GetPropertyImpl_m3104345782
zIa:__ZNSt3__213__stable_sortIRNS_4lessI4PPtrI11SpriteAtlasEEENS_11__wrap_iterIPS4_EEEEvT0_SA_T_NS_15iterator_traitsISA_E15difference_typeEPNSD_10value_typeEi
Z_g:_Int64_ToString_m2085073918_AdjustorThunk
dlf:_Transform_1_Invoke_m4084479750_gshared
IPd:_FieldInfo_GetFieldOffset_m1356898082
MLi:__Z36RuntimeInvoker_Enumerator_t652329154PFvvEPK10MethodInfoPvPS4_
gRc:__ZN43b2SolvePositionConstraintsContactSolverTaskD0Ev
urf:_Camera_RaycastTry_m3913529496
M_b:__ZN10BootConfig4Data14InitFromStringEPPKcjS2_
gQ:__ZN8keywords6CreateEPKc
jFj:__ZL7log2_32j
tCf:_Quaternion_Inverse_Injected_m4070500351
S:Math_imul
_2f:_ScrollRect_LateUpdate_m1215231183
fba:__ZN9Scripting11UnityEngine11ContextMenu9InitProxyEv
o0h:_Collection_1_System_Collections_IList_get_Item_m3314684800_gshared
fGi:__Z49RuntimeInvoker_Boolean_t97287965_Byte_t1134296376PFvvEPK10MethodInfoPvPS4_
tLa:__ZN14SpriteRenderer15SetupPropertiesEv
lqg:_TlsServerKeyExchange_Update_m453798279
XDa:__ZN11PlayerPrefs6GetIntERKN4core12basic_stringIcNS0_20StringStorageDefaultIcEEEEi
Qmg:_CipherSuiteCollection_System_Collections_IList_IndexOf_m1361500977
Q5f:_Text_set_fontStyle_m648756124
ggd:__Z45TextGenerator_CUSTOM_INTERNAL_get_rectExtentsP12Il2CppObjectP5RectTIfE
iAi:__Z50RuntimeInvoker_Touch_t1921856868_Int32_t2950945753PFvvEPK10MethodInfoPvPS4_
Iw:__ZN9Scripting11UnityEngine18AssetBundleRequest12CleanupProxyEv
uch:_DateTime__ctor_m2135476686_AdjustorThunk
ZDc:__ZN13GUIStyleState8TransferI8JSONReadEEvRT_
jJa:__ZN13ScreenManager21SetLockCursorInternalE14CursorLockMode
N0d:_SoapFieldAttribute_IsInteropXmlElement_m2819415462
TEf:_RectTransform_GetLocalCorners_m823861473
KPg:_SynchronizedArrayListWrapper_GetEnumerator_m1579424644
P0f:_Scrollbar_get_value_m760470106
Dbi:_Comparison_1_EndInvoke_m2734814639_gshared
dS:__ZN18ScriptingArguments9AddObjectE18ScriptingObjectPtr
hkd:__Z39CanvasGroup_Get_Custom_PropInteractableP12Il2CppObject
ZTc:__ZN16CircleCollider2D23VirtualRedirectTransferER18StreamedBinaryReadILb0EE
nsd:__ZL38InitializeUnityConnectScriptingClassesv
EAj:__ZL25UnresolvedVirtualCall_229P12Il2CppObjectPK10MethodInfo
cVb:__ZN13ProbeRenderer8ConvolveEbijjb
iqj:_GUIUtility_set_systemCopyBuffer_m608712289
nBb:__ZN17GenericDynamicVBOC2ER9GfxDevice13GfxBufferModejj
IOc:__Z28GetPhysics2DScriptingClassesv
Bxc:__ZZN10GUIManager14InitGUIManagerEvEN41PreUpdateIMGUISendQueuedEventsRegistrator7ForwardEv
D9f:_ServicePointManager_get_SecurityProtocol_m966397919
fTg:_CCGregorianCalendar_day_from_fixed_m1674702403
UJ:__ZN11UnityEngine15CloudWebService17SessionEventQueue10PurgeItemsEj
HVb:__ZN6Camera16StandaloneRenderENS_10RenderFlagEP6ShaderRKN4core12basic_stringIcNS3_20StringStorageDefaultIcEEEE
ecg:_X509Chain_PrepareForNextCertificate_m3691934993
Tga:__ZN16LevelGameManager23VirtualRedirectTransferER24GenerateTypeTreeTransfer
MBf:_PlayableOutputHandle_GetHashCode_m2803245663
Xjb:__Z18Transfer_BlittableI18StreamedBinaryReadILb1EELb1EtEvRK29SerializationCommandArgumentsR31RuntimeSerializationCommandInfo
DBe:__ZL58EventType_t3528516131_CustomAttributesCacheGenerator_keyUpP21CustomAttributesCache
Tce:__ZL57X509Certificate_t713131622_CustomAttributesCacheGeneratorP21CustomAttributesCache
eIa:__ZN12BoneWeights48TransferI19StreamedBinaryWriteILb0EEEEvRT_
C3a:__ZN9GfxDevice20DeallocRenderSurfaceEP17RenderSurfaceBase
Znf:_ValueCollection_System_Collections_Generic_ICollectionU3CTValueU3E_get_IsReadOnly_m1110422367_gshared
G7a:__ZN20GpuProgramParameters36UpdatePrepareValuesMaximumBufferSizeEv
Rvj:_AudioSourceExtension_Stop_m387892536
o1i:_List_1_System_Collections_IEnumerable_GetEnumerator_m1355413981_gshared
sth:_SimpleCollator_GetContraction_m2205549079
yHh:_EqualityComparer_1_get_Default_m168544645_gshared
W4h:_ReadOnlyCollection_1_System_Collections_IList_get_IsReadOnly_m3888539454_gshared
wZ:__ZN13RuntimeStaticI10WatermarksLb0EE13StaticDestroyEPv
$ig:_ARC4Managed_GenerateKey_m1607343060
krh:_Array_InternalArray__ICollection_CopyTo_TisDecimal_t2948259380_m2749946216_gshared
mrg:_ReceiveRecordAsyncResult_get_ResultingBuffer_m1839161335
cRa:__ZN30RuntimeInitializeOnLoadManager23VirtualRedirectTransferER14SafeBinaryRead
QZd:_EnvoyInfo__ctor_m276600651
y2c:__ZN20TextRenderingPrivate8FontImpl13CharacterInfo8TransferI18StreamedBinaryReadILb0EEEEvRT_
ghb:__Z29Transfer_Blittable_ArrayFieldI24GenerateTypeTreeTransferfEvRT_R9ArrayInfoRK23StaticTransferFieldInfo
Mee:__ZL113SecurityException_t975544473_CustomAttributesCacheGenerator_SecurityException_t975544473____Demanded_PropertyInfoP21CustomAttributesCache
Ouf:_UnityEvent_FindMethod_Impl_m2312362624
iXb:__ZN19CustomRenderTexture9AddParentE4PPtrIS_E
Xbb:__ZN8Gradient8TransferI14SafeBinaryReadEEvRT_
yqf:_Vector3_GetHashCode_m2879461828
rjj:_Parser_ParseSpecial_m1961501104
Kyg:_Single_System_IConvertible_ToUInt64_m3299129161_AdjustorThunk
dxa:__ZNSt3__26vectorIN4core12basic_stringIcNS1_20StringStorageDefaultIcEEEE13stl_allocatorIS5_L18MemLabelIdentifier1ELi16EEE7reserveEj
rFe:__ZL93CanvasRenderer_t2598313366_CustomAttributesCacheGenerator_CanvasRenderer_set_cull_m4222419074P21CustomAttributesCache
uUh:_TimerCallback_BeginInvoke_m2250763656
O3c:__ZN20TextRenderingPrivate15DynamicFontData36GetFaceForCharacterIfAvailableInFontERKNS_7FontRefERK13dynamic_arrayI4PPtrIN13TextRendering4FontEELj0EEj
Gnf:_ValueCollection_System_Collections_Generic_ICollectionU3CTValueU3E_Contains_m3110959791_gshared
i9f:_IPv6Address_AsIPv4Int_m844941024
Pbc:__Z43PlayerConnectionInternal_CUSTOM_IsConnectedv
ZUa:__ZN18IDCollectorFunctorD0Ev
Mqg:_RecordProtocol__cctor_m1280873827
cyf:_Matrix4x4_MultiplyPoint_m1575665487_AdjustorThunk
ZVd:_Marshal__cctor_m4007734770
Wlk:_GC_new_free_list_inner
mzh:_SymmetricTransform_Random_m2004892672
kwi:__Z79RuntimeInvoker_Void_t1185182177_RuntimeObject_Byte_t1134296376_Byte_t1134296376PFvvEPK10MethodInfoPvPS4_
mkg:_EncryptedPrivateKeyInfo_get_IterationCount_m2912222740
Blk:_GC_err_printf
rxd:__ZN9Scripting11UnityEngine2XR13InputTracking12CleanupProxyEv
Lkg:_RSAManaged_DecryptValue_m1804388365
A2e:_InternalEnumerator_1_System_Collections_IEnumerator_get_Current_m2980550840_AdjustorThunk
_Dc:__ZN8JSONRead8TransferI10RectOffsetEEvRT_PKc17TransferMetaFlagsb
$ak:__ZNK15dense_hashtableINSt3__24pairIK10KeyWrapperINS1_IPKcS4_EEEiEES6_24NamespaceAndNamePairHashN14dense_hash_mapIS6_iS9_NS6_14EqualsComparerI26NamespaceAndNamePairEqualsEENS0_9allocatorIS8_EEE9SelectKeyESD_SF_E12test_deletedERK24dense_hashtable_iteratorIS8_S6_S9_SH_SD_SF_E
DJ:__ZN9JSONWrite8TransferIN11UnityEngine15CloudWebService14DataErrorEvent15FileErrorDetailEEEvRT_PKc17TransferMetaFlags
J7i:_Collection_1_ClearItems_m2728738230_gshared
PZg:_Int32_Parse_m2087562008
cia:__Z21ClearFenceWithoutSyncR8JobFence
$8e:_InternalEnumerator_1_Dispose_m630370856_AdjustorThunk
GSd:_MonoProperty_GetAccessors_m412928203
Uii:_TweenRunner_1_Start_m3757154622_gshared
kA:__ZN12SoundManager20RegisterModifiedClipEP10SampleClip
gLf:_RemotingServices_GetClientChannelSinkChain_m1499550585
DWe:_Assembly_FillName_m1660001542
Aae:__ZL56_EventBuilder_t2558055199_CustomAttributesCacheGeneratorP21CustomAttributesCache
a2f:_ScrollRect_get_decelerationRate_m74583805
Xtg:_SHA384Managed_processBlock_m1272529332
RSh:_Interlocked_CompareExchange_m3023855514
sNg:_Char_ToString_m278452217_AdjustorThunk
pMj:__ZN15dense_hashtableI10KeyWrapperIPK17Il2CppGenericInstES4_N6il2cpp8metadata21Il2CppGenericInstHashEN14dense_hash_setIS4_S7_NS4_14EqualsComparerINS6_24Il2CppGenericInstCompareEEENSt3__29allocatorIS4_EEE8IdentityESB_SE_E13set_empty_keyERKS4_
lli:__Z63RuntimeInvoker_Char_t3634460470_Int16_t2552820387_RuntimeObjectPFvvEPK10MethodInfoPvPS4_
m9g:_Convert_ToDouble_m2924063577
GZa:__ZNK20LocalFileSystemPosix8IsHiddenERK13FileEntryData
XX:__Z17GetCoreModuleSpecv
bMh:_Enumerator_System_Collections_IEnumerator_get_Current_m3594024719_gshared
ncf:_InternalEnumerator_1_System_Collections_IEnumerator_Reset_m1601477281_AdjustorThunk
z$d:_MethodCall_Init_m86192062
nFe:__ZL113CanvasRenderer_t2598313366_CustomAttributesCacheGenerator_CanvasRenderer_SplitUIVertexStreamsInternal_m3280623346P21CustomAttributesCache
$Aa:__ZN7Cubemap23VirtualRedirectTransferER18StreamedBinaryReadILb0EE
tif:_Enumerator_MoveNext_m76191888_AdjustorThunk
Tbf:_InternalEnumerator_1__ctor_m1739091604_gshared
Qdc:__ZNSt3__27__sort4IRNS_6__lessI11KeyframeTplIfES3_EEPS3_EEjT0_S7_S7_S7_T_
jdd:_Read_CVT
Y$a:__ZN12FileAccessor4SeekEx10FileOrigin
nt:__ZN9Scripting11UnityEngine25RuntimeAnimatorController12CleanupProxyEv
Vfb:__ZL26Transfer_SimpleNativeClassI24GenerateTypeTreeTransfer17AnimationCurveTplIfELb0EEvRK29SerializationCommandArgumentsR31RuntimeSerializationCommandInfo
D8g:_Convert_ToDecimal_m1783778724
Qjf:_ShimEnumerator_get_Value_m153531060_gshared
ATg:_DateTimeFormatInfo__ctor_m3106345035
Gng:_TlsServerKeyExchange_verifySignature_m3412856769
tEh:_EqualityComparer_1_System_Collections_IEqualityComparer_GetHashCode_m4137147946_gshared
u7i:_Collection_1_System_Collections_ICollection_CopyTo_m5285659_gshared
AZ:__ZN16LightmapSettings20DidChangeActiveSceneEP10UnitySceneS1_
whb:__Z18Transfer_BlittableI19StreamedBinaryWriteILb0EELb0EN4math12int3_storageEEvRK29SerializationCommandArgumentsR31RuntimeSerializationCommandInfo
iPe:__ZL59g_AssemblyU2DCSharp_Assembly_CustomAttributesCacheGeneratorP21CustomAttributesCache
qUj:__ZN6il2cpp5utils9PathUtils8BasenameIcEENSt3__212basic_stringIT_NS3_11char_traitsIS5_EENS3_9allocatorIS5_EEEERKSA_
kC:__ZN10AudioMixer11SetupGroupsEv
St:__ZN9Scripting11UnityEngine10Animations21AnimationClipPlayable9InitProxyEv
Evc:__Z35Register_UnityEngine_Event_get_typev
c8:__ZN9Scripting11UnityEngine9Rendering18GraphicsDeviceType12CleanupProxyEv
J7j:__ZN6il2cpp2vm9Exception23GetInvalidCastExceptionERKNS_5utils10StringViewIDsEE
cMe:__ZL64Scrollbar_t1494447233_CustomAttributesCacheGenerator_m_DirectionP21CustomAttributesCache
GBk:_emscripten_glDepthRange__wrapper
xbe:__ZL48Header_t549724581_CustomAttributesCacheGeneratorP21CustomAttributesCache
$Ai:__Z36RuntimeInvoker_EventType_t3528516131PFvvEPK10MethodInfoPvPS4_
dT:__Z63ThreadAndSerializationSafeCheckGetMonoBehaviourBeingTransferredv
h9:__ZN9Scripting11UnityEngine12LightmapData9InitProxyEv
OVi:_List_1_set_Item_m4224739467_gshared
pni:__Z74RuntimeInvoker_Int32_t2950945753_RuntimeObject_RuntimeObject_RuntimeObjectPFvvEPK10MethodInfoPvPS4_
NYe:_ConstructorBuilder_get_Name_m2426555260
vec:__Z37Register_UnityEngine_Input_GetAxisRawv
ike:__ZL80ModulusRing_t596511505_CustomAttributesCacheGenerator_ModulusRing_Pow_m729002192P21CustomAttributesCache
eaa:__ZN9Scripting11UnityEngine12Experimental10PlayerLoop6Update12CleanupProxyEv
sjj:_Parser_ParseCharacterClass_m4285351396
Gah:_Convert_ToSByte_m2653418303
U4g:_SyncHashtable__ctor_m2449935938
ZGc:__ZN17CallbackArrayBaseIPFvRKN4core12basic_stringIcNS0_20StringStorageDefaultIcEEEER8JSONReadbEPFvPKvS6_S8_bEE8RegisterESA_SE_SC_
K5j:__ZN24dense_hashtable_iteratorINSt3__24pairIK10KeyWrapperINS1_IP11Il2CppClassjEEES4_EES6_N6il2cpp8metadata14ArrayClassHashEN14dense_hash_mapIS6_S4_SB_NS6_14EqualsComparerINSA_17ArrayClassCompareEEENS0_9allocatorIS8_EEE9SelectKeyESF_SH_E30advance_past_empty_and_deletedEv
htg:_RSAPKCS1SignatureFormatter_SetKey_m2935054088
sKb:__ZN12ImageFilters27SetSurfaceUseResolvedBufferEP13RenderTextureb
MSf:_HashAlgorithm_TransformBlock_m4006041779
uIb:__ZN25CameraStackRenderingState16SetCurrentCameraEP6Camera
Fya:__ZN14Texture2DArray23VirtualRedirectTransferER18StreamedBinaryReadILb0EE
KRh:_UTF7Encoding_GetByteCount_m209415911
TWa:__ZN2UI13RectTransform13AwakeFromLoadE17AwakeFromLoadMode
_lj:_RegularExpression_Compile_m2385682508
wFf:_ResourceRequest_t3109103591_marshal_pinvoke_back
OPb:__ZN14qsort_internal30FindAndMovePivotToLastPositionIP20ShadowCasterSortDatai26ShadowCasterSortDataSorterEEvT_S4_T0_T1_
ace:__ZL60IRemotingTypeInfo_t2222593263_CustomAttributesCacheGeneratorP21CustomAttributesCache
q9a:__Z18Transfer_BlittableI14SafeBinaryReadLb1EiEvRK29SerializationCommandArgumentsR31RuntimeSerializationCommandInfo
kcg:_X509ExtensionEnumerator_get_Current_m256207749
jWf:_InputField_MoveTextStart_m1087475594
rei:_Predicate_1__ctor_m3829092036_gshared
YEe:__ZL97CanvasGroup_t4083511760_CustomAttributesCacheGenerator_CanvasGroup_get_blocksRaycasts_m1805542303P21CustomAttributesCache
oSg:_EventArgs__cctor_m1889823314
yJg:_Array_Sort_m182264525
BYf:_LayoutGroup_set_padding_m282562135
j4i:_Collection_1_System_Collections_IList_get_IsReadOnly_m773226719_gshared
vXe:_Default_IsArrayAssignable_m953489228
Xu:__ZNK4PPtrI8RendererEcvPS0_Ev
v2j:_il2cpp_field_get_offset
pYh:_UInt16_ToString_m355311020_AdjustorThunk
WTf:_RC2__ctor_m1146135664
Bfi:_InvokableCall_1_remove_Delegate_m667188944_gshared
KZd:_SynchronizedClientContextSink__ctor_m4129963630
Lk:_glGetStringi
rCg:_DecoderExceptionFallback_CreateFallbackBuffer_m1133375601
ock:__ZNK15dense_hashtableI10KeyWrapperIP18Il2CppGenericClassES3_N6il2cpp8metadata22Il2CppGenericClassHashEN14dense_hash_setIS3_S6_NS3_14EqualsComparerINS5_25Il2CppGenericClassCompareEEENSt3__29allocatorIS3_EEE8IdentityESA_SD_E10test_emptyERK30dense_hashtable_const_iteratorIS3_S3_S6_SF_SA_SD_E
Tgf:_Enumerator_get_CurrentKey_m889650866_gshared
vff:_Comparer_1_get_Default_m1513846993_gshared
XAj:__ZL25UnresolvedVirtualCall_248P12Il2CppObjecti25RaycastResult_t3360306849PK10MethodInfo
Dzh:_EncryptedData_get_EncryptionAlgorithm_m1297902161
ZOf:_SerializationEntry__ctor_m1411687997_AdjustorThunk
HGf:_StackTraceUtility_PostprocessStacktrace_m1043256299
Zja:__ZN9Coroutine16SetCurrentMethodE18ScriptingMethodPtr
kgf:_Enumerator_VerifyCurrent_m829026141_gshared
pnc:__ZN16PropertyAccessorC2Ev
tkb:__Z35Transfer_Blittable_FixedBufferFieldI18StreamedBinaryReadILb1EEaEvRK29SerializationCommandArgumentsR31RuntimeSerializationCommandInfo
bMe:__ZL65Scrollbar_t1494447233_CustomAttributesCacheGenerator_m_HandleRectP21CustomAttributesCache
UIa:__ZN13ScreenManager16SetScreenTimeoutEi
web:__Z18Transfer_BlittableI17RemapPPtrTransferLb0EdEvRK29SerializationCommandArgumentsR31RuntimeSerializationCommandInfo
$pe:__ZL104MonoBehaviour_t3962482529_CustomAttributesCacheGenerator_MonoBehaviour_IsObjectMonoBehaviour_m2134950949P21CustomAttributesCache
l5i:_Collection_1_ConvertItem_m1743542180_gshared
ngd:__Z38Register_UnityEngine_Font_HasCharacterv
rLi:__Z68RuntimeInvoker_Boolean_t97287965_Int16_t2552820387_Int16_t2552820387PFvvEPK10MethodInfoPvPS4_
bUb:__Z35IntersectSpherePlaneBoundsOptimizedRKN4math7_float4EPS1_i
osg:_RNGCryptoServiceProvider__cctor_m3587754670
$6e:_InternalEnumerator_1_MoveNext_m1728532725_AdjustorThunk
zX:__ZN17TransformInternal21DetachTransformThreadER18TransformHierarchyjj
ygj:_X509Crl_get_IssuerName_m1792797338
QUi:_List_1_get_Count_m241572196_gshared
Nek:__ZN6il2cpp2os5posix15PosixWaitObject13InterruptWaitEv
fZ:__Z22CleanupLODGroupManagerPv
Avc:__Z21Event_CUSTOM_PopEventP12Il2CppObject
Jck:__ZN6il2cpp8metadata15GenericMetadata20RegisterGenericClassEP18Il2CppGenericClass
ul:_glUniform3fv
Trk:__ZNK6il2cpp8metadata24Il2CppGenericInstCompareclERK10KeyWrapperIPK17Il2CppGenericInstES8_
Fcg:_X509ChainElement_Set_m655180762
GGj:_CustomEventData_AddInt32_m548429697
zCf:_Quaternion_GetHashCode_m2636680144
qOb:__ZNK16LightmapSettings31GetRealtimeLightmapDecodeValuesEv
VB:__ZN5audio5mixer12SetSuspendedERNS0_16AudioMixerMemoryEb
bWa:__ZN17PersistentManager21UnloadNonDirtyStreamsEv
WQh:_UnicodeDecoder__ctor_m3606046165
osi:__Z96RuntimeInvoker_Int32_t2950945753_RuntimeObject_Int32_t2950945753_RuntimeObject_Int32_t2950945753PFvvEPK10MethodInfoPvPS4_
Srj:_AnalyticsEventTracker_OnEnable_m1121905268
zmj:_Uri_get_Parser_m3737125102
GCj:_Canvas_get_overrideSorting_m2740418462
_sf:_Debug_LogFormat_m309087137
HLg:_Byte_System_IConvertible_ToInt16_m4136764794_AdjustorThunk
VJa:__ZN12ImageFilters4BlitER17ShaderPassContextP7TextureP13RenderTextureiPK18SharedMaterialDataPKcP6ShaderiNS_9BlitFlagsE11CubemapFaceRK8Vector2fSH_
xAg:_String_LastIndexOf_m3451222878
phj:_Mark_get_Index_m3048692661
ANe:__ZL69CanvasScaler_t2767979955_CustomAttributesCacheGenerator_m_ScaleFactorP21CustomAttributesCache
ete:__ZL134ISerializationCallbackReceiver_t2363941153_CustomAttributesCacheGenerator_ISerializationCallbackReceiver_OnAfterDeserialize_m735003409P21CustomAttributesCache
cK:__ZN11UnityEngine15CloudWebService10RestClientINS0_23WebRequestRestHeaderMapEED2Ev
Gci:_U3CCreateWhereIteratorU3Ec__Iterator1D_1__ctor_m1723214851_gshared
Rl:_emscripten_glDepthMask
lMf:_RemotingServices_CreateClientProxy_m3886727610
lCa:__ZN4crnd25static_huffman_data_model22prepare_decoder_tablesEv
XCa:__ZN9Texture2D23VirtualRedirectTransferER17RemapPPtrTransfer
Rqg:_RecordProtocol_GetMessage_m2086135164
aRc:__ZN35b2SolvePositionJointConstraintsTaskD2Ev
Fmb:__Z18Transfer_BlittableI18StreamedBinaryReadILb0EELb0E10ColorRGBAfEvRK29SerializationCommandArgumentsR31RuntimeSerializationCommandInfo
FZ:__Znaj
fIk:_emscripten_glEnableClientState__wrapper
xvd:__ZN20UnityWebRequestProtoI24UnityWebRequestTransport16AtomicRefCounter14RedirectHelper14ResponseHelper15DownloadHandler13UploadHandler18CertificateHandler12HeaderHelper14AsyncOperationE26Job_ExecuteUnityWebRequestEPS9_
kP:__ZN17MessageIdentifierC2EPKcNS_7OptionsEPKN5Unity4TypeES1_
oli:__Z45RuntimeInvoker_Void_t1185182177_RuntimeObjectPFvvEPK10MethodInfoPvPS4_
Tyf:_Mesh_SetTriangles_m1523451247
zyg:_Single_System_IConvertible_ToSByte_m1208276900
tOi:_Array_InternalArray__set_Item_TisVector4_t3319028937_m757305038_gshared
zga:__ZN11GameManager15ThreadedCleanupEv
ngc:__ZNSt3__26__treeIPc15compare_tstringIPKcENS_9allocatorIS1_EEE25__emplace_unique_key_argsIS1_JS1_EEENS_4pairINS_15__tree_iteratorIS1_PNS_11__tree_nodeIS1_PvEEiEEbEERKT_DpOT0_
ATc:__ZN13SliderJoint2D23VirtualRedirectTransferER18StreamedBinaryReadILb0EE
Hqi:__Z105RuntimeInvoker_Void_t1185182177_RuntimeObject_RuntimeObject_RuntimeObject_RuntimeObject_Int32_t2950945753PFvvEPK10MethodInfoPvPS4_
qnf:_ValueCollection_System_Collections_Generic_ICollectionU3CTValueU3E_Add_m3298059628_gshared
Jli:__Z64RuntimeInvoker_RuntimeObject_Int16_t2552820387_Int16_t2552820387PFvvEPK10MethodInfoPvPS4_
LF:__Z55Register_UnityEngine_AudioSource_get_spatializeInternalv
bHe:__ZL71TrackableTrigger_t621205209_CustomAttributesCacheGenerator_m_MethodPathP21CustomAttributesCache
Lw:__ZN14SafeBinaryRead8TransferI14ConstantStringEEvRT_PKc17TransferMetaFlags
k8f:__ZN28GenericInterfaceFuncInvoker3IbP26X509Certificate_t713131622P20X509Chain_t194917408iE6InvokeEPK10MethodInfoP12Il2CppObjectS1_S3_i
vIb:__ZNK6Camera16GetStereoEnabledEv
JFa:__ZN16LightmapSettings16CheckConsistencyEv
qvi:__Z72RuntimeInvoker_Int32_t2950945753_TimeSpan_t881159249_TimeSpan_t881159249PFvvEPK10MethodInfoPvPS4_
qrg:_SendRecordAsyncResult_SetComplete_m153213906
MFa:__ZN16LightmapSettings23VirtualRedirectTransferER19StreamedBinaryWriteILb0EE
Sjc:__ZN12LightManager15InitializeClassEv
yUh:_WaitHandle__cctor_m4242752477
Qva:__ZN9ShaderLab11shaderprops16GetComputeBufferEPK19ShaderPropertySheetS3_NS_16FastPropertyNameE
Ujk:__ZN6il2cpp6icalls8mscorlib6System10Reflection10MethodBase31GetMethodFromHandleInternalTypeEii
_U:__ZN23ManagedAttributeManager35CallManagedGetDefaultExecutionOrderE17ScriptingClassPtr
rS:__ZN18ScriptingArgumentsC2Ev
Uqf:_Vector3_op_Equality_m4231250055
Wqi:__Z46RuntimeInvoker_ParameterAttributes_t1826424051PFvvEPK10MethodInfoPvPS4_
BDk:_emscripten_glBlendFuncSeparate__wrapper
avf:_PlayerLoopSystem_t105772105_marshal_pinvoke_back
gGa:__ZN15SerializeTraitsI13dynamic_arrayI7Hash128Lj0EEE19ResizeSTLStyleArrayERS2_i
aCe:__ZL68GUISettings_t1774757634_CustomAttributesCacheGenerator_m_CursorColorP21CustomAttributesCache
T0g:_FileSystemInfo__ctor_m3769019897
fTi:_Array_InternalArray__get_Item_TisContentType_t1787303396_m421427711_gshared
ADf:_Rect_get_xMin_m581135837_AdjustorThunk
UJb:__ZNK25CameraStackRenderingState27GetStereoImageEffectTextureEb
oTf:_HMACSHA384__ctor_m1677515580
_aj:_RIPEMD160Managed_J_m1336489154
juc:__ZL52__ManagedRegistrationHelperFunction_PlayableDirectorPv
iDe:__ZL102GUIUtility_t1868551600_CustomAttributesCacheGenerator_GUIUtility_Internal_GetPixelsPerPoint_m290411053P21CustomAttributesCache
TQj:__ZN6il2cpp6icalls6System6System3Net7Sockets6Socket7ReceiveEiP11Il2CppArrayiiNS4_11SocketFlagsEPi
C8b:__ZN13BuildSettings13GetSceneIndexERKN4core12basic_stringIcNS0_20StringStorageDefaultIcEEEE
Do:FUNCTION_TABLE_ii
rga:__ZN10TagManager8TransferI18StreamedBinaryReadILb0EEEEvRT_
n8i:_Collection_1_System_Collections_IList_get_IsReadOnly_m2202364665_gshared
zAc:__Z18Transfer_BlittableI9JSONWriteLb0E8BitFieldEvRK29SerializationCommandArgumentsR31RuntimeSerializationCommandInfo
Z2g:_MemoryStream_set_Capacity_m1773624579
s4j:__ZNK15dense_hashtableINSt3__24pairIK10KeyWrapperINS1_IP11Il2CppClassjEEES4_EES6_N6il2cpp8metadata14ArrayClassHashEN14dense_hash_mapIS6_S4_SB_NS6_14EqualsComparerINSA_17ArrayClassCompareEEENS0_9allocatorIS8_EEE9SelectKeyESF_SH_E10test_emptyEj
i5f:_SpriteState_set_pressedSprite_m3368686500_AdjustorThunk
A0b:__ZNSt3__26vectorIN9ShaderLab20SerializedSubProgram15StructParameterENS_9allocatorIS3_EEE8__appendEj
tb:invoke_diiii
kIc:__ZN7Joint2D8TransferI17RemapPPtrTransferEEvRT_
hCk:b47
ysj:_EventTrigger_set_initTime_m3128947762
ws:__ZL57__ManagedRegistrationHelperFunction_AnimationClipPlayablePv
vxi:__Z95RuntimeInvoker_Void_t1185182177_RuntimeObject_RuntimeObject_SByte_t1669577662_SByte_t1669577662PFvvEPK10MethodInfoPvPS4_
LZb:__Z24CreateDirectoryRecursiveRKN4core12basic_stringIcNS_20StringStorageDefaultIcEEEE
VBk:b41
O2b:__ZN9ShaderLab20SerializedSubProgram8TransferI18StreamedBinaryReadILb0EEEEvRT_
fsg:_SslClientStream_get_HaveRemoteValidation2Callback_m2858953511
UBk:b40
g1:__ZN19ThreadSpecificValueIP14StackAllocatorE15ReinitializeTLSEPv
ZBk:b43
OQ:__ZN13RuntimeStaticI21ScalableBufferManagerLb0EE13StaticDestroyEPv
Did:__ZN2UI13CanvasManager9AddCanvasEPNS_6CanvasE
LJa:__ZN9Texture3D8TransferI19StreamedBinaryWriteILb0EEEEvRT_
aLb:__ZNK6Camera22CalculateRenderingPathEv
WBk:b42
UBc:__ZN9JSONWrite8TransferI5RectTIfEEEvRT_PKc17TransferMetaFlags
pHg:_Hashtable_TestPrime_m3839319309
SCb:__Z13ConvertMipmap14GraphicsFormatPKvS_Pviiii
kGa:__ZN28EnlightenRendererInformation8TransferI14SafeBinaryReadEEvRT_
sw:__ZN9Scripting11UnityEngine2XR5Tango24MeshReconstructionServer9InitProxyEv
REg:_PKCS12_get_IterationCount_m626423090
Beb:__ZL12InvokeMethodI17RemapPPtrTransferEvRK29SerializationCommandArgumentsR31RuntimeSerializationCommandInfo
g8f:_RemoteCertificateValidationCallback_Invoke_m3086073466
OBg:_StringComparer_Compare_m991165676
Xad:_tt_sbit_decoder_load_image
b4e:_InternalEnumerator_1_MoveNext_m3299696349_AdjustorThunk
vua:__Z14IsHalfRTFormat19RenderTextureFormat
KKc:__ZN15b2DistanceJointD0Ev
_4j:__ZN15dense_hashtableINSt3__24pairIK10KeyWrapperIP11Il2CppClassES4_EES5_N6il2cpp8metadata16SZArrayClassHashEN14dense_hash_mapIS5_S4_SA_NS5_14EqualsComparerINS9_19SZArrayClassCompareEEENS0_9allocatorIS7_EEE9SelectKeyESE_SG_EC2EjRKSA_RKSE_RKSI_
LXg:_Guid_ToString_m3279186591
Gii:_U3CStartU3Ec__Iterator0_Dispose_m261027331_gshared
T$i:_List_1_Find_m3485944732_gshared
Lxc:__ZNSt3__24listIN10GUIManager12SortedScriptE11memory_poolIS2_EE6__sortI13OldSortScriptEENS_15__list_iteratorIS2_PvEESA_SA_jRT_
FGh:_EqualityComparer_1_System_Collections_IEqualityComparer_GetHashCode_m2588073987_gshared
f8i:_Collection_1_System_Collections_IList_Add_m3364892189_gshared
iWi:_List_1_AddEnumerable_m3500350831_gshared
xPj:__ZN24dense_hashtable_iteratorINSt3__24pairIK10KeyWrapperIPK11Il2CppClassEPKcEES6_N6il2cpp5utils11PointerHashIS3_EEN14dense_hash_mapIS6_S9_SE_NS6_14EqualsComparerINS0_8equal_toIS5_EEEENS0_9allocatorISA_EEE9SelectKeyESJ_SL_E30advance_past_empty_and_deletedEv
vJe:__ZL108U3CStartU3Ec__Iterator0_t1249263001_CustomAttributesCacheGenerator_U3CStartU3Ec__Iterator0_Reset_m3373856720P21CustomAttributesCache
qkg:_PrivateKeyInfo_get_PrivateKey_m3647771102
eeb:__Z18Transfer_BlittableI17RemapPPtrTransferLb1E8BitFieldEvRK29SerializationCommandArgumentsR31RuntimeSerializationCommandInfo
x6j:__ZN6il2cpp6icalls8mscorlib6System9ThreadingL11ThreadStartEPv
W$:__ZN15DirectorManager12OnSampleTimeEv
ZSd:__ZN28GenericInterfaceFuncInvoker1IP12Il2CppObjectS1_E6InvokeEPK10MethodInfoS1_S1_
wOd:_TypeBuilder_check_not_created_m3652863637
rDd:_StandaloneInputModule_UpdateModule_m450861257
Yve:__ZL117SupportedRenderingFeatures_t353898663_CustomAttributesCacheGenerator_U3CreflectionProbeSupportFlagsU3Ek__BackingFieldP21CustomAttributesCache
A9h:_ReadOnlyCollection_1_System_Collections_IList_Insert_m2928873627_gshared
jC:__ZNK4PPtrI10AudioMixerEptEv
XFh:_EqualityComparer_1__cctor_m314889309_gshared
Hda:__ZN12CachedReader10Align4ReadEv
PLc:__ZN15b2WorldManifold10InitializeEPK10b2ManifoldRK11b2TransformfS5_f
kDh:_DefaultComparer_GetHashCode_m556015105_gshared
kfj:_X501__cctor_m2428304915
FCj:_Canvas_get_renderOrder_m1489855841
Lqe:__ZL66DispatchEventQueueEvents_t929081739_CustomAttributesCacheGeneratorP21CustomAttributesCache
gmi:__Z50RuntimeInvoker_Void_t1185182177_Single_t1397266774PFvvEPK10MethodInfoPvPS4_
sHe:__ZL77ExecuteEvents_t3484638744_CustomAttributesCacheGenerator_U3CU3Ef__mgU24cache1P21CustomAttributesCache
qEg:_X501_ToString_m4186311521
Pnj:_Event_ToString_m1688862299
rwi:__Z70RuntimeInvoker_Boolean_t97287965_RuntimeObject_IPAddressU26_t589322682PFvvEPK10MethodInfoPvPS4_
RBi:__Z105RuntimeInvoker_Void_t1185182177_Vector2U26_t2376273893_RuntimeObject_RuntimeObject_Vector2U26_t2376273893PFvvEPK10MethodInfoPvPS4_
qea:__ZNK9Behaviour22GetTypeVirtualInternalEv
tIb:__ZN13RendererScene17BeginCameraRenderEv
eTg:_CCGregorianCalendar_month_from_fixed_m4268992710
Unh:_Array_compare_TisUICharInfo_t75501106_m1310495481_gshared
oic:__ZNK28MonoBehaviourPropertyBinding12SetPPtrValueERKN11UnityEngine9Animation10BoundCurveEi
XUb:__Z21GetScriptingArraySize17ScriptingArrayPtr
W1c:__ZN20TextRenderingPrivate8FontImpl8TransferI14SafeBinaryReadEEvRT_
_5:__ZL51__ManagedRegistrationHelperFunction_HideInInspectorPv
Vze:__ZL82AnimatorTransitionInfo_t2534804151_CustomAttributesCacheGenerator_m_NormalizedTimeP21CustomAttributesCache
m6d:__ZL55ISymbolWriter_t780458634_CustomAttributesCacheGeneratorP21CustomAttributesCache
fyc:__ZN11IMGUIModule21ClearDeveloperConsoleEv
Pve:__ZL81MessageTypeSubscribers_t1684935770_CustomAttributesCacheGenerator_m_messageTypeIdP21CustomAttributesCache
N7h:_ReadOnlyCollection_1_System_Collections_IList_Clear_m4022532825_gshared
nBg:_Encoding_get_ASCII_m3595602635
PCf:_Ray_get_direction_m761601601_AdjustorThunk
m4a:__ZN9GfxDevice17ImmediateTexCoordEifff
tfd:_ft_black_new
tVc:__ZN10ClipperLib7Clipper13AppendPolygonEPNS_5TEdgeES2_
HZe:_DerivedType_GetCustomAttributes_m3536779709
Lfe:__ZL93Interlocked_t2273387594_CustomAttributesCacheGenerator_Interlocked_CompareExchange_m388540288P21CustomAttributesCache
EOd:_MethodBase_get_IsAbstract_m428833029
PJg:_AssemblyLoadEventHandler__ctor_m896828968
Zr:__ZN13ConstraintJob23ConstraintComponentDataC2ERK18PositionConstraint
Iob:__ZNSt3__26vectorINS_4pairI17ScriptingClassPtrPKN5Unity4TypeEEENS_9allocatorIS7_EEE21__push_back_slow_pathIS7_EEvOT_
wBk:_emscripten_glUniform4f__wrapper
FVi:_List_1_Reverse_m4144036584_gshared
sMh:_Enumerator_MoveNext_m2595190390_AdjustorThunk
dNb:__ZNK6Camera16GetProjectionFarEv
sr:__Z24InverseTransformRotationRK23TransformAccessReadOnlyRKN4math7_float4E
TGc:__ZN11UnityEngine9Analytics16StartupTimeEvent23SetSplashScreenTimeInfoEyyy
kgj:_X509Chain_Build_m2469702749
Cwg:_Evidence_get_IsSynchronized_m3446368195
Oud:__Z31GetPerformanceReportingSettingsv
s7d:__ZL64Path_t1605229823_CustomAttributesCacheGenerator_InvalidPathCharsP21CustomAttributesCache
mAa:__ZN7Texture34CreateFileTextureUploadInstructionE18TextureUploadFlagsj
AZd:__ZN25GenericVirtActionInvoker06InvokeEPK10MethodInfoP12Il2CppObject
$0d:__ZL64SerializableAttribute_t1992588303_CustomAttributesCacheGeneratorP21CustomAttributesCache
F0a:__ZN25SingleBlockMemoryFileDataC2E10MemLabelIdPvjb
hCe:__ZL59GUISkin_t1244372282_CustomAttributesCacheGenerator_m_toggleP21CustomAttributesCache
omc:__ZN19LowerResBlitTexture13ApplySettingsEv
K4j:__ZN15dense_hashtableINSt3__24pairIK10KeyWrapperIP11Il2CppClassES4_EES5_N6il2cpp8metadata16SZArrayClassHashEN14dense_hash_mapIS5_S4_SA_NS5_14EqualsComparerINS9_19SZArrayClassCompareEEENS0_9allocatorIS7_EEE9SelectKeyESE_SG_E4swapERSJ_
Hga:__ZN17GlobalGameManager23VirtualRedirectTransferER18StreamedBinaryReadILb0EE
L3g:_NullStream_SetLength_m1485742029
HMc:__ZNK14b2CapsuleShape5CloneEP16b2BlockAllocator
Xve:__ZL120RenderPipelineManager_t4036911426_CustomAttributesCacheGenerator_RenderPipelineManager_DoRenderLoop_Internal_m3799666479P21CustomAttributesCache
SG:__ZN16BaseVideoTexture19UpdateVideoTexturesEv
FRd:_MonoField_GetValue_m3124733531
hnh:_Array_InternalArray__IEnumerable_GetEnumerator_TisOrderBlock_t1585977831_m2414028303_gshared
CUa:__ZNK16LightmapSettings23HasLightProbeTetrahedraEv
QGa:__ZN6Sprite23VirtualRedirectTransferER19StreamedBinaryWriteILb0EE
$ih:_Enum_GetHashCode_m2848082716
L8b:__ZN2UI13RectTransform12SetAnchorMaxERK8Vector2f
E4j:__ZN14dense_hash_mapI10KeyWrapperIP11Il2CppClassES2_N6il2cpp8metadata16SZArrayClassHashENS3_14EqualsComparerINS5_19SZArrayClassCompareEEENSt3__29allocatorINSA_4pairIKS3_S2_EEEEE13set_empty_keyERSD_
eAd:_EventTrigger_Execute_m2453060771
Pai:_Comparison_1_Invoke_m517083441_gshared
Nmh:_Array_InternalArray__IEnumerable_GetEnumerator_TisIntPtr_t_m2620447453_gshared
pWj:__ZNK15dense_hashtableINSt3__24pairIK10KeyWrapperINS1_IPK9FieldInfoP11Il2CppClassEEEjEES9_17ReflectionMapHashIS8_EN14dense_hash_mapIS9_jSD_NS9_14EqualsComparerINS0_8equal_toIS8_EEEENS0_9allocatorISB_EEE9SelectKeyESI_SK_E5beginEv
ehk:__ZN6il2cpp2os6Thread15CurrentThreadIdEv
z5h:_ReadOnlyCollection_1_System_Collections_IList_get_IsFixedSize_m3402868227_gshared
PEi:__Z82RuntimeInvoker_Boolean_t97287965_Int32_t2950945753_Int32_t2950945753_RuntimeObjectPFvvEPK10MethodInfoPvPS4_
zAb:__ZN14DataBufferGLES11CopySubDataEPKS_jjj
je:_emscripten_glVertexPointer
DUj:__ZN6il2cpp2vm7Runtime47RaiseExecutionEngineExceptionIfMethodIsNotFoundEPK10MethodInfo
Xhj:_PatternCompiler_GetMachineFactory_m3758869886
tQb:__Z17GetFrustumPortionPK8Vector3fffPS_
Tye:__ZL105RectTransform_t3704657025_CustomAttributesCacheGenerator_RectTransform_INTERNAL_get_anchorMin_m1735215721P21CustomAttributesCache
y9j:__ZN15dense_hashtableINSt3__24pairIK10KeyWrapperIP14Il2CppIUnknownEjEES5_N6il2cpp5utils11PointerHashIS3_EEN14dense_hash_mapIS5_jSB_NS5_14EqualsComparerINS0_8equal_toIS4_EEEENS0_9allocatorIS7_EEE9SelectKeyESG_SI_E14squash_deletedEv
vAd:_EventTrigger_OnCancel_m585099428
Dee:__ZL107CodeAccessPermission_t2681295399_CustomAttributesCacheGenerator_CodeAccessPermission_GetHashCode_m880096813P21CustomAttributesCache
dpj:_GUILayoutEntry_ApplyOptions_m1741659338
M_d:_MethodDictionary_set_MethodKeys_m1451825752
UPf:_RuntimeTypeHandle_Equals_m2857439487_AdjustorThunk
Kie:__ZL69GC_t959872083_CustomAttributesCacheGenerator_GC_KeepAlive_m1400443516P21CustomAttributesCache
J2a:__ZNK9GfxDevice27GetPlatformAdjustedViewportEv
h2f:_ScrollRect_get_rectTransform_m2442061719
H4h:_ReadOnlyCollection_1_System_Collections_Generic_IListU3CTU3E_set_Item_m88350439_gshared
zRg:_Hashtable_get_IsSynchronized_m1426775249
IV:__ZNSt3__26vectorINS_4pairIiiEE13stl_allocatorIS2_L18MemLabelIdentifier38ELi16EEE6insertENS_11__wrap_iterIPKS2_EEOS2_
H$:__ZNSt3__26__treeINS_12__value_typeIPvsEENS_19__map_value_compareIS2_S3_NS_4lessIS2_EELb1EEE13stl_allocatorIS3_L18MemLabelIdentifier86ELi16EEE25__emplace_unique_key_argsIS2_JNS_4pairIS2_sEEEEENSD_INS_15__tree_iteratorIS3_PNS_11__tree_nodeIS3_S2_EEiEEbEERKT_DpOT0_
Psj:_StandardEventPayload_IsRequiredDataValid_m361738930
S8i:_Collection_1_System_Collections_IList_IndexOf_m3360434989_gshared
Fkj:_Reference_Compile_m4195878675
e7h:_ReadOnlyCollection_1_System_Collections_ICollection_CopyTo_m2672196987_gshared
snc:__ZN16StreamedResource8TransferI24GenerateTypeTreeTransferEEvRT_
sEf:_RectTransform_get_anchorMin_m2928307238
DNg:_ArrayList__ctor_m3828927650
Yna:__ZN10Matrix3x3f15InvertTransposeEv
ppj:_GUILayoutGroup_SetHorizontal_m996475327
Exg:_SecurityException_get_Demanded_m2500043391
gpj:_GUILayoutEntry__cctor_m663865902
Keg:_CaptureCollection_GetEnumerator_m732412500
TUf:__ZN23GenericVirtFuncInvoker2IDsiDsE6InvokeEPK10MethodInfoP12Il2CppObjectiDs
QHb:__Z11IsBatchmodev
XKh:_Enumerator_System_Collections_IEnumerator_get_Current_m713684915_gshared
bdb:__Z29Transfer_Blittable_ArrayFieldI14SafeBinaryRead8Vector3fEvRT_R9ArrayInfoRK23StaticTransferFieldInfo
oPd:_MemberInfo__ctor_m3258770133
Cce:__ZL62IFormatterConverter_t2171992254_CustomAttributesCacheGeneratorP21CustomAttributesCache
xhe:__ZL78Convert_t2465617642_CustomAttributesCacheGenerator_Convert_ToSByte_m4075629912P21CustomAttributesCache
zKf:_SoapTypeAttribute_get_XmlTypeNamespace_m4211398148
L2c:__ZN20TextRenderingPrivate8FontImpl18ResetCachedTextureEv
fTj:__ZN6il2cpp6icalls8mscorlib6SystemL16GetFieldFromTypeINS_5utils10functional6FilterINSt3__212basic_stringIcNS7_11char_traitsIcEENS7_9allocatorIcEEEENS4_13VmStringUtils21CaseSensitiveComparerEEEEEP21Il2CppReflectionFieldP11Il2CppClassSK_iRKT_
Dag:_X509KeyUsageExtension_Decode_m3150759625
Emk:_GC_print_finalization_stats
fjf:_KeyCollection_System_Collections_ICollection_get_IsSynchronized_m2596089789_gshared
hjb:__Z35Transfer_Blittable_SingleValueFieldI19StreamedBinaryWriteILb0EE8Vector3fEvRT_R17GeneralMonoObjectRK23StaticTransferFieldInfo
$ea:__ZN11NamedObject15ThreadedCleanupEv
PJc:__ZNK12b2WheelJoint10GetAnchorBEv
Wpj:_GUITargetAttribute_GetGUITargetAttrValue_m2954410352
o9b:__Z53Register_UnityEngine_Behaviour_get_isActiveAndEnabledv
GJg:_SimpleEnumerator_get_Current_m72361444
Tq:__ZNSt3__26vectorIN4core12basic_stringIcNS1_20StringStorageDefaultIcEEEENS_9allocatorIS5_EEE8__appendEj
Okf:__ZN21InterfaceFuncInvoker2I27DictionaryEntry_t3123975638P12Il2CppObjectbE6InvokeEjP11Il2CppClassS2_S2_b
y2j:_il2cpp_gc_collect
OPa:__ZN26PlayerSettingsSplashScreen8TransferI17RemapPPtrTransferEEvRT_
xwh:_ASN1_set_Value_m2803403806
mTj:__ZN6il2cpp6icalls8mscorlib6SystemL17CollectTypeFieldsINS_5utils10functional10TrueFilterEEEvP11Il2CppClassPKS7_iRNSt3__26vectorIP9FieldInfoNSB_9allocatorISE_EEEERKT_
Fmi:__Z52RuntimeInvoker_Int16_t2552820387_Decimal_t2948259380PFvvEPK10MethodInfoPvPS4_
jac:__Z13GetTagManagerv
iHg:_Hashtable__ctor_m1815022027
pdi:__ZN28GenericInterfaceFuncInvoker1Ib39CustomAttributeNamedArgument_t287865710E6InvokeEPK10MethodInfoP12Il2CppObjectS0_
hSh:_UTF8Encoding_GetChars_m1433288684
$Fj:_Physics2D_GetRayIntersectionNonAlloc_Internal_m177321563
aFj:__ZL10roundUp128PyS_
yI:__ZN11UnityEngine15CloudWebService17CloudJobSchedulerD0Ev
Pki:__Z50RuntimeInvoker_Boolean_t97287965_SByte_t1669577662PFvvEPK10MethodInfoPvPS4_
J1e:_ArrayReadOnlyList_1_Contains_m381552673_gshared
OGi:__Z105RuntimeInvoker_Int32_t2950945753_RuntimeObject_OrderBlock_t1585977831_Int32_t2950945753_Int32_t2950945753PFvvEPK10MethodInfoPvPS4_
nGc:__ZN11UnityEngine9Analytics26PerformanceReportingConfig13ConfigChangedERKN4core12basic_stringIcNS2_20StringStorageDefaultIcEEEER8JSONRead
UVh:_TimeZone_ToUniversalTime_m2789507578
cmi:__Z96RuntimeInvoker_Boolean_t97287965_RuntimeObject_RuntimeObject_Int32_t2950945753_Int32_t2950945753PFvvEPK10MethodInfoPvPS4_
voh:_Array_IndexOf_TisUICharInfo_t75501106_m3198896198_gshared
gpg:_Context_get_Current_m2853615040
rVc:__ZN10ClipperLib7Clipper14IntersectEdgesEPNS_5TEdgeES2_RNS_8IntPointE
LUg:_CultureInfo_construct_internal_locale_from_lcid_m2668301444
Zvh:_PrimeGeneratorBase__ctor_m2973488305
Wxc:__Z21CleanupGlobalGUIStatev
ZWh:_Type_IsContextfulImpl_m3693603908
b3d:__ZL81RuntimeArray_CustomAttributesCacheGenerator_Array_GetValue_m120423883____indices0P21CustomAttributesCache
PLh:_Enumerator_VerifyState_m2873941769_gshared
ymb:__Z18Transfer_BlittableI18StreamedBinaryReadILb0EELb1EN4math12int3_storageEEvRK29SerializationCommandArgumentsR31RuntimeSerializationCommandInfo
Oji:__Z56RuntimeInvoker_RuntimeObject_RuntimeObject_RuntimeObjectPFvvEPK10MethodInfoPvPS4_
gFb:__ZN22VertexDeclarationCache5ClearEv
zRf:_CspParameters__ctor_m3852972821
xHg:_AppDomainInitializer_EndInvoke_m2095010821
$Xb:__ZN17PersistentManager12SetPathRemapERKN4core12basic_stringIcNS0_20StringStorageDefaultIcEEEES6_
_Rb:__ZN6Camera24PrepareCullingParametersERK23CameraCullingParameters13RenderingPathR11CullResults
jSb:__Z20CullReflectionProbesR8JobFenceRK22SceneCullingParametersRK23ReflectionProbesContextPKjjPjS9_
Voc:__Z12SetIUISystemP9IUISystem
qTa:__ZN19RuntimeSceneManager22EndIntegrateMainThreadEP10UnitySceneNS_11LoadingModeE
dQi:_Array_Sort_TisUICharInfo_t75501106_m3474449559_gshared
cEg:_Buffer_BlockCopy_m2884209081
Oub:__ZNSt3__218__insertion_sort_3IRN10vector_mapIiN17InstancingBatcher12PropertyTypeENS_4lessIiEE13stl_allocatorINS_4pairIiS3_EEL18MemLabelIdentifier1ELi16EEE13value_compareEPS8_EEvT0_SF_T_
WXa:__ZN17WeakPtrSharedDataD0Ev
Uij:_QuickSearch_GetShiftDistance_m2542665852
xyb:__ZN13GfxDeviceGLES15OnDeviceCreatedEb
EMa:__Z32TransferEnumWithNameForceIntSizeI14SafeBinaryRead11IndexFormatEvRT_RT0_PKc17TransferMetaFlags
FSi:_Array_InternalArray__get_Item_TisCustomAttributeTypedArgument_t2723150157_m2639399822_gshared
Luh:_BigInteger_GenerateRandom_m3141592944
Zgb:__Z29Transfer_Blittable_ArrayFieldI24GenerateTypeTreeTransfer4AABBEvRT_R9ArrayInfoRK23StaticTransferFieldInfo
Iuc:__ZN9Scripting11UnityEngine12StylePainter12CleanupProxyEv
tgg:_Interval_Contains_m1454846757
EKd:_Graphic_CacheCanvas_m1120385152
edf:_InternalEnumerator_1_MoveNext_m1262906009_gshared
zJd:_U3CDelayedDestroyDropdownListU3Ec__Iterator0_Dispose_m100123149
Muc:__ZN9Scripting11UnityEngine15ScrollViewState12CleanupProxyEv
cKc:__ZN13b2PulleyJoint24SolveVelocityConstraintsERK12b2SolverData
IIc:__ZNK7Joint2D22GetTypeVirtualInternalEv
RNh:_List_1_System_Collections_Generic_IEnumerableU3CTU3E_GetEnumerator_m944444416_gshared
Da:invoke_fiiifii
Wsa:__ZN20SphericalHarmonicsL219AddDirectionalLightERKN4math7_float3ERKNS0_7_float4E
Odg:_X509ChainElementCollection_get_IsSynchronized_m3980338507
N$:__Z26ScheduleJobForEachInternalR8JobFencePFvPvjES1_iPFvS1_E11JobPriority
HFe:__ZL67RemoteSettings_t1718627291_CustomAttributesCacheGenerator_CompletedP21CustomAttributesCache
mHb:__ZZ23InitPlayerLoopCallbacksvEN41PostLateUpdateProfilerEndFrameRegistrator7ForwardEv
Z4b:__ZN9Scripting18RaiseMonoExceptionEPKcz
Lmc:__ZN10GameObject17WillHandleMessageERK17MessageIdentifier
swg:_StrongNamePublicKeyBlob_Equals_m3655422942
pxg:_SecurityContext__ctor_m1730177197
KDj:_RectTransformUtility_GetTransposed_m3952754222
Bkc:__ZN9ShaderLab16FastPropertyName15InitBy28BitHashEj
xJj:__ZN6il2cpp2vm5Class7GetNameEP11Il2CppClass
iVi:_List_1_System_Collections_IList_set_Item_m4182383657_gshared
pFh:_EqualityComparer_1_System_Collections_IEqualityComparer_GetHashCode_m3723747923_gshared
fPi:_Array_Resize_TisOrderBlock_t1585977831_m3449774576_gshared
emb:__ZN15SerializeTraitsI13dynamic_arrayIfLj0EEE19ResizeSTLStyleArrayERS1_i
kpi:__Z96RuntimeInvoker_Void_t1185182177_Int32_t2950945753_Single_t1397266774_RuntimeObject_RuntimeObjectPFvvEPK10MethodInfoPvPS4_
n3h:_ReadOnlyCollection_1_CopyTo_m3722791265_gshared
Uff:_Enumerator_System_Collections_IDictionaryEnumerator_get_Key_m195047678_AdjustorThunk
cVg:_DateTimeFormatInfo_get_RawAbbreviatedMonthNames_m2395953416
ECj:_Canvas_get_pixelPerfect_m333060872
QMa:__ZN17PackedFloatVector12UnpackFloatsEPfiiii
bPd:_TypeBuilder_ToString_m3497908325
F6j:__ZN6il2cpp6icalls8mscorlib6System9Threading6Thread25SetCachedCurrentUICultureEP12Il2CppThreadP12Il2CppObject
gyb:__ZN13GfxDeviceGLES21DestroyComputeProgramER12ObjectHandleI18ComputeProgram_TagPvE
tKa:__ZN17GenericDynamicVBOD2Ev
rij:_PatternCompiler_EmitIfDefined_m2075050865
tfh:_Decimal_System_IConvertible_ToInt64_m1446427516_AdjustorThunk
jZ:__ZN17UniqueIDGenerator16DestroyPureIndexEj
LTe:_NotImplementedException__ctor_m3095902440
CAj:__ZL25UnresolvedVirtualCall_227P12Il2CppObjectPK10MethodInfo
mV:__ZL21AppendNestedClassName17ScriptingClassPtrRN4core17string_with_labelILi1EEE
h0b:__ZN14SafeBinaryRead21TransferSTLStyleArrayINSt3__26vectorIN9ShaderLab20SerializedSubProgram12UAVParameterENS1_9allocatorIS5_EEEEEEvRT_17TransferMetaFlags
a5j:__ZN6il2cpp8metadata13ArrayMetadata20SetupArrayInterfacesEP11Il2CppClassRKNS_2os12FastAutoLockE
zBj:_FontTextureRebuildCallback_Invoke_m3604797831
Eyb:__ZN13GfxDeviceGLES32InitStereoGlobalsBuffersPlatformEiijPKv
dO:__ZNK13BaseAllocator10IsAssignedEv
vJ:__ZN24TextDOMTransferWriteBaseI9JSONWriteE12PushMetaFlagEi
eBj:__ZL25UnresolvedVirtualCall_257P12Il2CppObjecti19Vector2_t2156229523PK10MethodInfo
OCc:__Z18Transfer_BlittableI8JSONReadLb1E10ColorRGBAfEvRK29SerializationCommandArgumentsR31RuntimeSerializationCommandInfo
W2:__ZN6prcoreL26RemapGenericIntegerToFloatI17TexFormatARGB888815TexFormatRFloatEEvPKNS_9InnerInfoE
VN:__ZN5Mutex6UnlockEv
GSj:__ZN6il2cpp2vm10ThreadPool10InitializeEv
EYi:_List_1__ctor_m808270210_gshared
E0j:__ZN6il2cpp2vm17TypeNameParseInfoD2Ev
LIh:_PrimeHelper_ToPrime_m3704362632_gshared
Gz:__ZN4FMOD7Channel7setModeEj
bfh:_Decimal_System_IConvertible_ToType_m2919262279
cJf:_Vector2_get_right_m1027081661
JEa:__ZNK8Renderer8GetLayerEv
W3g:_Stream_Close_m771352034
Qdf:__ZN21InterfaceFuncInvoker1Ii19TimeSpan_t881159249E6InvokeEjP11Il2CppClassP12Il2CppObjectS0_
rsa:__ZN12FlareManager11DeleteFlareEi
mMb:__ZNK6Camera20GetReplacementShaderEv
B$i:_List_1_System_Collections_IList_Remove_m4226673807_gshared
Xqk:__ZNSt3__26__treeINS_12__value_typeINS_12basic_stringIcNS_11char_traitsIcEENS_9allocatorIcEEEEPFvvEEENS_19__map_value_compareIS7_SA_NS_4lessIS7_EELb1EEENS5_ISA_EEE4findIS7_EENS_15__tree_iteratorISA_PNS_11__tree_nodeISA_PvEEiEERKT_
jza:__ZL23stbir__calculate_memoryP11stbir__info
LXj:__ZNK15dense_hashtableINSt3__24pairIK10KeyWrapperINS1_IPK10MethodInfoP11Il2CppClassEEEjEES9_17ReflectionMapHashIS8_EN14dense_hash_mapIS9_jSD_NS9_14EqualsComparerINS0_8equal_toIS8_EEEENS0_9allocatorISB_EEE9SelectKeyESI_SK_E12test_deletedERK24dense_hashtable_iteratorISB_S9_SD_SM_SI_SK_E
Dfg:_Interpreter_Close_m126356671
v6i:_Collection_1_InsertItem_m168969280_gshared
Yid:__ZNSt3__227__insertion_sort_incompleteIRPFbPN2UI6CanvasES3_EPS3_EEbT0_S8_T_
l0c:__ZN9Scripting11UnityEngine14SphereCollider12CleanupProxyEv
SPh:_Latin1Encoding_GetMaxCharCount_m1720752733
eOj:__ZN6il2cpp5utils13dynamic_arrayIPK10Il2CppTypeLj4EE7reserveEj
Fck:__ZN6il2cpp8metadata15GenericMetadata7InflateEPK19Il2CppGenericMethodPK20Il2CppGenericContext
$Fc:__ZN9Scripting11UnityEngine22ParticleCollisionEvent9InitProxyEv
vIa:__ZN13sorted_vectorIN4core12basic_stringIcNS0_20StringStorageDefaultIcEEEENSt3__24lessIS4_EE13stl_allocatorIS4_L18MemLabelIdentifier81ELi16EEE4findIS4_EENS5_11__wrap_iterIPS4_EERKT_
Ilc:__Z13RegisterClassI30RuntimeInitializeOnLoadManagerEvPKc
jjj:_Parser_HandleExplicitNumericGroups_m1412234891
dTi:_Array_InternalArray__get_Item_TisRaycastHit2D_t2279581989_m2440275162_gshared
VXe:_CustomAttributeNamedArgument_Equals_m1414002036
tDc:__ZL26Transfer_SimpleNativeClassI8JSONRead10RectOffsetLb1EEvRK29SerializationCommandArgumentsR31RuntimeSerializationCommandInfo
pkd:__Z44CanvasRenderer_CUSTOM_INTERNAL_CALL_SetColorP12Il2CppObjectRK10ColorRGBAf
SMh:_List_1__ctor_m3376109328_gshared
z_e:_FieldBuilder_GetFieldOffset_m725157755
eoa:__Z26TransformVerticesInnerLoopILb1ELb1ELb1EEvPhRK10Matrix4x4fRK10Matrix3x3fjPKhiS8_ii25GfxTransformVerticesFlagsj
bnf:_Enumerator_MoveNext_m3045873697_AdjustorThunk
kKh:_Enumerator_System_Collections_IEnumerator_Reset_m959124362_AdjustorThunk
NUc:__ZN10ClipperLib11ClipperBaseD0Ev
tLb:__ZNK20DynamicPropertySheet18FindQueuedPropertyEN9ShaderLab16FastPropertyNameEN19ShaderPropertySheet12PropertyTypeE
Nih:_Enum_ToObject_m121831801
Iwe:__ZL57AsyncOperation_t1445031843_CustomAttributesCacheGeneratorP21CustomAttributesCache
UMd:_Image_get_hasBorder_m3423344180
Eje:__ZL60TypeLoadException_t3707937253_CustomAttributesCacheGeneratorP21CustomAttributesCache
jVc:__ZN10ClipperLib8JoinHorzEPNS_5OutPtES1_S1_S1_NS_8IntPointEb
zod:__Z48UnityAnalyticsHandler_CUSTOM_SendCustomEventNameP12Il2CppObjectP12Il2CppString
bea:__ZN6ObjectD2Ev
Tcc:__ZN9Transform16SetLocalRotationERK11Quaternionf
G6:__ZL49__ManagedRegistrationHelperFunction_CommandBufferPv
Noi:__Z58RuntimeInvoker_DSAParameters_t1885824122_SByte_t1669577662PFvvEPK10MethodInfoPvPS4_
mIb:__ZN13RenderManager37RenderCamerasWithScriptableRenderLoopEi
GPf:_RuntimeMethodHandle__ctor_m2229201676
KUh:_TimeSpan__ctor_m3689759052
t1d:__ZL49UInt16_t2177724958_CustomAttributesCacheGeneratorP21CustomAttributesCache
i8h:_ReadOnlyCollection_1_System_Collections_Generic_IListU3CTU3E_Insert_m447088589_gshared
VLi:__Z37RuntimeInvoker_Enumerator_t3123848928PFvvEPK10MethodInfoPvPS4_
kdk:__ZN6il2cpp2os19ReleaseSocketHandleEj
XTh:_ThreadStart__ctor_m3250019360
gG:__ZN11AudioModule16GetDSPSampleRateEv
zik:__ZN15dense_hashtableINSt3__24pairIK10KeyWrapperIPK19Il2CppGenericMethodEP10MethodInfoEES6_N6il2cpp8metadata23Il2CppGenericMethodHashEN14dense_hash_mapIS6_S9_SD_NS6_14EqualsComparerINSC_26Il2CppGenericMethodCompareEEENS0_9allocatorISA_EEE9SelectKeyESH_SJ_E5clearEv
qnc:__ZN16PropertyAccessor5ClearEv
gff:_Comparer_1__ctor_m3649041856_gshared
YMd:_Image_OnBeforeSerialize_m3415525254
WUf:_InputField_get_characterValidation_m4196664041
aWh:_Type_get_Attributes_m58528356
Ovf:_SpriteBone_t303320096_marshal_pinvoke
iei:__ZN23GenericVirtFuncInvoker1Ib19Vector2_t2156229523E6InvokeEPK10MethodInfoP12Il2CppObjectS0_
GMb:__ZN6Camera28DefaultPerformRenderFunctionD0Ev
vEg:_Array_GetUpperBound_m4018715963
Tgj:_X509Store__ctor_m2736551756
jfc:__Z13RegisterClassI9TextAssetEvPKc
Gek:__ZN6il2cpp2os5posix15PosixWaitObjectC2ENS2_4TypeE
rKb:__ZN6Camera21PostMultiCustomRenderENS_10RenderFlagEb
LMi:_Array_InternalArray__Insert_TisMonoResource_t4103430009_m1997865927_gshared
nug:_SHA512Managed_HashFinal_m2173184560
IDb:__ZN12_GLOBAL__N_112UploadImagesEP7ApiGLESjji14GraphicsFormatPKhjS2_iiii16TextureUsageModePh
wub:__ZN23ShaderVariantCollection13WarmupShadersEv
qpa:__ZNK4PPtrI8MaterialEptEv
pgc:__ZN13ProduceHelperI9TransformLb0EE7ProduceE10MemLabelId18ObjectCreationMode
rcj:_SslStreamBase_Finalize_m3260913635
VU:__Z25GetCommonScriptingClassesv
_Ta:__Z27scripting_gc_collect_unsafei
Sjg:_MD5SHA1_HashFinal_m4115488658
lG:__ZN11AudioModule20SuspendVideoTexturesEv
Zph:_Array_InternalArray__ICollection_Add_TisKeyValuePair_2_t71524366_m3468275433_gshared
Ghd:__ZN9Scripting11UnityEngine9CSSLayout6Native9InitProxyEv
CF:__Z59Register_UnityEngine_AudioExtensionManager_GetAudioListenerv
x6d:__ZL78Calendar_t1661121569_CustomAttributesCacheGenerator_Calendar_Clone_m1356182658P21CustomAttributesCache
pgb:__Z26Transfer_UnityEngineObjectI24GenerateTypeTreeTransferLb0EEvRK29SerializationCommandArgumentsR31RuntimeSerializationCommandInfo
k9g:_Convert_ToDouble_m278900635
R7c:_UNITY_FT_GlyphLoader_CheckPoints
rtf:_DebugLogHandler_LogException_m302830419
SWf:_InputField_LineDownCharacterPosition_m2798128425
JIh:_PrimeHelper_TestPrime_m2318568626_gshared
C5d:__ZL63KeyNotFoundException_t2292407383_CustomAttributesCacheGeneratorP21CustomAttributesCache
Xgf:_Enumerator_System_Collections_IDictionaryEnumerator_get_Value_m684446183_AdjustorThunk
zsa:__ZN15SharedLightData7PrecalcEv
Cia:__ZN10Matrix4x4fmLERKS_
qq:__ZN4PPtrI9TransformE8TransferI18StreamedBinaryReadILb0EEEEvRT_
eDf:_Vector2__ctor_m3970636864
Zha:__ZN17TransformInternal12InitLocalTRSE15TransformAccessRKN4math7_float3ERKNS1_7_float4ES4_
Sjb:__Z35Transfer_Blittable_FixedBufferFieldI18StreamedBinaryReadILb1EEsEvRK29SerializationCommandArgumentsR31RuntimeSerializationCommandInfo
cI:__ZNK4PPtrI4MeshEdeEv
ijh:_Environment_InternalGetFolderPath_m468390978
lMe:__ZL156U3CClickRepeatU3Ec__Iterator0_t3442648935_CustomAttributesCacheGenerator_U3CClickRepeatU3Ec__Iterator0_System_Collections_IEnumerator_get_Current_m543328413P21CustomAttributesCache
uje:__ZL65StackOverflowException_t3629451388_CustomAttributesCacheGeneratorP21CustomAttributesCache
rjf:_KeyCollection_System_Collections_IEnumerable_GetEnumerator_m2779004382_gshared
SXi:_List_1_System_Collections_Generic_ICollectionU3CTU3E_get_IsReadOnly_m2562366358_gshared
Vjg:_RSASslSignatureFormatter__ctor_m1299283008
mrd:__ZN11UnityEngine15PlatformWrapper18GetOperatingSystemEv
_xg:_SecurityFrame_ToString_m339310712
Pje:__ZL54ThreadStart_t1006689297_CustomAttributesCacheGeneratorP21CustomAttributesCache
G4d:__ZL62ParamArrayAttribute_t3664765590_CustomAttributesCacheGeneratorP21CustomAttributesCache
iKd:_FontUpdateTracker_RebuildForFont_m3134452007
Ppj:_GUIStyleState_t1397964415_marshal_pinvoke
kli:__Z49RuntimeInvoker_Char_t3634460470_Int16_t2552820387PFvvEPK10MethodInfoPvPS4_
vPi:_Array_Resize_TisVector4_t3319028937_m1507893064_gshared
Ctg:_SHA1Managed_HashFinal_m2365675383
UDd:_TouchInputModule_ProcessTouchPress_m3504077560
atj:_FieldWithTarget_get_typeString_m238478345
W3f:_Selectable_IsInteractable_m2611421038
v7c:_FT_MSB
KEh:_EqualityComparer_1_get_Default_m2572737998_gshared
HFk:_emscripten_glReadPixels__wrapper
t7e:_InternalEnumerator_1_MoveNext_m819973544_AdjustorThunk
jrk:__ZN6il2cpp6icalls8mscorlib4Mono8Security12Cryptography18KeyPairPersistence10_CanSecureEP12Il2CppString
yjg:_MD4__ctor_m919379109
Mzj:__ZL25UnresolvedVirtualCall_183P12Il2CppObject20UIVertex_t4057497605PK10MethodInfo
ckh:_Array_InternalArray__ICollection_Contains_TisParameterModifier_t1461694466_m1000453323_gshared
X8d:__ZL57FieldAttributes_t400321159_CustomAttributesCacheGeneratorP21CustomAttributesCache
UAh:_Dictionary_2_System_Collections_ICollection_CopyTo_m4047192178_gshared
_Uj:__ZN6il2cpp2os4File11GetFileStatERKNSt3__212basic_stringIcNS2_11char_traitsIcEENS2_9allocatorIcEEEEPNS0_8FileStatEPi
zJi:__Z60RuntimeInvoker_DictionaryEntry_t3123975638_Int32_t2950945753PFvvEPK10MethodInfoPvPS4_
zbe:__ZL54IMessageCtrl_t317049502_CustomAttributesCacheGeneratorP21CustomAttributesCache
$nd:__ZN14UnityAnalytics22HandleCustomEventLimitERN11UnityEngine9Analytics15UserCustomEventE
ogc:__ZN9TransformC2E10MemLabelId18ObjectCreationMode
mwb:__ZN13GfxDeviceGLES14SetRasterStateEPK17DeviceRasterState
IWe:_Assembly_ToString_m2053237013
Iab:__Z30TransferField_LinearCollectionI14SafeBinaryReadEvRK29SerializationCommandArgumentsR31RuntimeSerializationCommandInfo
_xf:_Vector4_Equals_m1779210055
zSg:_Exception_set_HResult_m3489164646
G9c:_otv_Coverage_get_count
BTd:_ParameterModifier_t1461694466_marshal_pinvoke_back
Xca:__ZN14SafeBinaryRead11EndTransferEv
gHh:_EqualityComparer_1__cctor_m2741186979_gshared
$ab:__ZN14SafeBinaryRead8TransferI8MonoPPtrEEvRT_PKc17TransferMetaFlags
Sle:__ZL70Uri_t100236324_CustomAttributesCacheGenerator_Uri_Unescape_m3373094076P21CustomAttributesCache
azj:__ZL25UnresolvedVirtualCall_145P12Il2CppObject19Vector2_t2156229523PK10MethodInfo
g3f:_ScrollRect_set_verticalNormalizedPosition_m1452826170
Dih:_Enum_System_IConvertible_ToUInt16_m4216751959
Dzi:__Z61RuntimeInvoker_Boolean_t97287965_PlayableHandleU26_t645981773PFvvEPK10MethodInfoPvPS4_
oEb:__ZN21UniformBufferTFMethod13MapBoneBufferEj
ssh:_Array_InternalArray__Insert_TisInt32_t2950945753_m4073217122_gshared
rsg:_RNGCryptoServiceProvider_RngClose_m3915778345
I5g:_SortedList_Remove_m2784369438
XBa:__ZN4crnd12crn_unpacker10unpack_dxnEPPhjjj
qdh:_DateTime_get_Kind_m2154871796_AdjustorThunk
Cpb:__ZN9TextAsset15ThreadedCleanupEv
Khj:_MatchCollection_get_SyncRoot_m1957585059
GV:__ZN14SerializedFileD2Ev
wX:__Z21CompleteFenceInternalR8JobFence
tvc:__Z30Event_Get_Custom_PropModifiersP12Il2CppObject
qMi:__Z79RuntimeInvoker_RuntimeObject_OrderBlock_t1585977831_RuntimeObject_RuntimeObjectPFvvEPK10MethodInfoPvPS4_
OFj:_Physics2D_Raycast_m2858866636
L0d:_SoapAttribute_SetReflectionObject_m4109300849
Ngk:__GLOBAL__sub_I_Thread_cpp_43403
x$f:_RawImage_get_mainTexture_m2396337033
kVj:__ZN6il2cpp2vm10Reflection17GetAssemblyObjectEPK14Il2CppAssembly
CCg:_DecoderFallbackBuffer_Reset_m3069554060
Mob:__ZNSt3__218__stable_sort_moveIRN10vector_mapI17ScriptingClassPtrPKN5Unity4TypeENS_4lessIS2_EENS_9allocatorINS_4pairIS2_S6_EEEEE13value_compareENS_11__wrap_iterIPSB_EEEEvT0_SJ_T_NS_15iterator_traitsISJ_E15difference_typeEPNSM_10value_typeE
Y_b:__ZN6Shader21AwakeFromLoadThreadedEv
e2:__ZN6prcoreL17RemapGenericFloatI17TexFormatRGBFloat17TexFormatRGBAHalfEEvPKNS_9InnerInfoE
Guh:_BigInteger__ctor_m3991350270
$bc:__Z58Register_UnityEngine_PlayerConnectionInternal_PollInternalv
SIf:_Vector2_GetHashCode_m3916089713_AdjustorThunk
Swd:__ZN13RuntimeStaticINSt3__26vectorIjNS0_9allocatorIjEEEELb0EE16StaticInitializeEPv
VK:__ZN13UploadHandler10OnSentDataEj
ysk:__ZN6il2cpp2os9SemaphoreC2Eii
bbb:__ZNSt3__26vectorI8MonoPPtr13stl_allocatorIS1_L18MemLabelIdentifier1ELi16EEE8__appendEj
UKb:__ZN14qsort_internal30FindAndMovePivotToLastPositionIP17RODataReplacementi19ROSorterReplacementEEvT_S4_T0_T1_
zEb:__ZN15UniformTFMethod20IsBoneCountSupportedEi
nGe:__ZL76StandardEventPayload_t1629891255_CustomAttributesCacheGenerator_m_ParametersP21CustomAttributesCache
r4h:_ReadOnlyCollection_1_System_Collections_IList_get_Item_m3076053687_gshared
q_h:_UnauthorizedAccessException__ctor_m246605039
zjc:__Z12BuildTextureIA4_tPFvP9Texture2DPS0_iiiiEES2_PKcii13TextureFormatRKT0_17TextureColorSpaceb
Pzk:dynCall_viidi
wif:_KeyCollection__ctor_m1356492051_gshared
CS:__ZN24ScriptingMethodFiltering17FilterOnSignatureENS_18MethodSearchFilterE
Vnd:__ZNSt3__26__treeINS_12__value_typeIN4core12basic_stringIcNS2_20StringStorageDefaultIcEEEEN11UnityEngine9Analytics15UserCustomEvent11CustomValueEEENS_19__map_value_compareIS6_SB_NS_4lessIS6_EELb1EEE13stl_allocatorISB_L18MemLabelIdentifier6ELi16EEE7destroyEPNS_11__tree_nodeISB_PvEE
T6c:_cf2_arrstack_finalize
Ifj:_X509Certificate_VerifySignature_m3538124832
_3g:_StreamAsyncResult_SetComplete_m1102187093
FNh:_List_1_Sort_m1293013666_gshared
iic:__ZN13MonoBehaviour19HandleNotificationsEPviR11MessageData
bEf:_RectOffset_Init_m2028508611
Zsk:__ZN6il2cpp2os9EventImpl5ResetEv
m_i:_List_1_Sort_m933660666_gshared
hlg:_Alert__ctor_m3135936936
n_g:_Int64_System_IConvertible_ToInt32_m772105781
Ccj:_TlsClientSettings__ctor_m3220697265
lZj:__ZNK15dense_hashtableINSt3__24pairIK10KeyWrapperINS1_IPK9EventInfoP11Il2CppClassEEEjEES9_17ReflectionMapHashIS8_EN14dense_hash_mapIS9_jSD_NS9_14EqualsComparerINS0_8equal_toIS8_EEEENS0_9allocatorISB_EEE9SelectKeyESI_SK_E23find_position_with_hashERSA_j
f6e:_InternalEnumerator_1__ctor_m1579105305_gshared
Tkj:_CaptureAssertion_set_CapturingGroup_m2003123956
Iuk:_copysignl
Fxd:__ZL45__ManagedRegistrationHelperFunction_SubsystemPv
LBi:__Z103RuntimeInvoker_Boolean_t97287965_RuntimeObject_Vector2_t2156229523_RuntimeObject_Vector2U26_t2376273893PFvvEPK10MethodInfoPvPS4_
iAh:_Dictionary_2_make_pair_m2250450206_gshared
HPh:_ForwardingDecoder_GetChars_m4228908854
Yfg:_InterpreterFactory_get_GroupCount_m2226373271
zCk:b53
uCk:b50
vCk:b51
CCk:b56
DCk:b57
ACk:b54
BCk:b55
Ss:__ZL45__ManagedRegistrationHelperFunction_HumanBonePv
ZOh:_List_1_System_Collections_IList_get_IsReadOnly_m3531293387_gshared
Ath:_SimpleCollator_IsSafe_m310268646
unh:_Array_InternalArray__IEnumerable_GetEnumerator_TisWorkRequest_t1354518612_m2622205355_gshared
xLg:_Byte_System_IConvertible_ToByte_m162267264_AdjustorThunk
pFg:_X509Certificate_get_RawData_m2387471414
iEk:_glDetachShader__wrapper
NJg:_ArrayTypeMismatchException__ctor_m3375008173
dkf:_Transform_1_BeginInvoke_m1757796657_gshared
$0j:__ZNSt3__214__split_bufferINS_12basic_stringIcNS_11char_traitsIcEENS_9allocatorIcEEEERNS4_IS6_EEEC2EjjS8_
EJh:_KeyValuePair_2__ctor_m1794021352_AdjustorThunk
y9:__ZN9Scripting11UnityEngine7Hash12812CleanupProxyEv
rRc:__ZN29b2StoreConstraintImpulsesTaskD2Ev
L2a:__ZN9GfxDevice25SetShaderPropertiesSharedERK19ShaderPropertySheet
jud:__ZN11UnityEngine7Connect20RemoteConfigSettingsC2ERKN4core12basic_stringIcNS2_20StringStorageDefaultIcEEEEPFvPS1_E18ScriptingObjectPtr
GEd:_BaseMeshEffect_get_graphic_m1852367505
vQg:_CaseInsensitiveHashCodeProvider_GetHashCode_m2168170016
mpb:__ZN10MonoScript17MainThreadCleanupEv
J7b:__ZN19SpriteMeshGenerator4path9clip_edgeEi
Eaa:__ZN9Scripting11UnityEngine12Experimental18GlobalIllumination11LightDataGI12CleanupProxyEv
Zbf:_InternalEnumerator_1_Dispose_m28687982_AdjustorThunk
dic:__ZL25InitializeDefaultMaterialv
gld:__Z53Register_UnityEngine_CanvasRenderer_get_materialCountv
INd:_PropertyBuilder_GetCustomAttributes_m3798356764
v1g:_Stream__ctor_m3881936881
FTd:_PropertyInfo_get_MemberType_m2794839864
dYa:__ZN19FileAccessorHandlerD2Ev
Esj:_EventTrigger_RemoveRule_m1596811726
BMh:_Enumerator_Dispose_m2367589020_AdjustorThunk
Qef:_Comparer_1_System_Collections_IComparer_Compare_m4179495191_gshared
jVa:__ZN17PersistentManager12UnloadStreamERKN4core12basic_stringIcNS0_20StringStorageDefaultIcEEEEb
w0a:__ZN10MemoryFile4ReadEyyPvPy
iNi:_Array_InternalArray__Insert_TisUICharInfo_t75501106_m2924156520_gshared
hGh:_EqualityComparer_1_System_Collections_IEqualityComparer_Equals_m3139704160_gshared
kXc:__ZN19CompositeCollider2D22SimplifyCompositePathsERKNSt3__26vectorINS1_IN10ClipperLib8IntPointENS0_9allocatorIS3_EEEENS4_IS6_EEEERS8_
Pph:_MonoProperty_GetterAdapterFrame_TisRuntimeObject_TisRuntimeObject_m458718082_gshared
APi:_Array_Sort_TisInt32_t2950945753_TisInt32_t2950945753_m3955828611_gshared
oRj:_CarController_Update_m1265157759
J2j:_il2cpp_unity_liveness_calculation_from_statics
wFi:__Z70RuntimeInvoker_Boolean_t97287965_CharU26_t1697032762_Int16_t2552820387PFvvEPK10MethodInfoPvPS4_
I0d:_SoapAttribute__ctor_m1857608874
ecf:_InternalEnumerator_1_System_Collections_IEnumerator_get_Current_m2649471526_gshared
lFh:_EqualityComparer_1_System_Collections_IEqualityComparer_Equals_m3218482536_gshared
vFa:__ZN8Renderer8TransferI17RemapPPtrTransferEEvRT_
tcj:_InternalAsyncResult_get_AsyncState_m1436290550
V2e:_InternalEnumerator_1_Dispose_m2018798800_AdjustorThunk
Gza:__ZN6prcore16BlitFuncInfoSIMD19BlitFuncExecuteSIMDEPKNS_9InnerInfoEPKv
Evd:__ZN20UnityWebRequestProtoI24UnityWebRequestTransport16AtomicRefCounter14RedirectHelper14ResponseHelper15DownloadHandler13UploadHandler18CertificateHandler12HeaderHelper14AsyncOperationE9DoRequestEv
Qff:_Enumerator_System_Collections_IDictionaryEnumerator_get_Entry_m522483686_gshared
Dyh:_PrivateKeyInfo_RemoveLeadingZero_m3921889925
rTh:_Thread_get_CurrentContext_m1695017876
nQc:__ZN7b2World20ClearIslandFlagsTaskEv
AD:__ZN9AudioClip20OnBeforeDomainUnloadEv
Ydc:__Z22Input_CUSTOM_GetKeyInti
QKc:__ZN16PhysicsManager2D19AddRigidbodyUpdatesEP11Rigidbody2D
uVb:__Z24LookRotationToQuaternionRK8Vector3fS1_P11Quaternionf
sVb:__ZN16ReflectionProbes9GetCameraEv
eQb:__Z23CalculateLightOcclusionRK17LightProbeContextRK29LightProbeSamplingCoordinatesi
b4b:__ZL18IsGpuProgramUsable20ShaderGpuProgramTypePK6Shader
ejd:__ZN2UI6Canvas17SetSortingLayerIDEi
OEd:_Button_get_onClick_m2332132945
Dek:__ZN6il2cpp2vm11MethodStack23CleanupForCurrentThreadEv
VKe:__ZL61Image_t2670269651_CustomAttributesCacheGenerator_m_FillMethodP21CustomAttributesCache
Cre:__ZL62EndGraphicsJobsLate_t3823419272_CustomAttributesCacheGeneratorP21CustomAttributesCache
Vbh:_Convert_ToUInt64_m388601487
Fqa:__ZN20TierGraphicsSettings8TransferI24GenerateTypeTreeTransferEEvRT_
SNj:__ZN15dense_hashtableINSt3__24pairIK10KeyWrapperIN6il2cpp5utils13dynamic_arrayIPK10Il2CppTypeLj4EEEEPFvvEEESA_NS3_8metadata19Il2CppSignatureHashEN14dense_hash_mapISA_SD_SG_NSA_14EqualsComparerINSF_22Il2CppSignatureCompareEEENS0_9allocatorISE_EEE9SelectKeyESK_SM_E16reset_thresholdsEv
lHf:_TouchScreenKeyboard_get_text_m1797464608
Bxa:__ZN18UnityPropertySheet8TransferI19StreamedBinaryWriteILb0EEEEvRT_
ot:__ZN9Scripting11UnityEngine27AnimatorControllerParameter9InitProxyEv
L0:__ZNSt3__26__treeINS_12__value_typeIiN11TypeManager18TypeCallbackStructEEENS_19__map_value_compareIiS4_NS_4lessIiEELb1EEENS_9allocatorIS4_EEE7destroyEPNS_11__tree_nodeIS4_PvEE
YMe:__ZL60Slider_t3903728902_CustomAttributesCacheGenerator_m_FillRectP21CustomAttributesCache
fma:__ZN9ShaderLab32FindBestMatchingShaderKeywordSetERK16ShaderKeywordSetRK13dynamic_arrayIS0_Lj0EEPS5_
hFi:__Z71RuntimeInvoker_Void_t1185182177_CornerU26_t2243868623_Int32_t2950945753PFvvEPK10MethodInfoPvPS4_
TVc:__ZN16PhysicsManager2D42RegisterTransformChangeInterestForColliderEP10Collider2D
tvf:_TextureMixerPlayable_Equals_m1074187513_AdjustorThunk
hqd:__ZN11UnityEngine7Connect17XRDeviceInfoEventD0Ev
Rbe:__ZL60SoapTypeAttribute_t1750930817_CustomAttributesCacheGeneratorP21CustomAttributesCache
V0e:_Action_3__ctor_m3820700807_gshared
fIc:__ZN15AnchoredJoint2D8TransferI14SafeBinaryReadEEvRT_
nXe:_Binder_ConvertArgs_m2124461494
z_b:__ZN21UnityDefaultAllocatorI17LowLevelAllocatorE10DeallocateEPv
dGk:b86
yla:__ZN20IntermediateRenderer15AddAsRenderNodeER15RenderNodeQueueRK20DeprecatedSourceData
lv:__ZN15PackedIntVector8TransferI14SafeBinaryReadEEvRT_
eJf:_Vector3__ctor_m3353183577_AdjustorThunk
K4e:_InternalEnumerator_1_System_Collections_IEnumerator_get_Current_m1514266661_gshared
Rjg:_MD5SHA1_Initialize_m675470944
Kqh:_Array_InternalArray__ICollection_Add_TisKeyframe_t4206410242_m442111799_gshared
eZi:_List_1_CheckMatch_m3263549496_gshared
fCf:_PropertyNameUtils_PropertyNameFromString_Injected_m1259736140
r7h:_ReadOnlyCollection_1_System_Collections_IList_get_IsReadOnly_m2041535988_gshared
tfj:_X509Certificate_set_KeyAlgorithmParameters_m2010117999
nE:__ZN13AudioListener8DoUpdateEv
W9b:__ZL34GetComponentsImplementationRecurseILb0ELi0ELi0EEbR10GameObjectbRK17CompareParametersRK39GetComponentsImplementation_ReturnValue
iRe:__Z13bankers_roundd
DPa:__ZN14SafeBinaryRead8TransferI5RectTIfEEEvRT_PKc17TransferMetaFlags
vi:_emscripten_glGenFramebuffers
G0:__ZN17BaseObjectManager16StaticInitializeEPv
Mhf:_Enumerator_MoveNext_m1127886695_gshared
w$b:__ZNSt3__26vectorIN9ShaderLab26SerializedShaderDependencyENS_9allocatorIS2_EEE26__swap_out_circular_bufferERNS_14__split_bufferIS2_RS4_EE
gOh:_List_1_AddCollection_m4102468168_gshared
y8:__ZN9Scripting11UnityEngine9Profiling8Profiler12CleanupProxyEv
tea:__ZN9Behaviour23VirtualRedirectTransferER17RemapPPtrTransfer
Fnd:__ZN21UnityAnalyticsManager23VirtualRedirectTransferER19StreamedBinaryWriteILb0EE
PAc:__Z18Transfer_BlittableI9JSONWriteLb0EyEvRK29SerializationCommandArgumentsR31RuntimeSerializationCommandInfo
$ua:__ZN13RenderTexture15ThreadedCleanupEv
pbg:_X509BasicConstraintsExtension__ctor_m3721156175
CAa:__ZN12CubemapArray23VirtualRedirectTransferER14SafeBinaryRead
Fzj:__ZL25UnresolvedVirtualCall_176P12Il2CppObject25RaycastResult_t3360306849S1_PK10MethodInfo
lHe:__ZL70EventSystem_t1003666588_CustomAttributesCacheGenerator_m_DragThresholdP21CustomAttributesCache
t0g:_Path_GetFileName_m1354558116
Rwh:_BitConverterLE_ToDouble_m1601000678
fDk:_emscripten_glUniform3i__wrapper
Xth:_SimpleCollator_IsPrefix_m3581642267
LDf:_Rect_Contains_m1232228501_AdjustorThunk
P8b:__Z43RectTransform_CUSTOM_INTERNAL_set_sizeDeltaP12Il2CppObjectRK13Vector2fIcall
w_g:_Int64_System_IConvertible_ToType_m3223988955_AdjustorThunk
tak:__ZN15dense_hashtableINSt3__24pairIK10KeyWrapperINS1_IPKcS4_EEEiEES6_24NamespaceAndNamePairHashN14dense_hash_mapIS6_iS9_NS6_14EqualsComparerI26NamespaceAndNamePairEqualsEENS0_9allocatorIS8_EEE9SelectKeyESD_SF_E6insertERKS8_
Lea:__ZN24GenerateTypeTreeTransfer18BeginArrayTransferEPKcS1_Ri17TransferMetaFlags
bTi:_Array_InternalArray__get_Item_TisPlayableBinding_t354260709_m3837494573_gshared
vm:___syscall51
fBg:_String_CreateString_m4016935005
Ghj:_MatchCollection_get_FullList_m1829231879
zm:___syscall54
DIg:_Array_GetValue_m2528415604
one:__ZL108StaticAccessorAttribute_t2432663902_CustomAttributesCacheGenerator_StaticAccessorAttribute__ctor_m1713503113P21CustomAttributesCache
Abe:__ZL55IMessageSink_t2514424906_CustomAttributesCacheGeneratorP21CustomAttributesCache
zug:_SymmetricAlgorithm_Clear_m3302238152
bIf:_Transform_INTERNAL_CALL_TransformPoint_m4261269221
HXg:_Guid_AppendShort_m791023083
sIe:__ZL109PointerEventData_t3807901092_CustomAttributesCacheGenerator_PointerEventData_get_eligibleForClick_m3788762543P21CustomAttributesCache
AZi:_List_1__ctor_m4212503576_gshared
pRh:_UTF32Encoding_GetBytes_m2832872594
gQg:_BitArrayEnumerator_MoveNext_m3806676766
IId:_Dropdown_get_value_m1555353112
S7c:_cff_builder_add_point1
Cbk:__ZN6il2cpp2vm5Image21GetCachedResourceDataEPK11Il2CppImageRKNSt3__212basic_stringIcNS5_11char_traitsIcEENS5_9allocatorIcEEEE
L9a:__Z18Transfer_BlittableI14SafeBinaryReadLb0E10ColorRGBAfEvRK29SerializationCommandArgumentsR31RuntimeSerializationCommandInfo
Aa:invoke_iiiiiiiiii
Ntf:_DrivenRectTransformTracker_Clear_m371772582
rF:__ZN11AudioSource25GetNumExtensionPropertiesEv
Wrh:_Array_InternalArray__ICollection_CopyTo_TisUILineInfo_t4195266810_m104406798_gshared
ME:__ZNK7Texture10GetVRUsageEv
Sfc:__ZZL31RegisterRectTransformPropertiesR22GenericPropertyBindingEN32Wrapper_RectTransformAnchorMaxx013GetFloatValueEPv
HCh:_DefaultComparer__ctor_m41012692_gshared
etf:_Debug_LogErrorFormat_m3558239521
AKd:_Graphic_get_canvas_m3320066409
pWf:_InputField_ActivateInputFieldInternal_m3360893886
S1i:_List_1_Insert_m1781696722_gshared
laj:_RijndaelManagedTransform__ctor_m1033522223
HZb:__ZN10FileSystem19SetCurrentDirectoryERKN4core12basic_stringIcNS0_20StringStorageDefaultIcEEEE
psf:_Component_get_gameObject_m442555142
lRe:_Math_Log_m2526073084
ugc:__ZN23TransformChangeDispatch24RemovePermanentInterestsE15TransformAccessPKN5Unity4TypeE
Src:__Z47Register_UnityEngine_Coroutine_ReleaseCoroutinev
dy:__ZN15AudioReverbZone13SetFMODValuesEv
NT:__ZN14SafeBinaryRead4InitERK16TypeTreeIteratorxx24TransferInstructionFlags10MemLabelId
Nne:__ZL58HideInInspector_t1216868993_CustomAttributesCacheGeneratorP21CustomAttributesCache
ee:_glRenderbufferStorageMultisample
gIe:__ZL105PointerEventData_t3807901092_CustomAttributesCacheGenerator_PointerEventData_get_pointerEnter_m3901270554P21CustomAttributesCache
UYc:__Z13RegisterClassI16CircleCollider2DEvPKc
MWj:__ZNK15dense_hashtableINSt3__24pairIK10KeyWrapperIPK10Il2CppTypeEjEES6_N6il2cpp8metadata14Il2CppTypeHashEN14dense_hash_mapIS6_jSB_NS6_14EqualsComparerINSA_26Il2CppTypeEqualityComparerEEENS0_9allocatorIS8_EEE9SelectKeyESF_SH_E10test_emptyEj
k9d:__ZL62ParameterAttributes_t1826424051_CustomAttributesCacheGeneratorP21CustomAttributesCache
wNb:__ZN22MotionVectorRenderLoopD2Ev
Gyj:__ZL25UnresolvedVirtualCall_123P12Il2CppObjectiS0_S0_S0_PK10MethodInfo
W2g:_MemoryStream_get_CanRead_m1639425566
vpf:_Debug_LogException_m2207318968
JCg:_DecoderReplacementFallback_GetHashCode_m1611165826
jSc:__ZNK6b2Body13ShouldCollideEPKS_
nNd:_Image_get_minWidth_m755066479
Qze:__ZL76AnimatorTransitionInfo_t2534804151_CustomAttributesCacheGenerator_m_FullPathP21CustomAttributesCache
jve:__ZL99PlayableHandle_t1095853803_CustomAttributesCacheGenerator_PlayableHandle_GetPlayableType_m432385838P21CustomAttributesCache
Tph:_Array_InternalArray__ICollection_Add_TisClientCertificateType_t1004704908_m2622721177_gshared
FSc:__ZNK21b2FindNewContactsTask13GetRangeCountEv
uv:__ZN17PackedFloatVector8TransferI18StreamedBinaryReadILb0EEEEvRT_
aBa:__ZN7Cubemap23VirtualRedirectTransferER17RemapPPtrTransfer
Ytc:__Z37Register_UnityEngine_Screen_get_widthv
DGj:_UnityAnalyticsHandler_SendCustomEvent_m1223269116
Vmj:_Uri_get_Authority_m3816772302
T5b:__ZN22BlockMemoryCacheWriter11GetPathNameEv
Rhg:_BigInteger_op_Division_m3713793389
eHf:_Touch_get_position_m3109777936
JSd:_ParameterInfo__ctor_m3269320476
Gqe:__ZL60ProcessRemoteInput_t950001846_CustomAttributesCacheGeneratorP21CustomAttributesCache
qeg:_X509SubjectKeyIdentifierExtension_FromHexChars_m3244835916
Lyg:_Single_CompareTo_m2785801815
EZh:_UInt64_System_IConvertible_ToInt32_m949522652_AdjustorThunk
rej:_PKCS12_MAC_m3355614022
Dbe:__ZL63IMethodReturnMessage_t3705538073_CustomAttributesCacheGeneratorP21CustomAttributesCache
hp:stackAlloc
I0a:__ZN25SingleBlockMemoryFileData4LockEPPv
nZa:__ZN12HandlerChain5TouchER13FileEntryData
MGk:_glProgramParameteri__wrapper
qr:__ZN17CallbackArrayBaseIPFvP10UnitySceneS1_EPFvPKvS1_S1_EE8RegisterES3_S7_S5_
X9h:_ReadOnlyCollection_1_System_Collections_Generic_ICollectionU3CTU3E_get_IsReadOnly_m1215739200_gshared
lpf:_AnimationCurve_t3046754366_marshal_pinvoke
Sac:__Z32RectOffset_Get_Custom_PropBottomP12Il2CppObject
atf:_Debug_LogError_m2850623458
Qxj:__ZL24UnresolvedVirtualCall_79P12Il2CppObjectPK10MethodInfo
l$b:__ZNSt3__26__treeINS_12__value_typeIN4core12basic_stringIcNS2_20StringStorageDefaultIcEEEE4PPtrI7TextureEEENS_19__map_value_compareIS6_SA_NS_4lessIS6_EELb1EEENS_9allocatorISA_EEE7destroyEPNS_11__tree_nodeISA_PvEE
Buj:__ZN25GenericVirtActionInvoker1IP24SingleU5BU5D_t1444911251E6InvokeEPK10MethodInfoP12Il2CppObjectS1_
Uui:__Z69RuntimeInvoker_UInt64_t4134040092_Int32_t2950945753_SByte_t1669577662PFvvEPK10MethodInfoPvPS4_
bOe:__ZL74LayoutElement_t1785403678_CustomAttributesCacheGenerator_m_PreferredHeightP21CustomAttributesCache
cvk:_stat
mma:__ZN9ShaderLab10SubProgram7CompileEv
ZZi:_List_1_Contains_m353222571_gshared
BNd:_PropertyBuilder_get_CanRead_m3783190070
MV:__ZN14SerializedFile14SerializedTypeD2Ev
raa:__ZN9Scripting11UnityEngine12Experimental9Playables21TexturePlayableOutput9InitProxyEv
Img:_CipherSuiteCollection_System_Collections_IList_get_Item_m2175128671
LKc:__ZN15b2DistanceJoint23InitVelocityConstraintsERK12b2SolverData
Xia:__ZN6CameraD2Ev
psc:__Z50Register_UnityEngine_Camera_get_pixelRect_Injectedv
ma:invoke_iiiiiiiiiiii
Ych:_DateTime_System_IConvertible_ToType_m1242864300_AdjustorThunk
Qnf:_ValueCollection_get_Count_m994935123_gshared
obf:_InternalEnumerator_1_get_Current_m2446410893_AdjustorThunk
Qna:__Z29CalculateDefaultChannelsToAdd17ShaderChannelMaskS_
_ue:__ZL89PlayableBinding_t354260709_CustomAttributesCacheGenerator_U3CstreamTypeU3Ek__BackingFieldP21CustomAttributesCache
uJg:_Array_Sort_m870838517
mFb:__ZNSt3__26__treeI20DeviceBlendStateGLES14MemoryCompLessI16DeviceBlendStateENS_9allocatorIS1_EEE7destroyEPNS_11__tree_nodeIS1_PvEE
oDj:_CanvasRenderer_SetMaterial_m633746949
nC:__ZN10AudioMixer12RebindOutputEv
Yyj:__ZL25UnresolvedVirtualCall_141P12Il2CppObject19Vector2_t2156229523S0_PK10MethodInfo
Q4j:__ZNK15dense_hashtableINSt3__24pairIK10KeyWrapperIP11Il2CppClassES4_EES5_N6il2cpp8metadata16SZArrayClassHashEN14dense_hash_mapIS5_S4_SA_NS5_14EqualsComparerINS9_19SZArrayClassCompareEEENS0_9allocatorIS7_EEE9SelectKeyESE_SG_E5beginEv
R4e:_InternalEnumerator_1__ctor_m819716934_gshared
tZf:_LayoutRebuilder_PerformLayoutControl_m4241054021
XIj:__ZN6il2cpp2vm17SetupFieldsLockedEP11Il2CppClassRKNS_2os12FastAutoLockE
opf:_AnimationCurve__ctor_m1565662948
Gyg:_Single_System_IConvertible_ToUInt16_m1263555070_AdjustorThunk
iCb:__ZN18GlslGpuProgramGLES13SwitchProgramEj
YFb:__ZN20ArchiveStorageReaderC2E10MemLabelId
Cli:__Z132RuntimeInvoker_Int32_t2950945753_RuntimeObject_Int32_t2950945753_Int32_t2950945753_RuntimeObject_Int32_t2950945753_Int32_t2950945753PFvvEPK10MethodInfoPvPS4_
q1a:__ZN16MemoryFileSystem4NameEv
GCd:_ButtonState__ctor_m1506593332
F2j:_il2cpp_gchandle_free
Iqc:__Z13SetCopyBufferRKN4core12basic_stringIcNS_20StringStorageDefaultIcEEEE
bLh:_Enumerator_get_Current_m2468920150_AdjustorThunk
Vcj:_TlsException__ctor_m818940807
zFg:_X509CertificateEnumerator_System_Collections_IEnumerator_get_Current_m418791713
lnd:__ZN14UnityAnalyticsD2Ev
I9b:__Z42ScriptingGetComponentsOfTypeFromGameObjectRK26ScriptingGetComponentsArgs
Zte:__ZL73ArgumentCache_t2187958399_CustomAttributesCacheGenerator_m_ObjectArgumentP21CustomAttributesCache
Ssf:_StateChanged_EndInvoke_m3313423087
IQi:_Array_swap_TisRaycastResult_t3360306849_TisRaycastResult_t3360306849_m3400922624_gshared
s0c:__ZN9Scripting11UnityEngine21ControllerColliderHit9InitProxyEv
yRf:_CspParameters__ctor_m2741097571
LZe:_EnumBuilder_get_DeclaringType_m4266754303
Yxa:__ZNSt3__27__sort4IRPFbRKNS_4pairIN9ShaderLab16FastPropertyNameEN18UnityPropertySheet11UnityTexEnvEEES8_EPS6_EEjT0_SD_SD_SD_T_
vjj:_Assertion_get_TrueExpression_m2743006331
R6c:_cf2_hintmap_build
mHj:_NativeHeaderAttribute_set_Header_m3310668383
OGf:_Texture_get_width_m888163864
w9b:__Z11StringToIntRKN4core16basic_string_refIcEE
Ofd:_Line_Up
jPi:_Array_Resize_TisRaycastResult_t3360306849_m1277390301_gshared
le:_emscripten_glBufferSubData
IAg:_String_ReplaceUnchecked_m1381393810
ezh:_SymmetricTransform_CBC_m435753239
ueb:__Z18Transfer_BlittableI17RemapPPtrTransferLb1EyEvRK29SerializationCommandArgumentsR31RuntimeSerializationCommandInfo
JNe:__ZL76ContentSizeFitter_t3850442145_CustomAttributesCacheGenerator_m_HorizontalFitP21CustomAttributesCache
Vdf:_DefaultComparer_Compare_m3278268937_gshared
bq:__Z17CalculateGlobalRS23TransformAccessReadOnly
JXj:__ZN24dense_hashtable_iteratorINSt3__24pairIK10KeyWrapperINS1_IPK10MethodInfoP11Il2CppClassEEEjEES9_17ReflectionMapHashIS8_EN14dense_hash_mapIS9_jSD_NS9_14EqualsComparerINS0_8equal_toIS8_EEEENS0_9allocatorISB_EEE9SelectKeyESI_SK_E30advance_past_empty_and_deletedEv
wgd:__Z56Register_UnityEngine_TextGenerator_GetCharactersInternalv
Ipk:__ZNSt3__210__list_impIPN6il2cpp5utils10MemoryPool6RegionENS_9allocatorIS5_EEE5clearEv
srb:__ZNK25PathNamePersistentManager24PathIDToPathNameInternalEi
lZa:__ZNK12HandlerChain7ToLocalERK13FileEntryDataRN4core12basic_stringIcNS3_20StringStorageDefaultIcEEEERyS9_
Qwd:__ZN13RuntimeStaticINSt3__26vectorIN5physx25PxVehicleWheelQueryResultENS0_9allocatorIS3_EEEELb0EE16StaticInitializeEPv
Eni:__Z38RuntimeInvoker_MemberTypes_t3790569052PFvvEPK10MethodInfoPvPS4_
fWa:__ZN22MemoryCacherReadBlocks14LockCacheBlockEjPPhS1_
$3g:_StreamAsyncResult_get_NBytes_m548041729
s0j:__ZN6il2cpp2vm14TypeNameParser17ParseAssemblyNameEv
aKa:__ZNK9GfxDevice26GetSinglePassStereoEyeMaskEv
otf:_DebugLogHandler_Internal_Log_m4175774469
OLj:__ZN15dense_hashtableINSt3__24pairIK10KeyWrapperIP9FieldInfoEiEES5_N6il2cpp5utils11PointerHashIS3_EEN14dense_hash_mapIS5_iSB_NS5_14EqualsComparerINS0_8equal_toIS4_EEEENS0_9allocatorIS7_EEE9SelectKeyESG_SI_E13set_empty_keyERKS7_
xjk:__ZN4utf88internal15increase_safelyIPKcEENS0_9utf_errorERT_S5_
lne:__ZL66StaticAccessorAttribute_t2432663902_CustomAttributesCacheGeneratorP21CustomAttributesCache
sxg:_SecurityContext_get_CompressedStack_m3401528670
wNg:_CharEnumerator_get_Current_m525608209
d8e:_InternalEnumerator_1_Dispose_m887344916_AdjustorThunk
xzd:__Z21ArrayElementTypeCheckP11Il2CppArrayPv
RFk:_emscripten_glTexSubImage2D__wrapper
BGa:__ZN18StreamedBinaryReadILb0EE21TransferSTLStyleArrayI13dynamic_arrayI33EnlightenTerrainChunksInformationLj0EEEEvRT_17TransferMetaFlags
HWc:__ZN17PhysicsMaterial2D16CheckConsistencyEv
p6d:__ZL69DebuggerBrowsableAttribute_t1026244177_CustomAttributesCacheGeneratorP21CustomAttributesCache
e6:__ZL48__ManagedRegistrationHelperFunction_LightmapDataPv
Uwk:__ZNSt3__212basic_stringIcNS_11char_traitsIcEENS_9allocatorIcEEE6appendEjc
AVc:__ZNSt3__27__sort4IRPFbPN10ClipperLib13IntersectNodeES3_EPS3_EEjT0_S8_S8_S8_T_
Cob:__Z13TransferFieldI18StreamedBinaryReadILb0EELb0E16Converter_StringEvRK23StaticTransferFieldInfoR31RuntimeSerializationCommandInfoRT1_
_jd:__Z42Register_UnityEngine_Canvas_get_rootCanvasv
Gge:__ZL78Convert_t2465617642_CustomAttributesCacheGenerator_Convert_ToBoolean_m40300963P21CustomAttributesCache
_ab:__Z14resize_trimmedINSt3__26vectorI8MonoPPtr13stl_allocatorIS2_L18MemLabelIdentifier1ELi16EEEEEvRT_j
Ue:_TTF_RenderText_Solid
Lpf:__ZN23InterfaceActionInvoker3IP8String_tS1_iE6InvokeEjP11Il2CppClassP12Il2CppObjectS1_S1_i
LOh:_List_1__ctor_m3947764094_gshared
O2c:__ZN20TextRenderingPrivate21TextMeshGeneratorImpl5FlushEv
h$c:__Z56Register_UnityEngine_Physics2D_Raycast_Internal_Injectedv
Mlj:_Parser_IsIgnorePatternWhitespace_m2107132682
Ynd:__ZN14UnityAnalytics15Internal_CreateE18ScriptingObjectPtr
o8f:_HttpRequestCreator_Create_m400548686
kud:__ZN11UnityEngine7Connect16PersistentValuesC2Ev
pri:__Z49RuntimeInvoker_RuntimeObject_StringU26_t181565287PFvvEPK10MethodInfoPvPS4_
Y8h:_ReadOnlyCollection_1_System_Collections_IList_Insert_m134149130_gshared
tAc:__Z18Transfer_BlittableI9JSONWriteLb0E5RectTIiEEvRK29SerializationCommandArgumentsR31RuntimeSerializationCommandInfo
Kuh:_BigInteger_get_Rng_m4216817480
Ukh:_Array_InternalArray__ICollection_Remove_TisDateTime_t3738529785_m2250893026_gshared
Tde:__ZL67RijndaelManagedTransform_t4102601014_CustomAttributesCacheGeneratorP21CustomAttributesCache
Yvb:__Z15IsIEEE754Format14GraphicsFormat
hW:__ZL12CreateStringPjR13dynamic_arrayIcLj0EEPKc
Ieb:__Z19TransferField_ArrayI17RemapPPtrTransfer27Converter_UnityEngineObjectEvRK23StaticTransferFieldInfoR31RuntimeSerializationCommandInfoRT0_
fRg:_KeyNotFoundException__ctor_m541499307
vY:__ZN13RuntimeStaticINSt3__23mapIN4core12basic_stringIcNS2_20StringStorageDefaultIcEEEES6_NS0_4lessIS6_EE13stl_allocatorINS0_4pairIKS6_S6_EEL18MemLabelIdentifier13ELi16EEEELb0EE16StaticInitializeEPv
qmh:_SetPropertyUtility_SetStruct_TisSpriteState_t1362986479_m665096788_gshared
Yli:__Z61RuntimeInvoker_Single_t1397266774_RuntimeObject_RuntimeObjectPFvvEPK10MethodInfoPvPS4_
fhj:_Enumerator__ctor_m1228633090
_kh:_Array_InternalArray__ICollection_Remove_TisIntPtr_t_m3807208150_gshared
Jxi:__Z71RuntimeInvoker_Void_t1185182177_Vector3_t3722313464_Vector3_t3722313464PFvvEPK10MethodInfoPvPS4_
O7e:_InternalEnumerator_1_get_Current_m2316281569_AdjustorThunk
h8g:_DateTime__ctor_m1095105629
nxb:__ZN13GfxDeviceGLES15UploadTexture2DE9TextureID16TextureDimensionPKhiii14GraphicsFormati18TextureUploadFlags16TextureUsageMode
Bnj:_Event_Cleanup_m2477919477
eB:__ZN4FMOD6System9createDSPEP20FMOD_DSP_DESCRIPTIONPPNS_3DSPE
age:__ZL87Thread_t2300836069_CustomAttributesCacheGenerator_Thread_GetCompressedStack_m2923422412P21CustomAttributesCache
aGf:_HitInfo_t3229609740_marshal_pinvoke_back
Trg:_SslClientStream_get_ClientCertificates_m998716871
eXd:__ZN21InterfaceFuncInvoker0IP8String_tE6InvokeEjP11Il2CppClassP12Il2CppObject
oz:__ZN4FMOD8ChannelI11EndCallbackEv
Rwc:__ZN8GUIStyle14SetDefaultFontEPN13TextRendering4FontE
MUi:_List_1_ToArray_m2860284581_gshared
DDa:__ZN15QualitySettings23VirtualRedirectTransferER24GenerateTypeTreeTransfer
VNf:_ObjectReader_ReadValue_m3145979203
Jw:__ZN9Scripting11UnityEngine24AssetBundleCreateRequest9InitProxyEv
vFd:_CanvasScaler_OnDisable_m3424669401
wmf:_Transform_1_BeginInvoke_m500585065_gshared
Erc:__Z59Register_UnityEngine_MonoBehaviour_Internal_CancelInvokeAllv
fMe:__ZL68Scrollbar_t1494447233_CustomAttributesCacheGenerator_m_NumberOfStepsP21CustomAttributesCache
R1f:_ScrollRect_set_content_m321343743
fMj:__ZN30dense_hashtable_const_iteratorINSt3__24pairIK10KeyWrapperIPK19Il2CppGenericMethodEPK26Il2CppGenericMethodIndicesEES6_N6il2cpp8metadata23Il2CppGenericMethodHashEN14dense_hash_mapIS6_SA_SE_NS6_14EqualsComparerINSD_26Il2CppGenericMethodCompareEEENS0_9allocatorISB_EEE9SelectKeyESI_SK_EppEv
M3c:_UNITY_FT_Request_Metrics
Jua:__ZN7Texture8TransferI18StreamedBinaryReadILb0EEEEvRT_
m9j:__ZN6il2cpp6icalls8mscorlib6System10Reflection10MonoMethod29get_IsGenericMethodDefinitionEP22Il2CppReflectionMethod
V3j:__ZN6il2cpp2vm6Thread21AllocThreadStaticDataEi
AFe:__ZL63AnalyticsSessionState_t681173134_CustomAttributesCacheGeneratorP21CustomAttributesCache
fWg:_NumberFormatInfo_get_PercentNegativePattern_m1304634118
Woa:__ZL12CopyChannelsj17ShaderChannelMaskRA4_K10StreamInfoRA12_K11ChannelInfoPKhS3_S7_Ph
pXe:_Default_SelectMethod_m469311730
ywf:_Input_get_mousePosition_m1616496925
Fik:__ZN30dense_hashtable_const_iteratorINSt3__24pairIK10KeyWrapperIPK19Il2CppGenericMethodEP10MethodInfoEES6_N6il2cpp8metadata23Il2CppGenericMethodHashEN14dense_hash_mapIS6_S9_SD_NS6_14EqualsComparerINSC_26Il2CppGenericMethodCompareEEENS0_9allocatorISA_EEE9SelectKeyESH_SJ_EppEv
nZh:_UInt32_ToString_m2066897296_AdjustorThunk
MWa:__ZN24GenerateTypeTreeTransfer19TransferSTLStyleMapINSt3__23mapI4PPtrI6ShaderEN4core12basic_stringIcNS6_20StringStorageDefaultIcEEEENS1_4lessIS5_EENS1_9allocatorINS1_4pairIKS5_SA_EEEEEEEEvRT_17TransferMetaFlags
fSc:__ZN26b2ClearBodyIslandFlagsTask7ExecuteEv
wRg:_Enumerator_Reset_m4274366540
Szc:__Z18Transfer_BlittableI9JSONWriteLb0E8Vector3fEvRK29SerializationCommandArgumentsR31RuntimeSerializationCommandInfo
$Y:__ZN13RuntimeStaticI17UniqueIDGeneratorLb0EE13StaticDestroyEPv
Tf:_emscripten_glUniform4i
Jye:__ZL103Transform_t3600365921_CustomAttributesCacheGenerator_Transform_INTERNAL_CALL_TransformPoint_m4261269221P21CustomAttributesCache
_zf:_PlayerConnection_RegisterDisconnection_m2618599213
df:_emscripten_glUniform4f
Bj:___unlock
vcj:_TlsCipherSuite_ComputeServerRecordMAC_m3941098609
Q8c:_otv_validate
bYb:__ZN13sorted_vectorINSt3__24pairIN4core12basic_stringIcNS2_20StringStorageDefaultIcEEEES6_EEN10vector_mapIS6_S6_27compare_tstring_insensitiveIS6_E13stl_allocatorIS7_L18MemLabelIdentifier38ELi16EEE13value_compareESD_E9erase_oneIS6_EEjRKT_
WCh:_DefaultComparer__ctor_m963958896_gshared
Ivg:_X509Certificate_Equals_m3784196370
k1i:_List_1__ctor_m3376067838_gshared
VLh:_Enumerator_MoveNext_m1446151600_gshared
wtg:_SHA1Internal_ProcessFinalBlock_m1403775421
LEe:__ZL87Canvas_t3310196443_CustomAttributesCacheGenerator_Canvas_get_sortingLayerID_m3685979122P21CustomAttributesCache
M2i:_Queue_1_System_Collections_ICollection_CopyTo_m3452613063_gshared
_ie:__ZL69Math_t1671470975_CustomAttributesCacheGenerator_Math_Sqrt_m1297338011P21CustomAttributesCache
Gdc:__Z40Register_UnityEngine_Transform_IsChildOfv
fLf:_RemotingServices_GetOrCreateClientIdentity_m648299611
qdf:_InternalEnumerator_1_get_Current_m2356858238_AdjustorThunk
Mbc:__Z45Register_UnityEngine_Display_GetSystemExtImplv
Tyh:_RSAManaged_ImportParameters_m1844641996
E8d:__ZL67AssemblyProductAttribute_t1000945320_CustomAttributesCacheGeneratorP21CustomAttributesCache
z5a:__ZN9GfxDevice31DrawIndexedNullGeometryIndirectE16GfxPrimitiveTypeP9GfxBuffer15ComputeBufferIDj
Xff:_Enumerator_System_Collections_IDictionaryEnumerator_get_Value_m3325938730_AdjustorThunk
$pa:__ZN14SafeBinaryRead21TransferSTLStyleArrayI13dynamic_arrayI21PlatformShaderDefinesLj0EEEEvRT_17TransferMetaFlags
EOi:_Array_qsort_TisOrderBlock_t1585977831_TisOrderBlock_t1585977831_m1675918557_gshared
t$c:__GLOBAL__sub_I_Runtime_Dynamics_0_cpp
Nnf:_ValueCollection_System_Collections_ICollection_get_SyncRoot_m1114275063_gshared
gFj:__ZL17log2withScale_128yyi
xXg:_Guid_Equals_m1866984197
snd:__ZN14UnityAnalytics19ConfigChangedStaticEPS_RKN4core12basic_stringIcNS1_20StringStorageDefaultIcEEEER8JSONReadb
Hgf:_Enumerator__ctor_m65667165_gshared
gWe:_PlatformNotSupportedException__ctor_m1787918017
w_:__ZN13RuntimeStaticI15DirectorManagerLb0EE16StaticInitializeEPv
U5h:_ReadOnlyCollection_1_System_Collections_ICollection_CopyTo_m2643246984_gshared
DOa:__ZN11TimeManager6UpdateEv
LMh:_Enumerator_System_Collections_IEnumerator_get_Current_m209407522_gshared
yPf:_StreamingContext_GetHashCode_m2281950854_AdjustorThunk
C3e:_InternalEnumerator_1__ctor_m619554185_AdjustorThunk
oFd:_CanvasScaler_get_fallbackScreenDPI_m2811935689
Qr:__ZNK16ParentConstraint18GetTranslationAxisEv
QLf:_WellKnownServiceTypeEntry_get_ObjectUri_m560402900
BTg:_DateTimeFormatInfo_ReadOnly_m890935083
V7h:_ReadOnlyCollection_1_System_Collections_ICollection_get_SyncRoot_m1280260618_gshared
nYf:_LayoutElement_set_preferredHeight_m1999633022
jvk:_fflush
tUa:__ZN17LightProbeContext4InitERK16LightmapSettingsRK14RenderSettings
Hoi:__Z82RuntimeInvoker_Int32_t2950945753_RuntimeObject_Int32_t2950945753_SByte_t1669577662PFvvEPK10MethodInfoPvPS4_
oZc:__ZZN17PolygonCollider2D15InitializeClassEvEN41FunctorImpl_46kSpriteTilingPropertyChange4CallEPviR11MessageData
IFf:_SceneManager_Internal_ActiveSceneChanged_m3676176255
Lfj:_X509Certificate_GetIssuerName_m1142198382
tlj:_ExpressionAssertion_set_Negate_m1236561973
xhh:_Double_System_IConvertible_ToInt16_m3591921965
kJa:__ZN9Texture3DD2Ev
V$h:_Collection_1_set_Item_m4280581817_gshared
GMd:_Image_get_fillMethod_m1027254375
Eja:__ZN10ColorRGBAf8TransferI19StreamedBinaryWriteILb0EEEEvRT_
Gfe:__ZL97CompressedStack_t1202932761_CustomAttributesCacheGenerator_CompressedStack_CreateCopy_m2591279216P21CustomAttributesCache
x7g:_Convert_ToChar_m2796006345
hNi:_Array_InternalArray__Insert_TisContentType_t1787303396_m3566390691_gshared
yek:__ZNSt3__26vectorI20Il2CppStackFrameInfoNS_9allocatorIS1_EEE7reserveEj
HY:__ZN5CacheD2Ev
MOg:_ArrayListWrapper_GetEnumerator_m2336495952
ATb:__Z34ProcessIndexListIsNodeVisibleStep2RK22SceneCullingParametersPK9SceneNodePK4AABBR9IndexList
kpb:__ZN10MonoScriptD2Ev
Y8:__ZN9Scripting11UnityEngine10Networking16PlayerConnection16PlayerConnection12CleanupProxyEv
t3:__ZN6prcoreL12RemapGenericI17TexFormatARGB888817TexFormatBGRA8888EEvPKNS_9InnerInfoE
SEb:__ZN19ConstantBuffersGLES8UpdateCBE5CbKeyPKvj
XEd:_U3COnFinishSubmitU3Ec__Iterator0_System_Collections_Generic_IEnumeratorU3CobjectU3E_get_Current_m2586882303
Puj:_AudioSource_get_spatializeInternal_m2117549793
fec:__Z39Input_CUSTOM_INTERNAL_get_mousePositionP8Vector3f
oOf:_SerializationCallbacks_GetMethodsByAttribute_m2095490433
ubd:_tt_cmap13_char_next
nHe:__ZL117EventSystem_t1003666588_CustomAttributesCacheGenerator_EventSystem_t1003666588____lastSelectedGameObject_PropertyInfoP21CustomAttributesCache
IHb:__ZN9ShaderLab4Pass16SetupPassOptionsEv
R0i:_List_1_GetIndex_m1042356532_gshared
hh:_JS_Sound_ReleaseInstance
l3j:_il2cpp_type_equals
$Wg:_Guid_CheckArray_m921056615
SXd:_ConfigHandler_ReadLifetine_m208994800
phf:_Enumerator_System_Collections_IDictionaryEnumerator_get_Entry_m3417028588_AdjustorThunk
oXj:__ZNK15dense_hashtableINSt3__24pairIK10KeyWrapperINS1_IPK10MethodInfoP11Il2CppClassEEEjEES9_17ReflectionMapHashIS8_EN14dense_hash_mapIS9_jSD_NS9_14EqualsComparerINS0_8equal_toIS8_EEEENS0_9allocatorISB_EEE9SelectKeyESI_SK_E12test_deletedEj
N5j:__ZN6il2cpp6icalls8mscorlib6System7Runtime15InteropServices7Marshal19copy_from_unmanagedEiiP11Il2CppArrayi
CXh:_UInt16_System_IConvertible_ToByte_m3185614807_AdjustorThunk
Drg:_SecurityParameters_set_ServerWriteMAC_m3003817350
Rnb:__Z29Transfer_Blittable_ArrayFieldI18StreamedBinaryReadILb0EEaEvRT_R9ArrayInfoRK23StaticTransferFieldInfo
pDf:_Rect_get_max_m350137314_AdjustorThunk
Km:FUNCTION_TABLE_diddi
k7j:__ZN6il2cpp6icalls8mscorlib6System5Array8FastCopyEP11Il2CppArrayiS5_ii
FTj:__ZNSt3__26vectorIPK10MethodInfoNS_9allocatorIS3_EEE21__push_back_slow_pathIRKS3_EEvOT_
_Fi:__Z54RuntimeInvoker_Boolean_t97287965_LabelFixup_t858502054PFvvEPK10MethodInfoPvPS4_
Xhd:__ZNK2UI14CanvasRenderer22GetTypeVirtualInternalEv
U_i:_List_1_Clear_m2244610185_gshared
fbc:__Z42Register_UnityEngine_RectOffset_get_bottomv
Y6d:__ZL55BinaryReader_t2428077293_CustomAttributesCacheGeneratorP21CustomAttributesCache
Ouk:_newlocale
QVe:_ObjectDisposedException_get_Message_m1666887471
Pcb:__ZN9BoundsInt8TransferI14SafeBinaryReadEEvRT_
NMb:__Z20DoDeferredRenderLoopRK17RenderLoopContextR13dynamic_arrayI16RenderObjectDataLj0EES5_RK11CullResultsRP13RenderTextureSB_Pb
VDk:_emscripten_glUniform1f__wrapper
Tyk:dynCall_di
qFg:_X509Certificate_get_SubjectName_m3160893681
ATa:__ZN21EnlightenSceneMapping6AppendEiRKS_
$tf:_BaseInvokableCall_AllowInvoke_m878393606
Azc:__Z28RegisterModule_JSONSerializev
Jpd:__ZThn1168_N18UnityConnectClientD1Ev
Itf:_DisplaysUpdatedDelegate__ctor_m2116638722
mHc:__ZL57__ManagedRegistrationHelperFunction_CachedContactPoints2DPv
gXa:__ZN2UI13RectTransform8TransferI14SafeBinaryReadEEvRT_
LAc:__Z35Transfer_Blittable_FixedBufferFieldI9JSONWriteaEvRK29SerializationCommandArgumentsR31RuntimeSerializationCommandInfo
pqf:_Behaviour_get_enabled_m753527255
hcc:__Z20IsHumanControllingUsv
lnf:_Enumerator_MoveNext_m181298207_gshared
vKi:__Z44RuntimeInvoker_ParameterModifier_t1461694466PFvvEPK10MethodInfoPvPS4_
cO:__ZNK20DynamicHeapAllocatorI17LowLevelAllocatorE10GetPtrSizeEPKv
Rhb:__Z18Transfer_BlittableI19StreamedBinaryWriteILb0EELb1EtEvRK29SerializationCommandArgumentsR31RuntimeSerializationCommandInfo
y1i:_List_1_System_Collections_IList_get_IsReadOnly_m3278465421_gshared
S6d:__ZL51TextInfo_t3810425522_CustomAttributesCacheGeneratorP21CustomAttributesCache
r9b:__ZN10systeminfo21GetPersistentDataPathEv
Ipd:__ZThn1168_N18UnityConnectClient18OnAdsIdRequestDoneERKN4core12basic_stringIcNS0_20StringStorageDefaultIcEEEEbS6_
Eqj:_SymmetricTransform_get_KeepLastBlock_m2492071306
Mwb:__ZN13GfxDeviceGLES17DestroyGpuProgramEPK10GpuProgram
fOi:_Array_InternalArray__set_Item_TisRaycastResult_t3360306849_m730888808_gshared
i9a:__Z44InitializeTransferFunctionScriptingTraitsForI18StreamedBinaryReadILb0EEEvR31TransferFunctionScriptingTraits
Omf:_Enumerator_System_Collections_IEnumerator_Reset_m53411943_gshared
fPb:__ZNSt3__218__insertion_sort_3IR23CompareReflectionProbesP31RuntimeReflectionProbeBlendInfoEEvT0_S5_T_
Seb:__ZN12NativeBufferI27Converter_SimpleNativeClassI8GradientEE15SetupForWritingER9ArrayInfo
qvh:_Kernel_RightShift_m2207393597
q1:__ZNSt3__213__stable_sortIRNS_4lessIN4core12basic_stringIcNS2_20StringStorageDefaultIcEEEEEENS_11__wrap_iterIPS6_EEEEvT0_SC_T_NS_15iterator_traitsISC_E15difference_typeEPNSF_10value_typeEi
dPe:__ZL48Shadow_t773074319_CustomAttributesCacheGeneratorP21CustomAttributesCache
uP:__ZN12_GLOBAL__N_113StaticDestroyEPv
kwc:__ZNK8GUIStyle4DrawER8GUIStateRK5RectTIfER10GUIContentbbbb
GIk:_glUnmapBuffer__wrapper
wlf:_Transform_1__ctor_m3369371265_gshared
sEc:__ZN8JSONRead21TransferSTLStyleArrayINSt3__26vectorI8Gradient13stl_allocatorIS3_L18MemLabelIdentifier1ELi16EEEEEEvRT_17TransferMetaFlags
EQa:__ZNSt3__218__insertion_sort_3IRNS_6__lessINS_4pairIPKN5Unity4TypeE7Hash128EES8_EEPS8_EEvT0_SC_T_
sVf:_InputField_set_onValueChanged_m3658917578
Agb:__ZN10RectOffset8TransferI24GenerateTypeTreeTransferEEvRT_
Hcj:_TlsClientSettings_get_ClientCertificate_m3139459118
G$g:_BinaryReader__ctor_m2266204403
fr:__ZN13dynamic_arrayI8Vector2fLj0EE9push_backERKS0_
Laa:__ZN9Scripting11UnityEngine6Events14UnityEventBase9InitProxyEv
x_c:__ZNK10Collider2D15GetAttachedBodyEv
CKh:_Enumerator_VerifyState_m3047769867_AdjustorThunk
Mfb:__Z18Transfer_BlittableI24GenerateTypeTreeTransferLb1E5RectTIiEEvRK29SerializationCommandArgumentsR31RuntimeSerializationCommandInfo
Ohj:_Enumerator_System_Collections_IEnumerator_Reset_m24787251
gid:__ZN2UI13CanvasManager19RemoveDirtyRendererEPNS_6CanvasEPNS_14CanvasRendererE
Qtk:_isspace
cMf:_BinaryFormatter__ctor_m2620705134
Gsb:__Z15GetIApplicationv
_qd:__ZN11UnityEngine15PlatformWrapper25GetGraphicsRendererStringEv
ARh:_UTF7Encoding_InternalGetBytes_m797138468
Nfc:__ZZL31RegisterRectTransformPropertiesR22GenericPropertyBindingEN39Wrapper_RectTransformAnchoredPositiony113SetFloatValueEPvf
GM:__ZN11UnityEngine15CloudWebService17WebFileDownloaderINS0_20WebRequestRestClientENS0_23WebRequestRestHeaderMapEED2Ev
Rb:invoke_vi
Iy:__ZN12AudioManager8InitFMODE15FMOD_OUTPUTTYPE
JVc:__ZNSt3__26vectorINS0_IN10ClipperLib8IntPointENS_9allocatorIS2_EEEENS3_IS5_EEE7reserveEj
Pb:invoke_vd
rja:__ZNK6Camera19GetStereoViewMatrixE15StereoscopicEye
Chj:_Regex_get_RightToLeft_m2317867572
NRc:__ZNK35b2InitializeVelocityConstraintsTask13GetRangeCountEv
hX:__ZNK10GameObject8IsActiveEv
Ptc:__Z34Component_Get_Custom_PropTransformP12Il2CppObject
NEe:__ZL83Canvas_t3310196443_CustomAttributesCacheGenerator_Canvas_get_rootCanvas_m3165691493P21CustomAttributesCache
oEe:__ZL67g_UnityEngine_PhysicsModule_Assembly_CustomAttributesCacheGeneratorP21CustomAttributesCache
Afj:_X509Certificate_get_SignatureAlgorithm_m122054440
$Bb:__ZN18GfxFramebufferGLES23SetupDefaultFramebufferEPP17RenderSurfaceBaseS2_N2gl6HandleILNS3_10ObjectTypeE9EEE
KQc:__ZN22b2IslandDiscreteSolverC2EiiiPP6b2BodyPP9b2ContactPP7b2JointP10b2VelocityP10b2PositionRK10b2TimeStepR7b2World
d5h:_ReadOnlyCollection_1_get_Item_m3437922467_gshared
fId:_DefaultControls_CreateDropdown_m3286664171
eJa:__ZN13ScreenManager18RequestOrientationE17ScreenOrientation
uJj:__ZN6il2cpp2vm5Class12SetupMethodsEP11Il2CppClass
ypc:__Z39DeleteLastPathNameComponentWithAnySlashRKN4core12basic_stringIcNS_20StringStorageDefaultIcEEEE
zxc:__ZN10GUIManager14InitGUIManagerEv
qxi:__Z77RuntimeInvoker_Void_t1185182177_RegexOptionsU26_t1638284957_SByte_t1669577662PFvvEPK10MethodInfoPvPS4_
rOe:__ZL78LayoutRebuilder_t541313304_CustomAttributesCacheGenerator_U3CU3Ef__amU24cache1P21CustomAttributesCache
jUj:__ZNSt3__26vectorIP11Il2CppClassNS_9allocatorIS2_EEE26__swap_out_circular_bufferERNS_14__split_bufferIS2_RS4_EE
cYh:_UInt16_Equals_m642257745
dIg:_Array_System_Collections_IList_IndexOf_m3301661616
SWe:_AssemblyFileVersionAttribute__ctor_m3720707642
XJf:_WaitForSeconds__ctor_m2199082655
dVd:_RuntimeResourceSet_CloneDisposableObjectIfPossible_m2725520898
pTf:_HMACSHA384_set_ProduceLegacyHmacValues_m76936446
Vwc:__Z37Register_UnityEngine_GUIStyle_Cleanupv
Ma:invoke_iiifii
zsc:__Z26Mesh_CUSTOM_SetIndicesImplP12Il2CppObjecti16GfxPrimitiveTypeP11Il2CppArrayihi
k4f:_SliderEvent__ctor_m3149452941
hFg:_DeriveBytes__cctor_m1212925033
ZDd:_UIBehaviour_OnDestroy_m1613239498
thc:__ZN8GUILayer12AddToManagerEv
QKd:_Graphic_OnDisable_m1097930217
YTj:__ZN6il2cpp6icalls8mscorlib6System8MonoType13IsPointerImplEP20Il2CppReflectionType
Ui:_emscripten_glFramebufferRenderbuffer
bSb:__ZN19CullingGroupManager17CullAndSendEventsERK22SceneCullingParametersiRK13CullingOutputRK8JobFence
gXd:__ZN21InterfaceFuncInvoker3IP12Il2CppObjectP8String_tS1_PS3_E6InvokeEjP11Il2CppClassS1_S3_S1_S4_
cEj:_AnimationLayerMixerPlayable_GetHandle_m3854437798_AdjustorThunk
IVi:_List_1_ToArray_m2949058867_gshared
lye:__ZL98DataUtility_t2196215967_CustomAttributesCacheGenerator_DataUtility_Internal_GetMinSize_m2628270685P21CustomAttributesCache
Kha:__ZN9Transform30EnsureTransformHierarchyExistsEv
ZVh:_Type_FilterName_impl_m2651733559
zG:__ZN11AudioModule26SetDefaultMicrophoneDriverEPv
UHh:_GenericEqualityComparer_1_GetHashCode_m457148860_gshared
OAh:_Dictionary_2_System_Collections_Generic_ICollectionU3CSystem_Collections_Generic_KeyValuePairU3CTKeyU2CTValueU3EU3E_Add_m1448015620_gshared
wcc:__Z46Register_UnityEngine_Application_get_isPlayingv
T1h:_Collection_1_ClearItems_m2182923889_gshared
uqc:__ZN13MonoBehaviour13StopCoroutineEPKc
PXb:__ZNSt3__26vectorINS_4pairIN4core12basic_stringIcNS2_20StringStorageDefaultIcEEEEPK17MessageIdentifierEENS_9allocatorISA_EEE12__move_rangeEPSA_SE_SE_
VKb:__ZN14qsort_internal17MedianOfThreeSwapIP17RODataReplacement19ROSorterReplacementEEvT_S4_S4_T0_
Kzg:_String_Split_m3646115398
fEf:_RectOffset_ToString_m2007443979
kIj:__ZNK15dense_hashtableINSt3__24pairIK10KeyWrapperIPK22Il2CppGenericParameterEP11Il2CppClassEES6_N6il2cpp5utils11PointerHashIS4_EEN14dense_hash_mapIS6_S9_SE_NS6_14EqualsComparerINS0_8equal_toIS5_EEEENS0_9allocatorISA_EEE9SelectKeyESJ_SL_E3endEv
Ogb:__Z29Transfer_Blittable_ArrayFieldI24GenerateTypeTreeTransfer11ColorRGBA32EvRT_R9ArrayInfoRK23StaticTransferFieldInfo
R_a:__ZN17ArchiveFileSystem10ToAbsoluteEPKc
Elc:__Z13RegisterClassI11PreloadDataEvPKc
lEe:__ZL50Joint2D_t4180440564_CustomAttributesCacheGeneratorP21CustomAttributesCache
hsc:__Z35Camera_CUSTOM_RaycastTry2D_InjectedP12Il2CppObjectRK3Rayfi
Krd:__ZN19UnityConnectService15GetPlayerUserIdEv
gph:_Array_InternalArray__IndexOf_TisSByte_t1669577662_m4156538463_gshared
Jwj:__ZL24UnresolvedVirtualCall_18P12Il2CppObjectiPK10MethodInfo
kbc:__ZL12SetPrefValueRKN4core12basic_stringIcNS_20StringStorageDefaultIcEEEERK9PrefValue
rXb:__Z21GetBackgroundJobQueuev
T$b:__ZL30ReconstructParamNamesFromTableIN9ShaderLab20SerializedSubProgram15MatrixParameterEEvRK14dense_hash_mapIiN4core17string_with_labelILi1EEE18SInt32HashFunctionNSt3__28equal_toIiEE13stl_allocatorINS8_4pairIKiS6_EEL18MemLabelIdentifier1ELi16EEERNS8_6vectorIT_NS8_9allocatorISL_EEEE
Uxa:__ZL13SortTexByNameRKNSt3__24pairIN9ShaderLab16FastPropertyNameEN18UnityPropertySheet11UnityTexEnvEEES7_
djk:__ZN6il2cpp5utils11StringUtils6PrintfEPKcz
S$c:__ZN16NovodexAllocatorD0Ev
fya:__ZN15NameToObjectMapI6ShaderNSt3__23mapI4PPtrIS0_EN4core12basic_stringIcNS5_20StringStorageDefaultIcEEEENS1_4lessIS4_EENS1_9allocatorINS1_4pairIKS4_S9_EEEEEENS1_8multimapIS9_S4_NSA_IS9_EENSC_INSD_IKS9_S4_EEEEEEE4FindERSK_
Zza:__ZN24GenerateTypeTreeTransfer21TransferResourceImageE19ActiveResourceImagePKcR13StreamingInfoPvjiPKN5Unity4TypeE
qQi:_Array_Sort_TisVector3_t3722313464_m1030213405_gshared
Rck:__ZN6il2cpp2vm6Object5CloneEP12Il2CppObject
kze:__ZL94TextGenerator_t3211863866_CustomAttributesCacheGenerator_TextGenerator_Dispose_cpp_m1826354328P21CustomAttributesCache
hrk:__ZN6il2cpp6icalls8mscorlib6System9Threading5Mutex20CreateMutex_internalEbP12Il2CppStringPb
Cte:__ZL47Time_t2420636075_CustomAttributesCacheGeneratorP21CustomAttributesCache
Csf:_Coroutine_Finalize_m1957108547
qqj:_KeyBuilder_Key_m2503211157
lra:__ZNSt3__212__deque_baseI18ReflectionProbeJobNS_9allocatorIS1_EEED2Ev
Z$b:__ZN15dense_hashtableINSt3__24pairIKiN4core17string_with_labelILi1EEEEEi18SInt32HashFunctionN14dense_hash_mapIiS5_S7_NS0_8equal_toIiEE13stl_allocatorIS6_L18MemLabelIdentifier1ELi16EEE9SelectKeyESA_SD_E13set_empty_keyERKS6_
ssf:_Component_GetComponentInChildren_m388868270
lIh:_GenericEqualityComparer_1_Equals_m1705889345_gshared
HLd:__ZN21InterfaceFuncInvoker0IiE6InvokeEjP11Il2CppClassP12Il2CppObject
imd:__ZN17CallbackArrayBaseIPFvP6CameraEPFvPKvS1_EE8RegisterES3_S7_S5_
e8f:_FtpWebRequest__cctor_m699542155
vLg:_Byte_System_IConvertible_ToBoolean_m2888023769
Wbk:__GLOBAL__sub_I_GenericMetadata_cpp
h3d:__ZL70RuntimeArray_CustomAttributesCacheGenerator_Array_SetValue_m3412648248P21CustomAttributesCache
d7f:_NameObjectCollectionBase_GetEnumerator_m3677320185
_Sb:__Z24CalculateSpotLightBoundsffRK10Matrix4x4fR15SpotLightBounds
vji:_ListPool_1_Get_m3176656818_gshared
Nia:__Z20InvertMatrix4x4_FullPKfPf
nI:__ZN23CloudWebServicesManager23VirtualRedirectTransferER14SafeBinaryRead
fFg:_PKCS12_AddCertificate_m3857004455
MMf:_WellKnownClientTypeEntry_ToString_m1119458503
zqb:__Z19ShouldTransferFieldR32SerializationCommandQueueBuilder17ScriptingClassPtriR18TransferField_InfoRK20CoreScriptingClasses
Lde:__ZL67RSACryptoServiceProvider_t2683512874_CustomAttributesCacheGeneratorP21CustomAttributesCache
Grc:__Z48Register_UnityEngine_MonoBehaviour_InvokeDelayedv
$wg:_SecurityElement_IsValidText_m1346599242
Sgc:__Z33PPtrToObjectDontLoadNoThreadCheckI8MaterialEPT_4PPtrIS1_E
v8a:__ZN26SinglePassStereoSupportExt21SetStereoMatrixCommonE21MonoOrStereoscopicEye24BuiltinShaderMatrixParamRK10Matrix4x4f
QB:__ZN5audio5mixer22UpdateAudioMixerMemoryERKNS0_18AudioMixerConstantERNS0_16AudioMixerMemoryEfPN4FMOD6SystemEf
L0c:__ZL21InitializeCachedStripPv
Uzh:_Dictionary_2_System_Collections_Generic_ICollectionU3CSystem_Collections_Generic_KeyValuePairU3CTKeyU2CTValueU3EU3E_Add_m3652125112_gshared
JWb:__ZN19CustomRenderTexture16GetRenderTextureEv
$fe:__ZL80Thread_t2300836069_CustomAttributesCacheGenerator_Thread_GetHashCode_m3479107071P21CustomAttributesCache
A6j:__ZN6il2cpp6icalls8mscorlib6System9Threading6Thread23GetCachedCurrentCultureEP12Il2CppThread
tia:__ZNK6Camera22GetWorldToCameraMatrixEv
$xk:runPostSets
tek:__ZN6il2cpp2vm12GenericClass11IsValueTypeEP18Il2CppGenericClass
N_b:__ZN13ScreenManager24SetIsFullscreenImmediateEb
Lpb:__ZN13MonoBehaviour7SetNameEPKc
E$d:_MethodDictionary_IsOverridenKey_m946843558
ULc:__ZN25b2PolygonAndCircleContact7DestroyEP9b2ContactP16b2BlockAllocator
T1g:_FileStream_BeginRead_m2419864669
Jii:_U3CStartU3Ec__Iterator0_MoveNext_m4270440387_gshared
BNj:__ZN10KeyWrapperIN6il2cpp5utils13dynamic_arrayIPK10Il2CppTypeLj4EEEEC2ERKS7_
Lub:__ZN17InstancingBatcher22FindCBUpperBoundKonstsEv
tnd:__ZN11UnityEngine9Analytics15AnalyticsConfig13ConfigChangedERKN4core12basic_stringIcNS2_20StringStorageDefaultIcEEEER8JSONRead
tTa:__ZN18AwakeFromLoadQueue5ClearEv
o2g:_FileStream_SetLength_m99749826
uRb:__ZNSt3__27__sort5IR15ReflProbeSorterPP15ReflectionProbeEEjT0_S6_S6_S6_S6_T_
l$:__ZN8Playable10DisconnectEPS_i
Bk:_glGenTransformFeedbacks
FSa:__ZN13LoadOperationD2Ev
MEe:__ZL86Canvas_t3310196443_CustomAttributesCacheGenerator_Canvas_set_sortingLayerID_m861680532P21CustomAttributesCache
$Nh:_List_1_System_Collections_ICollection_get_SyncRoot_m1990178029_gshared
pYg:_Int16_System_IConvertible_ToType_m3672347013
__f:_Navigation_set_mode_m3709908198_AdjustorThunk
l5d:__ZL86MSCompatUnicodeTable_t1453885583_CustomAttributesCacheGenerator_U3CU3Ef__switchU24map4P21CustomAttributesCache
DGg:_AttrListImpl_GetValue_m3657391095
Ctb:__Z21PlayerStartFirstSceneb
R1i:_List_1_CheckIndex_m3933537097_gshared
Zxa:__ZNSt3__27__sort5IRPFbRKNS_4pairIN9ShaderLab16FastPropertyNameEN18UnityPropertySheet11UnityTexEnvEEES8_EPS6_EEjT0_SD_SD_SD_SD_T_
dAb:__ZNK7ApiGLES18GetExtensionStringEv
r1i:_List_1_System_Collections_IList_IndexOf_m2444653486_gshared
Zvi:__Z50RuntimeInvoker_SecurityCompressionType_t4242483129PFvvEPK10MethodInfoPvPS4_
WDk:_emscripten_glVertexAttrib1f__wrapper
XCh:_DefaultComparer_GetHashCode_m402448534_gshared
NYa:__ZNK12HandlerChain4SizeERK13FileEntryData
fp:FUNCTION_TABLE_iiiiiiiii
ehf:_Enumerator_Dispose_m1360775770_AdjustorThunk
Y4i:_Collection_1_ClearItems_m1096166028_gshared
u6h:_ReadOnlyCollection_1_System_Collections_Generic_ICollectionU3CTU3E_Remove_m4177779688_gshared
Xba:__ZN9Scripting11UnityEngine14AnimationCurve9InitProxyEv
TIc:__Z22GetPhysicsGroundBody2Dv
aNg:_Char_IsLetter_m3996985877
H2i:_Queue_1_Peek_m2302800625_gshared
E2d:__ZL51Delegate_t1188392813_CustomAttributesCacheGeneratorP21CustomAttributesCache
Kje:__ZL56WeakReference_t1334886716_CustomAttributesCacheGeneratorP21CustomAttributesCache
lVi:_List_1_AddCollection_m4263017124_gshared
dmk:_GC_allochblk
dZd:__ZN21InterfaceFuncInvoker1IbP19Context_t3285446944E6InvokeEjP11Il2CppClassP12Il2CppObjectS1_
LTa:__Z15UnloadGameScenev
Prh:_Array_InternalArray__ICollection_CopyTo_TisKeyframe_t4206410242_m2132255743_gshared
BIk:_glCheckFramebufferStatus__wrapper
xMd:_Image__ctor_m2551076292
Gof:_Dictionary_2_System_Collections_ICollection_CopyTo_m3143696177_gshared
r_j:__ZN15dense_hashtableINSt3__24pairIK10KeyWrapperIPK14Il2CppAssemblyEPK22Il2CppMonoAssemblyNameEES6_N6il2cpp5utils11PointerHashIS4_EEN14dense_hash_mapIS6_SA_SF_NS6_14EqualsComparerINS0_8equal_toIS5_EEEENS0_9allocatorISB_EEE9SelectKeyESK_SM_E5clearEv
Xni:__Z103RuntimeInvoker_Void_t1185182177_Int32_t2950945753_Int32_t2950945753_Int32_t2950945753_SByte_t1669577662PFvvEPK10MethodInfoPvPS4_
cu:__ZN16MecanimAnimationD0Ev
txj:__ZL24UnresolvedVirtualCall_56P12Il2CppObjectS0_iiS0_S0_PK10MethodInfo
dEh:_DefaultComparer__ctor_m1095326935_gshared
PAj:__ZL25UnresolvedVirtualCall_240P12Il2CppObjecti40CustomAttributeTypedArgument_t2723150157PK10MethodInfo
auc:__Z36Renderer_Get_Custom_PropSortingOrderP12Il2CppObject
HWj:__ZNK15dense_hashtableINSt3__24pairIK10KeyWrapperIPK10Il2CppTypeEjEES6_N6il2cpp8metadata14Il2CppTypeHashEN14dense_hash_mapIS6_jSB_NS6_14EqualsComparerINSA_26Il2CppTypeEqualityComparerEEENS0_9allocatorIS8_EEE9SelectKeyESF_SH_E13find_positionERS7_
Tta:__ZN7Texture5ResetEv
EMc:__ZNK14b2CapsuleShape7RayCastEP15b2RayCastOutputRK14b2RayCastInputRK11b2Transformi
_de:__ZL54SHA384Managed_t74158575_CustomAttributesCacheGeneratorP21CustomAttributesCache
MYd:_Context_get_HasDynamicSinks_m3952434387
KPh:_Latin1Encoding_GetByteCount_m1145650505
bfb:__Z18Transfer_BlittableI24GenerateTypeTreeTransferLb1EhEvRK29SerializationCommandArgumentsR31RuntimeSerializationCommandInfo
Bzj:__ZL25UnresolvedVirtualCall_172P12Il2CppObject22OrderBlock_t1585977831S1_PK10MethodInfo
P_e:_GenericTypeParameterBuilder_GetPropertyImpl_m2584778600
cmb:__Z13TransferFieldI18StreamedBinaryReadILb1EELb0E16Converter_StringEvRK23StaticTransferFieldInfoR31RuntimeSerializationCommandInfoRT1_
LDh:_DefaultComparer_GetHashCode_m177499767_gshared
Fkf:__ZN28GenericInterfaceFuncInvoker1IbbE6InvokeEPK10MethodInfoP12Il2CppObjectb
lzk:dynCall_iiifii
XZ:__ZnwjRKSt9nothrow_t
z2g:__ZN21InterfaceFuncInvoker3IiP22ByteU5BU5D_t4116647657iiE6InvokeEjP11Il2CppClassP12Il2CppObjectS1_ii
zHg:_ApplicationException__ctor_m2557611022
Gwa:__ZN14SafeBinaryRead19TransferSTLStyleMapINSt3__23mapI39DeprecatedFastPropertyNameSerializationN18UnityPropertySheet11UnityTexEnvENS1_4lessIS3_EENS1_9allocatorINS1_4pairIKS3_S5_EEEEEEEEvRT_17TransferMetaFlags
Irc:__Z45Register_UnityEngine_MonoBehaviour_IsInvokingv
Y_i:_List_1_CheckMatch_m579516778_gshared
fib:__ZL26Transfer_SimpleNativeClassI19StreamedBinaryWriteILb0EE17AnimationCurveTplIfELb0EEvRK29SerializationCommandArgumentsR31RuntimeSerializationCommandInfo
Vtb:__Z43GiveManagedDebuggerChanceToAttachIfRequiredv
rLg:_Buffer_ByteLengthInternal_m1388208719
$He:__ZL92PointerEventData_t3807901092_CustomAttributesCacheGenerator_U3CworldNormalU3Ek__BackingFieldP21CustomAttributesCache
orh:_Array_InternalArray__ICollection_CopyTo_TisInt64_t3736567304_m2845057751_gshared
Bqc:__Z35UnregisterSerializationCacheBuilderPFv17ScriptingClassPtrR23CachedSerializationDataRbE
U1d:__ZL52ICloneable_t724424198_CustomAttributesCacheGeneratorP21CustomAttributesCache
OU:__ZNSt3__26__treeINS_12__value_typeIPKc18ScriptingMethodPtrEENS_19__map_value_compareIS3_S5_14CStringCompareLb1EEE13stl_allocatorIS5_L18MemLabelIdentifier1ELi16EEE25__emplace_unique_key_argsIS3_JRKNS_21piecewise_construct_tENS_5tupleIJOS3_EEENSH_IJEEEEEENS_4pairINS_15__tree_iteratorIS5_PNS_11__tree_nodeIS5_PvEEiEEbEERKT_DpOT0_
A_g:_Int64_System_IConvertible_ToUInt32_m109903525_AdjustorThunk
Wla:__Z30GetBuiltinVectorParamArraySize24BuiltinShaderVectorParam
oR:__ZNSt3__25stackIPN9ShaderLab21SerializedShaderStateENS_5dequeIS3_NS_9allocatorIS3_EEEEED2Ev
T5:__ZL46__ManagedRegistrationHelperFunction_SpriteBonePv
NVj:__ZNSt3__218uninitialized_copyIPNS_4pairIK10KeyWrapperINS1_IPK14Il2CppAssemblyP11Il2CppClassEEEjEESC_EET0_T_SE_SD_
bsc:__Z36Camera_CUSTOM_get_pixelRect_InjectedP12Il2CppObjectR5RectTIfE
Mta:__ZN13RenderTextureC2E10MemLabelId18ObjectCreationMode
FYg:_Int32_GetFormatException_m519586683
hfe:__ZL46StringBuilder_t_CustomAttributesCacheGeneratorP21CustomAttributesCache
z_c:__ZN16b2ContactManagerC2Ev
b0g:_BinaryReader_ReadSByte_m3736742795
ptc:__Z60Register_UnityEngine_ScriptableObject_CreateScriptableObjectv
kTi:_Array_InternalArray__get_Item_TisVector2_t2156229523_m2502961026_gshared
$Ea:__ZN21RendererUpdateManager11AddRendererER8Renderer
JWj:__ZNK15dense_hashtableINSt3__24pairIK10KeyWrapperIPK10Il2CppTypeEjEES6_N6il2cpp8metadata14Il2CppTypeHashEN14dense_hash_mapIS6_jSB_NS6_14EqualsComparerINSA_26Il2CppTypeEqualityComparerEEENS0_9allocatorIS8_EEE9SelectKeyESF_SH_E12test_deletedERK30dense_hashtable_const_iteratorIS8_S6_SB_SJ_SF_SH_E
T9a:__Z35Transfer_Blittable_FixedBufferFieldI14SafeBinaryReadsEvRK29SerializationCommandArgumentsR31RuntimeSerializationCommandInfo
C7g:_Convert_ToDateTime_m3802186295
ejk:__ZN6il2cpp5utils11StringUtils11Utf16ToUtf8EPKDs
CSa:__ZN18StreamedBinaryReadILb0EE21TransferSTLStyleArrayINSt3__26vectorIN15ResourceManager10DependencyE13stl_allocatorIS5_L18MemLabelIdentifier52ELi16EEEEEEvRT_17TransferMetaFlags
XZh:_UInt64_CompareTo_m1614517204_AdjustorThunk
nrd:__ZN11UnityEngine15PlatformWrapper20IsRootedOrJailbrokenEv
uHb:__ZZ23InitPlayerLoopCallbacksvEN52PreLateUpdateScriptRunBehaviourLateUpdateRegistrator7ForwardEv
BTb:__Z33IntersectAABBPlaneBoundsOptimizedRK4AABBPKN4math7_float4Ei
sWb:__ZN19ScriptingInvocation6InvokeI28ScriptingSystemTypeObjectPtrEET_P21ScriptingExceptionPtrb
_2a:__ZN9GfxDevice19EndGeometryJobFrameEv
loj:_GUILayoutUtility_Layout_m1159951704
vUf:_InputField_get_shouldActivateOnSelect_m3055465770
uDh:_DefaultComparer_Equals_m2269092119_gshared
Xeb:__ZN27Converter_SimpleNativeClassI17AnimationCurveTplIfEE17ScriptingToNativeER18ScriptingObjectPtrPS1_
YVh:_Type__cctor_m2371893800
Urk:__ZN6il2cpp8metadata24Il2CppGenericInstCompare7CompareERK10KeyWrapperIPK17Il2CppGenericInstES8_
cMj:__ZNK15dense_hashtableINSt3__24pairIK10KeyWrapperIPK19Il2CppGenericMethodEPK26Il2CppGenericMethodIndicesEES6_N6il2cpp8metadata23Il2CppGenericMethodHashEN14dense_hash_mapIS6_SA_SE_NS6_14EqualsComparerINSD_26Il2CppGenericMethodCompareEEENS0_9allocatorISB_EEE9SelectKeyESI_SK_E5beginEv
AAd:_ExecuteEvents_Execute_m3049310229
Nte:__ZL84Object_t631007953_CustomAttributesCacheGenerator_Object_DestroyImmediate_m2288369078P21CustomAttributesCache
D$e:__ZN21InterfaceFuncInvoker1IiP12MemberInfo_tE6InvokeEjP11Il2CppClassP12Il2CppObjectS1_
uIg:_Array_get_IsSynchronized_m3066873806
i9:__ZN9Scripting11UnityEngine12LightmapData12CleanupProxyEv
Jdc:__ZNK17AnimationCurveTplIfE8EvaluateEfPNS0_5CacheE
zGb:__Z31ManagerContextInitializeClassesv
D6h:_ReadOnlyCollection_1_System_Collections_IList_Contains_m2650112051_gshared
yjh:_Array_get_swapper_TisVector3_t3722313464_m1221246401_gshared
k6h:_ReadOnlyCollection_1_CopyTo_m1950082901_gshared
zcd:_ft_smooth_transform
o4c:_UNITY_FT_List_Finalize
Brk:__ZN6il2cpp6icalls8mscorlib6System7Runtime8Remoting10Activation18ActivationServices34AllocateUninitializedClassInstanceEP20Il2CppReflectionType
fMb:__Z20LightAttenuateApproxRKfS0_
nU:__ZN9Scripting30SetCachedPtrOnScriptingWrapperE18ScriptingObjectPtrP6Object
cSg:_HashKeys_get_IsSynchronized_m174400341
HO:__ZN17LowLevelAllocator6MallocEj
_Gi:__Z57RuntimeInvoker_Int32_t2950945753_KeyValuePair_2_t71524366PFvvEPK10MethodInfoPvPS4_
Lph:_NoAllocHelpers_SafeLength_TisColor32_t2600501292_m3406165959_gshared
Dre:__ZL71ParticleSystemBeginUpdateAll_t1600980369_CustomAttributesCacheGeneratorP21CustomAttributesCache
shi:_UnityEvent_1__ctor_m1789019280_gshared
Lfg:_RepeatContext_get_IsMinimum_m3640286252
ili:__Z64RuntimeInvoker_Boolean_t97287965_RuntimeObject_Int32_t2950945753PFvvEPK10MethodInfoPvPS4_
Y5e:_InternalEnumerator_1__ctor_m4055378331_AdjustorThunk
IOf:_ObjectRecord_ChainFixup_m1889316362
Gsa:__ZN18BlockRangeInternal16PopLastNodeIndexEP10BlockRangeji
Tkk:__ZN6il2cpp2vm13CachedCCWBaseINS0_13ManagedObjectEE6AddRefEv
RXj:__ZN6il2cpp2gc19AppendOnlyGCHashMapINSt3__24pairIPK11Il2CppImageP11Il2CppClassEEP22Il2CppReflectionModule17ReflectionMapHashIS9_ENS2_8equal_toIS9_EEE10CopyValuesEPv
NDd:_TouchInputModule_UpdateModule_m2582897964
qMa:__ZN4MeshD0Ev
jxd:__ZL42RequestRecreateEyeTexturesBeforeNextUpdatev
dla:__ZNK6Camera20IsCurrentlyRenderingEv
Gkd:__Z36CanvasRenderer_CUSTOM_SetPopMaterialP12Il2CppObjectS0_i
SAc:__Z18Transfer_BlittableI9JSONWriteLb0EdEvRK29SerializationCommandArgumentsR31RuntimeSerializationCommandInfo
z9c:_otv_u_O_O_u_O_O
Dja:__ZN6Camera8TransferI19StreamedBinaryWriteILb0EEEEvRT_
Leh:_DBNull_System_IConvertible_ToSByte_m3533624679
npa:__ZThn252_N31CanvasBatchIntermediateRenderer14OnAssetDeletedEv
juk:_wctomb
SMg:_Char_CompareTo_m42489266
zIi:__Z67RuntimeInvoker_Void_t1185182177_Int32_t2950945753_Double_t594665363PFvvEPK10MethodInfoPvPS4_
Ebc:__Z27Camera_CUSTOM_GetAllCamerasP11Il2CppArray
Mpb:__ZNK13MonoBehaviour25GetNeedsPerObjectTypeTreeEv
mmb:__Z35Transfer_Blittable_FixedBufferFieldI18StreamedBinaryReadILb0EEiEvRK29SerializationCommandArgumentsR31RuntimeSerializationCommandInfo
Zc:___cxa_rethrow
uTd:_ParameterInfo_GetCustomAttributes_m2376494592
wCc:__Z18Transfer_BlittableI8JSONReadLb1EhEvRK29SerializationCommandArgumentsR31RuntimeSerializationCommandInfo
IKd:_Graphic_get_canvasRenderer_m315509948
x7i:_Collection_1_System_Collections_IList_Contains_m3397768605_gshared
b$f:_Navigation_set_selectOnUp_m827629728_AdjustorThunk
Hue:__ZL69NativeFixedLengthAttribute_t3072952540_CustomAttributesCacheGeneratorP21CustomAttributesCache
qRi:_Dictionary_2_Do_CopyTo_TisInt32_t2950945753_TisInt32_t2950945753_m3384108308_gshared
ipc:__ZN10systeminfo23SupportsLocationServiceEv
MUg:_CultureInfo_construct_internal_locale_from_name_m3254739477
wrg:_RSASslSignatureDeformatter_VerifySignature_m1061897602
dWb:__ZN13MonoBehaviour8SetClassE17ScriptingClassPtr18ScriptingObjectPtr
X2a:__ZN9GfxDevice33ScheduleComputeBufferJobsInternalEPFvP20ComputeBufferJobDataEPFvRK8JobFenceEPK27ComputeBufferJobInstructionj
JMi:_Array_InternalArray__Insert_TisLabelFixup_t858502054_m171542753_gshared
Kcf:_InternalEnumerator_1_System_Collections_IEnumerator_get_Current_m3539708496_AdjustorThunk
tZa:__ZN20LocalFileSystemPosix4ReadER13FileEntryDatayyPvPy
WPb:__ZNSt3__211__sift_downIRN23ForwardShaderRenderLoop18RenderObjectSorterILb0EEEP21ForwardRenderPassDataEEvT0_S7_T_NS_15iterator_traitsIS7_E15difference_typeES7_
Lvg:_SecurityPermission__ctor_m1462427327
xPi:_Array_Sort_TisBoolean_t97287965_TisBoolean_t97287965_m2753381653_gshared
zAk:dynCall_iiiiiiffiiiiiiiiiffffiiii
$pb:__ZN13MonoBehaviour5DoGUIENS_13GUILayoutTypeEii
UWd:_ChannelData_get_ClientProviders_m594662942
Tij:_QuickSearch_GetChar_m1297698557
mfa:__ZNK12TLSAllocatorI14StackAllocatorE8ContainsEPKv
GOa:__ZN11TimeManager8TransferI18StreamedBinaryReadILb0EEEEvRT_
VLb:__ZL8AddLightRK12ActiveLightsRK8Vector3fiR13dynamic_arrayI11CulledLightLj0EE
P7g:_DateTime__ParseEnum_m253019513
Dbh:_Convert_ToUInt32_m2194577773
DMa:__ZN14BlendShapeData8TransferI14SafeBinaryReadEEvRT_
PRg:_Hashtable_Remove_m4032631466
kxh:_DSAManaged_GenerateKeyPair_m2236915969
Gke:__ZL91RSASslSignatureFormatter_t2709678514_CustomAttributesCacheGenerator_U3CU3Ef__switchU24map16P21CustomAttributesCache
Iza:__ZN7Texture25ReloadFromStorageIfNeededEPvb
Doh:_Array_InternalArray__IndexOf_TisBoolean_t97287965_m1161209222_gshared
GLj:__ZNK15dense_hashtableINSt3__24pairIK10KeyWrapperIP9FieldInfoEiEES5_N6il2cpp5utils11PointerHashIS3_EEN14dense_hash_mapIS5_iSB_NS5_14EqualsComparerINS0_8equal_toIS4_EEEENS0_9allocatorIS7_EEE9SelectKeyESG_SI_E3endEv
Nqk:__ZN6il2cpp2os12Cryptography24OpenCryptographyProviderEv
eEe:__ZL55RaycastHit2D_t2279581989_CustomAttributesCacheGeneratorP21CustomAttributesCache
bba:__ZN9Scripting11UnityEngine12CullingGroup9InitProxyEv
yPg:_SynchronizedArrayListWrapper_Clear_m2191301493
Udd:_Update_Max
bdi:_Predicate_1__ctor_m2943702050_gshared
t7j:__ZN6il2cpp6icalls8mscorlib6SystemL15ThrowNoWideningEv
_cc:__ZNK23TransformChangeDispatch24GetChangeMaskForInterestENS_12InterestTypeE
fdc:__Z45Transform_CUSTOM_INTERNAL_CALL_TransformPointP12Il2CppObjectRK8Vector3fRS1_
Y_e:_GenericTypeParameterBuilder_InvokeMember_m1647304778
uMd:_HorizontalOrVerticalLayoutGroup_set_childControlWidth_m3261460516
Ywa:__ZNSt3__26__treeINS_12__value_typeI39DeprecatedFastPropertyNameSerializationfEENS_19__map_value_compareIS2_S3_NS_4lessIS2_EELb1EEENS_9allocatorIS3_EEE7destroyEPNS_11__tree_nodeIS3_PvEE
Ubd:_tt_cmap4_char_index
s3e:_InternalEnumerator_1__ctor_m2336656763_AdjustorThunk
g2i:_Enumerator_System_Collections_IEnumerator_Reset_m1487823313_gshared
XYa:__ZNK12HandlerChain8IsHiddenERK13FileEntryData
V1a:__ZNSt3__26__treeINS_12__value_typeIN4core12basic_stringIcNS2_20StringStorageDefaultIcEEEEPN16MemoryFileSystem4NodeEEENS_19__map_value_compareIS6_SA_NS_4lessIS6_EELb1EEE13stl_allocatorISA_L18MemLabelIdentifier55ELi16EEE25__emplace_unique_key_argsIS6_JNS_4pairIKS6_S9_EEEEENSK_INS_15__tree_iteratorISA_PNS_11__tree_nodeISA_PvEEiEEbEERKT_DpOT0_
fVi:_List_1_System_Collections_IList_get_IsFixedSize_m1752888098_gshared
leb:__ZL26Transfer_SimpleNativeClassI17RemapPPtrTransfer10RectOffsetLb0EEvRK29SerializationCommandArgumentsR31RuntimeSerializationCommandInfo
Xqd:__ZN11UnityEngine15PlatformWrapper18GetWin8ScalingModeEv
m3f:_ScrollRect_CalculateLayoutInputVertical_m3155297482
ZZg:_Int32_ToString_m2507389746_AdjustorThunk
lah:_Decimal_op_Explicit_m438967917
_be:__ZL55IChannelInfo_t3866172133_CustomAttributesCacheGeneratorP21CustomAttributesCache
wEj:_AnimatorControllerPlayable_SetHandle_m2260644454_AdjustorThunk
f1e:__ZN30GenericInterfaceActionInvoker2IP12Il2CppObjectS1_E6InvokeEPK10MethodInfoS1_S1_S1_
ajh:_Environment_get_SocketSecurityEnabled_m190813817
Xzi:__Z53RuntimeInvoker_Void_t1185182177_Vector4U26_t200349727PFvvEPK10MethodInfoPvPS4_
oue:__ZL57UnityEventBase_t3960448221_CustomAttributesCacheGeneratorP21CustomAttributesCache
H3g:_NullStream_Flush_m3382897993
gVc:__ZN10ClipperLib14PointInPolygonERKNS_8IntPointEPNS_5OutPtE
mVf:_InputField_set_selectionColor_m2084640295
QKi:__Z114RuntimeInvoker_Int32_t2950945753_CustomAttributeTypedArgument_t2723150157_CustomAttributeTypedArgument_t2723150157PFvvEPK10MethodInfoPvPS4_
oRi:_Dictionary_2_Do_CopyTo_TisKeyValuePair_2_t2401056908_TisKeyValuePair_2_t2401056908_m676905794_gshared
Sla:__ZNK9ShaderLab20ShaderBlendStateDesc15ToGfxBlendStateEPK19ShaderPropertySheetS3_R13GfxBlendState
Thf:_Enumerator_System_Collections_IEnumerator_get_Current_m1747693366_AdjustorThunk
NXd:_ConfigHandler_OnIgnorableWhitespace_m278399491
Bdd:_Compute_Point_Displacement
U4b:__ZN9ShaderLab9IntShaderC2Ev
Cci:_Func_3__ctor_m1375075958_gshared
Eyj:__ZL25UnresolvedVirtualCall_121P12Il2CppObjectaiS0_PK10MethodInfo
dUj:__ZN6il2cpp6icalls8mscorlib6SystemL9IsPrivateEPK9EventInfo
oqk:__ZN6il2cpp6icalls8mscorlib6System10Reflection4Emit11TypeBuilder20setup_internal_classEP27Il2CppReflectionTypeBuilderS7_
oke:__ZL72PKCS12_t4101533061_CustomAttributesCacheGenerator_U3CU3Ef__switchU24mapCP21CustomAttributesCache
$oh:_Array_InternalArray__IndexOf_TisILTokenInfo_t2325775114_m2602704009_gshared
DAd:_ExecuteEvents_Execute_m3613826831
bAh:_Dictionary_2_System_Collections_IDictionary_GetEnumerator_m972834308_gshared
PYi:_List_1_System_Collections_ICollection_get_IsSynchronized_m967177678_gshared
zQh:_StringBuilder_AppendFormat_m3255666490
dWe:_OverflowException__ctor_m4029085969
Pxc:__ZN13GUIStateScope3EndER16GUIKeyboardStateR8GUIStatePN5IMGUI19NamedKeyControlListE
fPd:_TypeBuilder_GetGenericArguments_m2872156836
y$d:_MethodCall_get_Uri_m1720935531
dyj:__ZL24UnresolvedVirtualCall_94P12Il2CppObjectS0_S0_iPK10MethodInfo
WHj:__ZN13Il2CppHashMapIPK22Il2CppGenericParameterP11Il2CppClassN6il2cpp5utils11PointerHashIS1_EENSt3__28equal_toIS2_EENS9_9allocatorINS9_4pairIK10KeyWrapperIS2_ES4_EEEEEC2EjRKS8_RKSB_
ODc:__ZN8JSONRead21TransferSTLStyleArrayI31ArrayOfManagedObjectsTransfererEEvRT_17TransferMetaFlags
f_a:__Z15CreateDirectoryRKN4core12basic_stringIcNS_20StringStorageDefaultIcEEEE
WNa:__Z21CalculateGlobalMatrix23TransformAccessReadOnly
gPd:_TypeBuilder_GetGenericTypeDefinition_m1632720438
Mjh:_Array_InternalArray__ICollection_Contains_TisLink_t544317964_m163190451_gshared
ieh:_DateTimeOffset_System_IComparable_CompareTo_m176229495_AdjustorThunk
hxf:_ManagedStreamHelpers_ValidateLoadFromStream_m580138133
eDe:__ZL104GUIUtility_t1868551600_CustomAttributesCacheGenerator_GUIUtility_EndContainerGUIFromException_m530164245P21CustomAttributesCache
oQa:__ZNK13BuildSettings22GetTypeVirtualInternalEv
X5b:__ZN13MonoBehaviour20SetScriptingDataFromERKS_
A:tempBigIntD
T6e:_InternalEnumerator_1__ctor_m1486034688_gshared
ujb:__Z35Transfer_Blittable_FixedBufferFieldI18StreamedBinaryReadILb1EEhEvRK29SerializationCommandArgumentsR31RuntimeSerializationCommandInfo
tge:__ZL56AppDomainSetup_t123196401_CustomAttributesCacheGeneratorP21CustomAttributesCache
Z$i:_List_1_CheckIndex_m2250397830_gshared
yAg:_String_LastIndexOf_m578673845
GBf:_PlayableOutput_GetHandle_m777137769_AdjustorThunk
Xzf:_PlayerEditorConnectionEvents_UnregisterManagedCallback_m400366024
FBj:_FontTextureRebuildCallback_EndInvoke_m3732346867
G4b:__ZN9ShaderLab20SerializedSubProgram14ConstantBufferC2EOS1_
z:tempBigIntI
igg:_Interval_get_Empty_m3617514670
AKi:__Z31RuntimeInvoker_Mark_t3471605523PFvvEPK10MethodInfoPvPS4_
EWe:_Assembly_GetName_m981771927
Ile:__ZL53RegexOptions_t92845595_CustomAttributesCacheGeneratorP21CustomAttributesCache
zlb:__Z29Transfer_Blittable_ArrayFieldI18StreamedBinaryReadILb1EE5RectTIfEEvRT_R9ArrayInfoRK23StaticTransferFieldInfo
rek:__ZN6il2cpp2vm12GenericClass8GetClassEP18Il2CppGenericClass
u3a:__ZNK9GfxDevice27GetActiveRenderSurfaceWidthEv
bJe:__ZL114StandaloneInputModule_t2760469101_CustomAttributesCacheGenerator_StandaloneInputModule_ForceAutoSelect_m2837047882P21CustomAttributesCache
ard:__ZN11UnityEngine15PlatformWrapper28GetCleanGraphicsFixedVersionEv
O_f:_MaskableGraphic_RecalculateClipping_m1772937317
V7b:__ZN4core8hash_mapI12TriangleEdgei16TriangleEdgeHashNSt3__28equal_toIS1_EEEixERKS1_
LQe:_UnmanagedMemoryStream_SetLength_m3752964620
e1a:__ZN16MemoryFileSystem5WriteER13FileEntryDatayyPvPy
Cbj:_SslStreamBase_RaiseLocalPrivateKeySelection_m4112368540
d1j:__ZN6il2cpp2vm4Type7GetTypeEPK10Il2CppType
aTc:__ZN23ColliderTilingExtensionD0Ev
LWc:__ZN17PhysicsMaterial2D23VirtualRedirectTransferER18StreamedBinaryReadILb0EE
e8b:__ZN16SpriteRenderData28PrepareRenderingDataIfNeededEv
a4c:_open_face_PS_from_sfnt_stream
nRh:_UTF32Encoding_GetByteCount_m3610769032
bG:__ZN11AudioModule16SetListenerPauseEb
ILg:_Byte_System_IConvertible_ToInt32_m3495522413
nIb:__Z16FindCameraStacksRKNSt3__24listI4PPtrI6CameraENS_9allocatorIS3_EEEERNS_6vectorI11CameraStackNS4_ISA_EEEE
Lhj:_MatchCollection_CopyTo_m3807326147
