zc:_glClearStencil
EXh:_UInt16_System_IConvertible_ToChar_m2096055221_AdjustorThunk
N_f:_MaskableGraphic_OnCanvasHierarchyChanged_m1780820310
Llh:_Array_TrueForAll_TisRuntimeObject_m1084992726_gshared
$ek:__ZN6il2cpp2vm5Array13GetByteLengthEP11Il2CppArray
DNi:_Array_InternalArray__set_Item_TisDateTime_t3738529785_m1331437427_gshared
pqj:_KeyBuilder_get_Rng_m3373220441
jja:__Z30GetIntermediateRendererManagerv
pCa:__Z21SourceMipLevelForBlitiiii
jHa:__Z23SetSpriteMeshIndexCountP14SharedMeshDataj
SUh:_TimeSpan_get_Hours_m550761902
P3b:__ZN9ShaderLab9SubShader15FindNamedPassesERKN4core12basic_stringIcNS1_20StringStorageDefaultIcEEEER13dynamic_arrayIPNS_4PassELj0EE
kve:__ZL63PlayableOutputHandle_t4208053793_CustomAttributesCacheGeneratorP21CustomAttributesCache
mL:__ZN11UnityEngine15CloudWebService26CloudServiceEventWithParam12ToJsonStringER9JSONWrite
OQe:_UnmanagedMemoryStream_Write_m930787521
acc:__Z59Register_UnityEngine_PlayerConnectionInternal_DisconnectAllv
Erj:_AnalyticsEventTracker_SendEvent_m1365958832
ns:__ZN11UnityEngine9Animation28GenericAnimationBindingCacheD2Ev
Wgj:_X509Store_LoadCrl_m1881903843
cQi:_Array_Sort_TisUICharInfo_t75501106_TisUICharInfo_t75501106_m722747892_gshared
MVb:__Z18RestoreRenderStateR20CameraRenderOldStateR17ShaderPassContext
akb:__Z18Transfer_BlittableI18StreamedBinaryReadILb1EELb1E5RectTIfEEvRK29SerializationCommandArgumentsR31RuntimeSerializationCommandInfo
Pfb:__Z18Transfer_BlittableI24GenerateTypeTreeTransferLb0E11ColorRGBA32EvRK29SerializationCommandArgumentsR31RuntimeSerializationCommandInfo
Uob:__Z25scripting_class_from_name17ScriptingImagePtrPKcS1_
gNi:_Array_InternalArray__Insert_TisHitInfo_t3229609740_m2020610735_gshared
TMi:_Array_InternalArray__Insert_TisSingle_t1397266774_m3161726127_gshared
K$j:__ZN14dense_hash_mapI10KeyWrapperINSt3__24pairIPK12PropertyInfoP11Il2CppClassEEEj17ReflectionMapHashIS8_ENS9_14EqualsComparerINS1_8equal_toIS8_EEEENS1_9allocatorINS2_IKS9_jEEEEE15set_deleted_keyERSH_
Mqb:__Z29scripting_class_enum_basetype17ScriptingClassPtr
pwc:__ZN6IDList10BeginOnGUIEv
aLc:__ZN16PhysicsManager2D7RaycastERK3RayfiR12RaycastHit2D
i5:__ZL43__ManagedRegistrationHelperFunction_TexturePv
bdf:_InternalEnumerator_1_get_Current_m1477715453_gshared
DZa:__ZNK20LocalFileSystemPosix6ParentERK13FileEntryDataRN4core12basic_stringIcNS3_20StringStorageDefaultIcEEEE
qpe:__ZL118TouchScreenKeyboard_t731888065_CustomAttributesCacheGenerator_TouchScreenKeyboard_Open_m3609399077____textPlaceholder6P21CustomAttributesCache
A7i:_Collection_1_System_Collections_IList_Remove_m1476284619_gshared
_Se:_MonoType_IsPrimitiveImpl_m2401722705
ltg:_SHA1CryptoServiceProvider__ctor_m4195188793
w8:__ZN9Scripting11UnityEngine9Profiling8Recorder12CleanupProxyEv
aob:__ZN18StreamedBinaryReadILb0EE21TransferSTLStyleArrayI13dynamic_arrayI11ColorRGBA32Lj0EEEEvRT_17TransferMetaFlags
eJd:_Dropdown_Hide_m504034854
cDa:__ZN9Texture2D25CreateScaledAndPaddedDataEPP17SharedTextureDataS2_
Mkh:_Array_InternalArray__ICollection_Remove_TisLink_t3209266973_m897088622_gshared
bJf:_Vector2_get_up_m2647420593
BAb:__ZN7ApiGLES17CopyBufferSubDataEjjlll
Jrh:_Array_InternalArray__ICollection_CopyTo_TisUInt64_t4134040092_m691431926_gshared
Z8f:_IPAddress_ToString_m1181734207
nQh:_StringBuilder_Append_m1965104174
qyc:__ZN5Unity9rapidjson15GenericDocumentINS0_4UTF8IcEE13JSONAllocatorS4_E11ParseStreamILj1ES3_NS0_25GenericInsituStringStreamIS3_EEEERS5_RT1_
sEh:_EqualityComparer_1__cctor_m3766928733_gshared
wgi:_UnityAction_1_Invoke_m610765085_gshared
lca:__ZN9Scripting5Unity11Collections8LowLevel6Unsafe29NativeSetThreadIndexAttribute9InitProxyEv
TIg:_Array_GetValue_m116098292
ohg:_Kernel_modInverse_m652700340
_Ee:__ZL57CanvasRenderer_t2598313366_CustomAttributesCacheGeneratorP21CustomAttributesCache
xxc:__ZN5IMGUI18RepaintModalWindowER8GUIState
ema:__ZNK15dense_hashtableINSt3__24pairIKN9ShaderLab7Program23ShaderKeywordSetAndHashEPKNS2_10SubProgramEEES4_NS3_24ShaderKeywordHashFunctorEN14dense_hash_mapIS4_S8_SA_NS0_8equal_toIS4_EE13stl_allocatorIS9_L18MemLabelIdentifier67ELi16EEE9SelectKeyESD_SG_E23find_position_with_hashERS5_j
LTg:_CompareInfo_Finalize_m404687489
kpa:__ZN31CanvasBatchIntermediateRenderer15AddAsRenderNodeER15RenderNodeQueueRK20DeprecatedSourceData
rSh:_UTF8Decoder_GetChars_m1236346907
Nik:__ZN6il2cpp8metadata13GenericMethod9GetMethodEPK19Il2CppGenericMethod
Yq:__ZNSt3__26vectorIN4core12basic_stringIcNS1_20StringStorageDefaultIcEEEENS_9allocatorIS5_EEE7reserveEj
zXe:_Default_SelectProperty_m1220817815
HLf:_RemotingConfiguration_IsRemotelyActivatedClientType_m4117048589
aIf:_Transform_TransformPoint_m226827784
Awb:__ZN13GfxDeviceGLES11SetViewportERK5RectTIiE
Sd:_emscripten_glDepthRange
ubj:_SslStreamBase_BeginNegotiateHandshake_m4180435790
C1c:__ZN9Scripting11UnityEngine10UILineInfo12CleanupProxyEv
dYb:__ZNSt3__26vectorINS_4pairIN4core12basic_stringIcNS2_20StringStorageDefaultIcEEEES6_EE13stl_allocatorIS7_L18MemLabelIdentifier38ELi16EEE12__move_rangeEPS7_SC_SC_
o0b:__Z14resize_trimmedINSt3__26vectorIN9ShaderLab20SerializedSubProgram12UAVParameterENS0_9allocatorIS4_EEEEEvRT_j
wyc:__ZN5Unity9rapidjson13GenericReaderINS0_4UTF8IcEES3_13JSONAllocatorE11ParseObjectILj1ENS0_25GenericInsituStringStreamIS3_EENS0_15GenericDocumentIS3_S4_S4_EEEEvRT0_RT1_
EDd:_StandaloneInputModule_GetRawMoveVector_m2737091079
IMe:__ZL62Selectable_t3250028441_CustomAttributesCacheGenerator_m_ColorsP21CustomAttributesCache
r8g:_Convert_ToDateTime_m2616935982
Nyb:__ZThn10632_N13GfxDeviceGLES22SetScissorRectPlatformERK5RectTIiE
ccj:_SslStreamBase_EndWrite_m4073224031
cX:__ZNSt3__218__insertion_sort_3IRNS_6__lessI14ObjectLoadDataS2_EEPS2_EEvT0_S6_T_
E5:__ZL50__ManagedRegistrationHelperFunction_PostLateUpdatePv
SBa:__ZN4crndL20crnd_default_reallocEPvjPjbS0_
rIa:__ZN18SpriteAtlasManager19AddRequestingSpriteE4PPtrI6SpriteE
Jrd:__ZNSt3__26__treeINS_12__value_typeIN4core12basic_stringIcNS2_20StringStorageDefaultIcEEEE14CallbackArray3IRKS6_R8JSONReadbEEENS_19__map_value_compareIS6_SD_NS_4lessIS6_EELb1EEE13stl_allocatorISD_L18MemLabelIdentifier6ELi16EEE25__emplace_unique_key_argsIS6_JNS_4pairIS6_SC_EEEEENSN_INS_15__tree_iteratorISD_PNS_11__tree_nodeISD_PvEEiEEbEERKT_DpOT0_
RUb:__ZN23ScriptableRenderContextC2Ev
VLd:_GridLayoutGroup_get_spacing_m2409263614
uOh:_List_1_CheckIndex_m581273900_gshared
_dd:_UNITY_FT_Stream_GetChar
Bkb:__Z18Transfer_BlittableI18StreamedBinaryReadILb1EELb1EdEvRK29SerializationCommandArgumentsR31RuntimeSerializationCommandInfo
Tqb:__Z26BuildSerializationCacheFor17ScriptingClassPtrRb
wCb:__ZN7ApiGLES15BlitFramebufferEN2gl6HandleILNS0_10ObjectTypeE9EEENS0_15FramebufferReadES3_S3_iiiiiiiiNS0_15FramebufferTypeE
nwi:__Z112RuntimeInvoker_RuntimeObject_RuntimeObject_RuntimeObject_RuntimeObject_RuntimeObject_RuntimeObject_RuntimeObjectPFvvEPK10MethodInfoPvPS4_
qcf:_InternalEnumerator_1_System_Collections_IEnumerator_get_Current_m3553395619_AdjustorThunk
Eue:__ZL60ReadOnlyAttribute_t3518714744_CustomAttributesCacheGeneratorP21CustomAttributesCache
KIg:_Array_SetValue_m3998268557
REc:__ZN8JSONRead8TransferI8Vector4fEEvRT_PKc17TransferMetaFlagsb
nGd:_ColorBlock_set_highlightedColor_m2089444414_AdjustorThunk
DEf:_RectTransform_INTERNAL_set_anchoredPosition_m939517950
mpg:_Context_EndSwitchingSecurityParameters_m4148956166
j9c:_otv_PairPos_validate
RTj:__ZN6il2cpp6icalls8mscorlib6SystemL8IsStaticEPK12PropertyInfo
Yrb:__Z9InitInputv
dbd:_UNITY_tt_face_build_cmaps
gXj:__ZN6il2cpp2gc19AppendOnlyGCHashMapINSt3__24pairIPK10MethodInfoP11Il2CppClassEEP22Il2CppReflectionMethod17ReflectionMapHashIS9_ENS2_8equal_toIS9_EEE3AddERKS9_SB_
C1a:__ZN16MemoryFileSystem6DeleteER13FileEntryDatab
Yqi:__Z81RuntimeInvoker_Void_t1185182177_RuntimeObject_Int64_t3736567304_Int32_t2950945753PFvvEPK10MethodInfoPvPS4_
FPh:_List_1_set_Item_m1979164443_gshared
Yph:_Array_InternalArray__ICollection_Add_TisLink_t3209266973_m77922316_gshared
_ya:__ZL21BlitScaleStbImageImplRK14ImageReferenceRS_NS_10ColorSpaceE
ZKg:_Boolean_System_IConvertible_ToUInt16_m3465173538_AdjustorThunk
Us:__ZL48__ManagedRegistrationHelperFunction_SkeletonBonePv
FVf:_InputField_get_keyboardType_m1248105267
Fbb:__Z29Transfer_Blittable_ArrayFieldI14SafeBinaryReadyEvRT_R9ArrayInfoRK23StaticTransferFieldInfo
vhj:_Match__ctor_m2425511580
Yxh:_KeyPairPersistence_Remove_m1876145547
nc:invoke_vifffii
W$a:__ZNK25MultiBlocksMemoryFileData5CloneEv
xok:_GC_add_ext_descriptor
xVj:__ZNK15dense_hashtableINSt3__24pairIK10KeyWrapperINS1_IPK14Il2CppAssemblyP11Il2CppClassEEEjEES9_17ReflectionMapHashIS8_EN14dense_hash_mapIS9_jSD_NS9_14EqualsComparerINS0_8equal_toIS8_EEEENS0_9allocatorISB_EEE9SelectKeyESI_SK_E23find_position_with_hashERSA_j
$Ri:_LayoutGroup_SetProperty_TisSingle_t1397266774_m793506911_gshared
kRf:_CryptoConfig_CreateFromName_m1538277313
Nyk:dynCall_iiiiiiiiiiii
zp:__ZN9Scripting11UnityEngine2AI18NavMeshBuildSource9InitProxyEv
QVf:_InputField_set_caretPositionInternal_m3823580651
ypd:__ZN18UnityConnectClient16IsServiceEnabledEv
jba:__ZN9Scripting11UnityEngine10ColorGamut9InitProxyEv
a2a:__ZN22VertexDeclarationCacheD0Ev
M3f:_Selectable_set_interactable_m3105888815
zpa:__ZL26KeywordSetToStringDontSortRKNSt3__26vectorIN4core12basic_stringIcNS1_20StringStorageDefaultIcEEEENS_9allocatorIS5_EEEERS5_
Z1:__ZN6prcoreL17RemapGenericFloatI16TexFormatRGFloat17TexFormatRGBAHalfEEvPKNS_9InnerInfoE
JD:__ZN12AudioManager22CreateFMODSoundFromWWWEP10IWWWStream15FMOD_SOUND_TYPE17FMOD_SOUND_FORMATjjbbP10SampleClip
zkc:__ZNK32RendererMaterialAnimationBinding15GenerateBindingERKN4core12basic_stringIcNS0_20StringStorageDefaultIcEEEEbRN11UnityEngine9Animation14GenericBindingE
MTd:_TargetException__ctor_m4172127019
tXi:_List_1_CheckCollection_m274117203_gshared
jHe:__ZL70EventSystem_t1003666588_CustomAttributesCacheGenerator_m_FirstSelectedP21CustomAttributesCache
pV:__ZN8Remapper23GetOrGenerateInstanceIDERK26SerializedObjectIdentifier
$Gd:_ColorTween_get_startColor_m3792586410_AdjustorThunk
n6a:__ZN11TextureData17GetImageReferenceEii
IVe:_CustomInfo__ctor_m426096741
$zd:_EventSystem_ToString_m3779610692
Sqg:_RecordProtocol_BeginReceiveRecord_m295321170
BHa:__ZN6Sprite8TransferI24GenerateTypeTreeTransferEEvRT_
Fdc:__Z48Register_UnityEngine_Transform_SetAsFirstSiblingv
qya:__ZNK18DelayedCallManager22GetTypeVirtualInternalEv
GHa:__ZN7SubMesh8TransferI24GenerateTypeTreeTransferEEvRT_
xHj:_NativeTypeAttribute__ctor_m133676646
u$h:_Collection_1_System_Collections_IList_Contains_m296643274_gshared
k0g:_DirectoryInfo__ctor_m126519516
cQd:_MethodBase_GetMethodFromIntPtr_m3014201362
kdc:__ZN9Transform23SetSiblingIndexInternalEib
xBc:__ZN9JSONWrite8TransferI13dynamic_arrayIaLj0EEEEvRT_PKc17TransferMetaFlags
Q5g:_Enumerator_MoveNext_m635366482
EFg:_X509Extension_Equals_m1222951829
uck:__ZN6il2cpp8metadata15GenericMetadata15GetGenericClassEiPK17Il2CppGenericInst
eab:__Z18Transfer_BlittableI14SafeBinaryReadLb0E10Matrix4x4fEvRK29SerializationCommandArgumentsR31RuntimeSerializationCommandInfo
iqb:__Z24GetFixedBehaviourManagerv
NSj:__ZN6il2cpp2vm10ThreadPool4WaitEP17Il2CppAsyncResultPPv
ZEg:_PKCS12_Encrypt_m2617413749
Ggj:_X509Crl_VerifySignature_m1377612461
SGg:_Activator_CreateInstance_m94526014
auk:_vfprintf
Zxc:__ZN10GUIManager12AddGUIScriptER8ListNodeI13MonoBehaviourE
T6:__ZL53__ManagedRegistrationHelperFunction_StackTraceUtilityPv
e6g:_Stack_Clear_m2010200235
PJa:__ZN19ShaderPropertySheet20ReservePropertyCountEj
V5c:_cf2_getVStore
RBd:_PointerEventData_set_pointerPressRaycast_m1363193059
PKb:__ZN20DynamicPropertySheetD0Ev
lWd:_SafeHandle_Dispose_m4229010569
hYb:__ZN14SafeBinaryRead17RegisterConverterEPKcS1_PFbPvRS_E
Xne:__ZL77RuntimePlatform_t4159857903_CustomAttributesCacheGenerator_OSXDashboardPlayerP21CustomAttributesCache
IN:__ZN35RegisterRuntimeInitializeAndCleanup8RegisterEPFvPvES2_iS0_
kej:_SubjectAltNameExtension_get_IPAddresses_m1641002124
A_e:_FieldBuilder_SetValue_m828035213
sci:__ZN28GenericInterfaceFuncInvoker0IfE6InvokeEPK10MethodInfoP12Il2CppObject
rtc:__Z21Object_CUSTOM_DestroyP12Il2CppObjectf
yHb:__ZN8Material26ResetAllCachedMaterialDataEP6Shader
Rui:__Z63RuntimeInvoker_Void_t1185182177_RuntimeObject_Int16_t2552820387PFvvEPK10MethodInfoPvPS4_
ked:_UNITY_TT_Get_MM_Var
HOf:_ObjectManager_AddFixup_m2154325362
zef:_Comparer_1__cctor_m3761458313_gshared
keh:_DateTimeOffset_CompareTo_m1350732322_AdjustorThunk
ba:invoke_diddi
Hid:__ZNK2UI6Canvas13GetRenderModeEv
suf:_PersistentCall__ctor_m1217622171
Nnh:_Array_compare_TisCustomAttributeTypedArgument_t2723150157_m1384644047_gshared
Izh:_StrongName_get_TokenAlgorithm_m1794722022
p9a:__Z18Transfer_BlittableI14SafeBinaryReadLb0EiEvRK29SerializationCommandArgumentsR31RuntimeSerializationCommandInfo
jQj:__ZN6il2cpp2vm13MetadataCache30GetPropertyDefinitionFromIndexEi
xqj:_SymmetricTransform_Transform_m1683494363
Bsd:__ZN22BaseUnityConnectClient17InitializeSessionERKN4core12basic_stringIcNS0_20StringStorageDefaultIcEEEES6_N19CloudServiceHandler13InitModeFlagsE
z5d:__ZL56KeyCollection_t4251528776_CustomAttributesCacheGeneratorP21CustomAttributesCache
ZAi:__Z74RuntimeInvoker_RuntimeObject_Int32_t2950945753_RuntimeObject_RuntimeObjectPFvvEPK10MethodInfoPvPS4_
h1i:_List_1_get_Item_m200663048_gshared
LEk:_emscripten_glDeleteBuffers__wrapper
vqc:__ZN13MonoBehaviour34StopCoroutineFromEnumeratorManagedE18ScriptingObjectPtr
bt:__ZN9Scripting11UnityEngine9HumanBone12CleanupProxyEv
qGc:__ZN11UnityEngine9Analytics18SceneLoadTimeEvent12SetSceneLoadERKN4core12basic_stringIcNS2_20StringStorageDefaultIcEEEEiyyyy
JRa:__ZN30RuntimeInitializeOnLoadManager8TransferI18StreamedBinaryReadILb0EEEEvRT_
_7g:_DateTimeOffset__ctor_m2084804982
Gad:_UNITY_tt_face_load_pclt
V9b:__ZL34GetComponentsImplementationRecurseILb1ELi0ELi2EEbR10GameObjectbRK17CompareParametersRK39GetComponentsImplementation_ReturnValue
_Uc:__ZN10ClipperLib7Clipper24InsertLocalMinimaIntoAELEx
kJg:_Array_Sort_m3698291233
oxf:_Material_GetTexture_m3545614349
Ili:__Z64RuntimeInvoker_RuntimeObject_Int32_t2950945753_Int16_t2552820387PFvvEPK10MethodInfoPvPS4_
jFh:_EqualityComparer_1__cctor_m4244842342_gshared
iKb:__ZNK6Camera18WorldToScreenPointERK8Vector3fPb
UFf:_SendMouseEvents_DoSendMouseEvents_m2140870850
mnd:__ZN14UnityAnalyticsD0Ev
vij:_PatternCompiler_EmitJump_m3915926156
Xvb:__Z18IsCompressedFormat14GraphicsFormat
RRd:_MonoMethod_GetBaseDefinition_m2844667474
fVh:__Z33il2cpp_codegen_check_add_overflowxx
tT:__ZNSt3__227__insertion_sort_incompleteIRPFbRKN18AwakeFromLoadQueue4ItemES4_EPS2_EEbT0_S9_T_
doe:__ZL73RuntimePlatform_t4159857903_CustomAttributesCacheGenerator_MetroPlayerARMP21CustomAttributesCache
D$g:_InvalidOperationException__ctor_m1685032583
jOj:__ZN14dense_hash_mapI10KeyWrapperIN6il2cpp5utils13dynamic_arrayIPK10Il2CppTypeLj4EEEEPFvvENS1_8metadata19Il2CppSignatureHashENS8_14EqualsComparerINSB_22Il2CppSignatureCompareEEENSt3__29allocatorINSG_4pairIKS8_SA_EEEEE15set_deleted_keyERSJ_
NVh:_TimeSpan_op_Subtraction_m3592306516
y7j:__ZN6il2cpp2vm9Exception25RaiseOutOfMemoryExceptionERKNS_5utils10StringViewIDsEEP19Il2CppSequencePoint
hHh:_EqualityComparer_1_System_Collections_IEqualityComparer_GetHashCode_m1517903420_gshared
iGa:__ZN26EnlightenSystemInformation8TransferI14SafeBinaryReadEEvRT_
bEe:__ZL67ContactFilter2D_t3805203441_CustomAttributesCacheGenerator_maxDepthP21CustomAttributesCache
xSa:__ZN24GenerateTypeTreeTransfer8TransferINSt3__26vectorIN15ResourceManager10DependencyE13stl_allocatorIS4_L18MemLabelIdentifier52ELi16EEEEEEvRT_PKc17TransferMetaFlags
vDj:_CanvasRenderer_SplitUIVertexStreams_m2753637362
bDi:__Z119RuntimeInvoker_Void_t1185182177_RuntimeObject_Single_t1397266774_Single_t1397266774_SByte_t1669577662_Int32_t2950945753PFvvEPK10MethodInfoPvPS4_
Jka:__ZN27PerObjectLightCullingOutputD2Ev
aOa:__ZN12MeshRendererD0Ev
SE:__ZN12AudioManager35GetCurrentSpatializerDefinitionNameEv
g7:__ZN9Scripting11UnityEngine14WaitForSeconds9InitProxyEv
Dh:_utime
fve:__ZL56PlayableGraph_t3515989261_CustomAttributesCacheGeneratorP21CustomAttributesCache
Okj:_BalancingGroup_Compile_m2575117193
U0j:__ZNSt3__26vectorIN6il2cpp2vm17TypeNameParseInfoENS_9allocatorIS3_EEE8allocateEj
gt:__ZN9Scripting11UnityEngine22AnimatorTransitionInfo9InitProxyEv
qhj:_Mark_get_Index_m3048692661_AdjustorThunk
wn:FUNCTION_TABLE_viiiiif
$df:_DefaultComparer_Compare_m3931992727_gshared
Bn:FUNCTION_TABLE_viiiiii
Ucf:_InternalEnumerator_1_System_Collections_IEnumerator_get_Current_m1847780851_AdjustorThunk
npj:_GUILayoutUtility_get_spaceStyle_m3392862907
Kxg:_SecurityException_ToString_m3228070608
$7g:_DateTimeOffset__ctor_m74032857
TFg:_SmallXmlParser_Error_m3899025466
HWh:_Type_type_is_assignable_from_m76737532
Yuc:__ZN9Scripting11UnityEngine14GUILayoutGroup12CleanupProxyEv
BRa:__ZNSt3__26vectorIN4core12basic_stringIcNS1_20StringStorageDefaultIcEEEE13stl_allocatorIS5_L18MemLabelIdentifier13ELi16EEE8__appendEj
lM:__ZN19CloudServiceHandler20StartEventDispatcherERKN11UnityEngine15CloudWebService18CloudServiceConfigERNS1_23WebRequestRestHeaderMapE
pGc:__ZN27PerformanceReportingManager21OnSceneTimingCallbackERK15SceneLoadTimingRKN4core12basic_stringIcNS3_20StringStorageDefaultIcEEEE
Qcc:__Z43Transform_CUSTOM_INTERNAL_get_localRotationP12Il2CppObjectP11Quaternionf
IHc:__ZN15AnchoredJoint2D5ResetEv
Uok:__ZN6il2cpp6icalls8mscorlib6System10Reflection4Emit13ModuleBuilder13RegisterTokenEP29Il2CppReflectionModuleBuilderP12Il2CppObjecti
Mbg:_X509Certificate2_GetValueAsString_m1348462142
QCk:_glGetShaderInfoLog__wrapper
zwe:__ZL63SpriteBone_t303320096_CustomAttributesCacheGenerator_m_ParentIdP21CustomAttributesCache
gi:_emscripten_glGetTexParameteriv
e5:__ZL49__ManagedRegistrationHelperFunction_ComputeBufferPv
Mpd:__ZN11UnityEngine7Connect15DeviceInfoEvent7GFXInfoD2Ev
mEk:_glGenTextures__wrapper
L0b:__ZN9ShaderLab20SerializedSubProgram14ConstantBufferaSERKS1_
EXc:__ZN9Polygon2D8TransferI18StreamedBinaryReadILb0EEEEvRT_
E6b:__Z13tessTesselateP14TESStesselatoriiiiPKf
Ag:emscriptenWebGLGetBufferBinding
Hy:__ZN12AudioManager8TransferI19StreamedBinaryWriteILb0EEEEvRT_
n4f:_Slider_UpdateCachedReferences_m3259451627
t5j:__ZN15dense_hashtableINSt3__24pairIK10KeyWrapperINS1_IP11Il2CppClassjEEES4_EES6_N6il2cpp8metadata14ArrayClassHashEN14dense_hash_mapIS6_S4_SB_NS6_14EqualsComparerINSA_17ArrayClassCompareEEENS0_9allocatorIS8_EEE9SelectKeyESF_SH_E6insertERKS8_
BJd:_U3CShowU3Ec__AnonStorey1_U3CU3Em__0_m2340880019
Esd:__ZN22BaseUnityConnectClient38PrepareConfigRequestOnMainThreadStaticEPS_
WTc:__ZN16CircleCollider2D10SmartResetEv
Qwk:__ZNSt3__212basic_stringIcNS_11char_traitsIcEENS_9allocatorIcEEE21__grow_by_and_replaceEjjjjjjPKc
zdj:_TlsStream_Flush_m3793197834
pYa:__ZN22LocalFileSystemHandler9MakeLocalER13FileEntryDatab
okk:__ZN6il2cpp2vm8Profiler10AllocationEP12Il2CppObjectP11Il2CppClass
BKe:__ZL61Graphic_t1660335611_CustomAttributesCacheGenerator_m_MaterialP21CustomAttributesCache
o1:__Z13FormatOrderedPKcz
mUj:__ZN6il2cpp2vm8basepathEPKc
Waf:_InternalEnumerator_1_get_Current_m1506120701_AdjustorThunk
wcg:_X509Chain_GetAuthorityKeyIdentifier_m614536199
Z1c:__ZN14SafeBinaryRead21TransferSTLStyleArrayI10vector_mapINSt3__24pairIttEEfN20TextRenderingPrivate8FontImpl14KerningCompareENS2_9allocatorINS3_IS4_fEEEEEEEvRT_17TransferMetaFlags
$ng:_TlsServerFinished__ctor_m1445633918
AVe:_NumberFormatter_FastIntegerToString_m390846811
RZf:__ZN21InterfaceFuncInvoker0IfE6InvokeEjP11Il2CppClassP12Il2CppObject
wNa:__ZN14CompressedMesh10GetQualityE15MeshCompression
GRb:__ZN25DeferredRenderLoopScratchD0Ev
Wb:invoke_viifi
Iyi:__Z83RuntimeInvoker_Void_t1185182177_RuntimeObject_Single_t1397266774_Single_t1397266774PFvvEPK10MethodInfoPvPS4_
bua:__ZNK13RenderTexture21GetShadowSamplingModeEv
uBd:_PhysicsRaycaster_Raycast_m776323695
CIf:_UnityException__ctor_m1456865679
h$:__ZN14PlayableOutput26ClearInvalidSourcePlayableEv
W$b:__ZN15dense_hashtableINSt3__24pairIKiN4core17string_with_labelILi1EEEEEi18SInt32HashFunctionN14dense_hash_mapIiS5_S7_NS0_8equal_toIiEE13stl_allocatorIS6_L18MemLabelIdentifier1ELi16EEE9SelectKeyESA_SD_E9copy_fromERKSG_j
YXe:_CustomAttributeNamedArgument_GetHashCode_m2317130892
URa:__ZN15ResourceManagerD0Ev
rma:__ZN22CreateGpuProgramOutputD2Ev
l0i:_List_1_get_Item_m1378751541_gshared
ntg:_SHA1CryptoServiceProvider_Finalize_m1793183797
e7g:_Convert_ToByte_m4146281512
QIh:_HashSet_1_System_Collections_Generic_ICollectionU3CTU3E_CopyTo_m408073502_gshared
kkg:_EncryptedPrivateKeyInfo_get_EncryptedData_m491452551
EYa:__ZN12HandlerChain4OpenER13FileEntryData14FilePermission16FileAutoBehavior
Jqh:_Array_InternalArray__ICollection_Add_TisPlayerLoopSystem_t105772105_m1930641144_gshared
UIi:__Z72RuntimeInvoker_Void_t1185182177_Int32_t2950945753_RaycastHit_t1056001966PFvvEPK10MethodInfoPvPS4_
kXj:__ZN15dense_hashtableINSt3__24pairIK10KeyWrapperINS1_IPK10MethodInfoP11Il2CppClassEEEjEES9_17ReflectionMapHashIS8_EN14dense_hash_mapIS9_jSD_NS9_14EqualsComparerINS0_8equal_toIS8_EEEENS0_9allocatorISB_EEE9SelectKeyESI_SK_E6insertERKSB_
xx:__ZL55__ManagedRegistrationHelperFunction_AudioPlayableOutputPv
BGc:__ZN27PerformanceReportingManager29OnSceneLoadedAfterAwakeStaticEPS_iR18AwakeFromLoadQueueN19RuntimeSceneManager11LoadingModeE
IIg:_Array_SetValue_m394135409
xW:__ZN14FileCacherReadD2Ev
OUa:__ZN13RendererScene23UpdatePreviousFrameDataEii
qzf:_MonoBehaviour_StopCoroutine_m615723318
D9b:__Z50Register_UnityEngine_CullingGroup_FinalizerFailurev
bwg:_SecurityPermission_IsSubsetOf_m545000671
N4b:__ZN12ShaderErrors11ShaderErrorC2EOS0_
Iwk:__ZNKSt3__221__basic_string_commonILb1EE20__throw_out_of_rangeEv
Tsf:_Cursor_get_lockState_m2828192107
SRj:_UpdatedEventHandler_Invoke_m1320302085
TAg:_String_Format_m630303134
wD:__ZN9AudioClip23VirtualRedirectTransferER18StreamedBinaryReadILb0EE
I0i:_List_1_AddEnumerable_m2724989594_gshared
QBi:__Z82RuntimeInvoker_Vector2_t2156229523_Vector2_t2156229523_RuntimeObject_RuntimeObjectPFvvEPK10MethodInfoPvPS4_
Wrc:__Z70Register_UnityEngine_Playables_PlayableHandle_GetPlayableType_Injectedv
djg:_ARC4Managed_TransformBlock_m1687647868
Hj:_glCopyTexSubImage2D
HIf:_UnitySynchronizationContext_ExecuteTasks_m1310741010
Jaj:_RIPEMD160Managed_CompressFinal_m497690796
Drb:__ZN18ScreenManagerWebGL13SetShowCursorEb
AFb:__ZN13DrawImmediateC2ER9GfxDevice
Roa:__ZN18VertexChannelsInfoC2ERA12_K11ChannelInfo
qjd:__ZN2UI13CanvasManager14GetRenderOrderEPKNS_6CanvasE
aab:__Z18Transfer_BlittableI14SafeBinaryReadLb0E5RectTIfEEvRK29SerializationCommandArgumentsR31RuntimeSerializationCommandInfo
EVe:_NumberFormatter_NumberToString_m2562899600
r9c:_otv_u_C_x_Ox
a0c:__ZL44__ManagedRegistrationHelperFunction_ColliderPv
d6a:__ZN18AsyncUploadManager19AsyncResourceUploadER9GfxDeviceii9TextureID
aFk:_emscripten_glGenVertexArrays__wrapper
__h:_Version_Clone_m1749041863
Aza:__ZN6prcoreL21CreateRemapAnyBlitterE13TextureFormatS0_
Okg:_RSAManaged_ExportParameters_m1754454264
$oc:__ZN17AnimationCurveTplIfE16StripInvalidKeysEv
jLg:_Boolean_Equals_m535526264_AdjustorThunk
Ajd:__ZNK2UI6Canvas17GetSortingLayerIDEv
Rpc:__ZL12HashLen0to16PKcj
gOc:__ZN14Raycast2DQuery8RunQueryEb
DFa:__ZN8Renderer24SetupNewRendererForSceneEv
BWh:_Type_internal_from_name_m1721940673
j3j:_il2cpp_type_get_class_or_element_class
jMf:_RemotingServices_GetMethodBaseFromName_m3194612939
$Cc:__Z35Transfer_Blittable_FixedBufferFieldI8JSONReadtEvRK29SerializationCommandArgumentsR31RuntimeSerializationCommandInfo
PGa:__ZNK6Sprite22GetTypeVirtualInternalEv
vaa:__ZN9Scripting11UnityEngine12Experimental9Playables22MaterialEffectPlayable9InitProxyEv
vn:FUNCTION_TABLE_iiiiiiiiiiiiii
tHj:_NativePropertyAttribute__ctor_m2033094153
iad:_UNITY_tt_get_cmap_info
isg:_SslClientStream_RaiseServerCertificateValidation_m3477149273
Qgb:__Z29Transfer_Blittable_ArrayFieldI24GenerateTypeTreeTransfer5RectTIiEEvRT_R9ArrayInfoRK23StaticTransferFieldInfo
ora:__ZN16ReflectionProbes8ScheduleEN18ReflectionProbeJob7JobTypeEP15ReflectionProbei
dog:_ClientSessionInfo_KeepAlive_m1020179566
FX:__ZN16MessageForwarder13HandleMessageEPviR11MessageData
d_a:__Z18IsDirectoryCreatedRKN4core12basic_stringIcNS_20StringStorageDefaultIcEEEE
Pvg:_String_FormatHelper_m3913915042
Ohd:__ZN2UI13CanvasManagerD2Ev
DXe:_ConstructorInfo__cctor_m1016079270
XKj:__ZN15dense_hashtableINSt3__24pairIK10KeyWrapperIPKcEP11Il2CppClassEES5_N6il2cpp5utils11StringUtils12StringHasherIS4_EEN14dense_hash_mapIS5_S8_SE_NS5_14EqualsComparerINSB_13VmStringUtils21CaseSensitiveComparerEEENS0_9allocatorIS9_EEE9SelectKeyESJ_SL_E15set_deleted_keyERKS9_
FGg:_AttrListImpl_get_Names_m977594476
p4c:_UNITY_FT_GlyphLoader_Done
R0:__ZNSt3__23mapIiN11TypeManager18TypeCallbackStructENS_4lessIiEENS_9allocatorINS_4pairIKiS2_EEEEEixERS7_
Enc:__ZN9Polygon2D16CheckConsistencyEv
ETd:_Pointer_Box_m389276611
z8a:__ZNK17InstancingBatcher15RenderInstancesERK19ShaderPropertySheetRKNS_22RenderInstancesConfigsERK11MeshBuffersRK16DrawBuffersRange16VertexInputMasks
chh:_StackTrace_get_FrameCount_m344690939
lW:__ZN13dynamic_arrayIcLj0EE6insertEPcPKcS3_
zQe:_UnexceptionalStreamWriter_Write_m363195622
ibd:_tt_cmap14_char_var_index
UFj:_Physics2D_Raycast_m1700114981
DWf:_Selectable_OnPointerDown_m1086067264
nfd:_psh_globals_new
VId:_Dropdown_SetupTemplate_m628218778
xSh:_Thread_GetCompressedStack_m2923422412
dyf:_Matrix4x4_MultiplyPoint3x4_m4145063176
Lag:_X509BasicConstraintsExtension_ToString_m1809935297
j2a:__ZN9GfxDevice20SetMaxBufferedFramesEi
Wii:_TweenRunner_1_StartTween_m1055628540_gshared
yIc:__ZN10Collider2D19WakeAllBodyContactsEv
NRi:_GameObject_GetComponents_TisRuntimeObject_m1246177135_gshared
rRe:_MethodAccessException__ctor_m3542088436
CZb:__Z23ConvertIntegerToTypePtrIsEbPvR14SafeBinaryRead
Gt:__ZN9Scripting11UnityEngine10Animations26AnimatorControllerPlayable9InitProxyEv
AKc:__ZN12b2MouseJoint11ShiftOriginERK6b2Vec2
MZj:__ZN6il2cpp2vmL8IsMethodEP12Il2CppObject
DEh:_EqualityComparer_1_System_Collections_IEqualityComparer_GetHashCode_m2230215241_gshared
INe:__ZL60ContentSizeFitter_t3850442145_CustomAttributesCacheGeneratorP21CustomAttributesCache
MRg:_Hashtable_Contains_m2145146412
h4:__ZN6prcoreL29inner_stretch_rgb565_bilinearEPKNS_9InnerInfoE
boa:__Z26TransformVerticesInnerLoopILb0ELb0ELb1EEvPhRK10Matrix4x4fRK10Matrix3x3fjPKhiS8_ii25GfxTransformVerticesFlagsj
OYg:_Int32_FindCurrency_m3541026887
Agg:_Interval_CompareTo_m3282557545
ZFk:_pthread_cond_wait__wrapper
NQb:__ZNK14RenderSettings19GetFlatAmbientColorEv
wna:__ZN8DrawUtil24DrawMeshRawFromNodeQueueERK15RenderNodeQueuej16VertexInputMasksi
LQa:__ZN18StreamedBinaryReadILb0EE21TransferSTLStyleArrayI10vector_mapIPKN5Unity4TypeE7Hash128NSt3__24lessIS6_EENS8_9allocatorINS8_4pairIS6_S7_EEEEEEEvRT_17TransferMetaFlags
NXj:__ZN6il2cpp2gc19AppendOnlyGCHashMapINSt3__24pairIPK11Il2CppImageP11Il2CppClassEEP22Il2CppReflectionModule17ReflectionMapHashIS9_ENS2_8equal_toIS9_EEE11TryGetValueERKS9_PSB_
saj:_RijndaelManagedTransform_TransformBlock_m1610137419
zdc:__Z40Register_UnityEngine_Transform_SetParentv
Rya:__ZN14Texture2DArray17UploadToGfxDeviceEv
EA:__Z14FMODMemoryFreePvjPKc
_Xc:__ZN17CapsuleCollider2D8TransferI18StreamedBinaryReadILb0EEEEvRT_
oaa:__ZN9Scripting11UnityEngine12Experimental10PlayerLoop11FixedUpdate12CleanupProxyEv
luf:_NetFxCoreExtensions_GetMethodInfo_m444570327
sWh:_Type_get_IsSystemType_m624798880
Gyf:_Mesh_SetNormals_m2521889643
A6c:_cf2_glyphpath_moveTo
drc:__Z51Register_UnityEngine_Texture_get_texelSize_Injectedv
CGf:_StackTraceUtility_SetProjectFolder_m830524047
sog:_ClientSessionInfo_Finalize_m2165787049
yxc:__ZN5IMGUI14GUIWindowStateD2Ev
png:_ClientContext_Clear_m1774063253
roc:__ZN4Mesh17SetIndicesComplexEPKvjj16GfxPrimitiveTypeij
wdh:_DateTime_AddSeconds_m332574389_AdjustorThunk
oIf:_RequestAtlasCallback_Invoke_m378128467
MLg:_Byte_System_IConvertible_ToSByte_m1869482168
lri:__Z99RuntimeInvoker_RuntimeObject_RuntimeObject_RuntimeObject_StreamingContext_t3711869237_RuntimeObjectPFvvEPK10MethodInfoPvPS4_
Nrj:_AnalyticsEventTracker_Awake_m2780522130
Yvf:_GameObject_Internal_AddComponentWithType_m3797731663
rm:_emscripten_glIsTexture
Yk:_emscripten_glHint
Rqj:_Check_SourceAndPredicate_m2332465641
YDe:__ZL74ContactFilter2D_t3805203441_CustomAttributesCacheGenerator_useOutsideDepthP21CustomAttributesCache
Ydd:_ft_var_readpackeddeltas
Yjb:__Z35Transfer_Blittable_FixedBufferFieldI18StreamedBinaryReadILb1EEtEvRK29SerializationCommandArgumentsR31RuntimeSerializationCommandInfo
MYh:_UInt32_System_IConvertible_ToInt64_m2261037378
um:_SDL_UpperBlit
jra:__Z35GetTextureDecodeValuesWithIntensity16TextureUsageMode17TextureColorSpace10ColorSpacef
zjj:_Parser_ParseRepetitionBounds_m1246581246
Kkh:_Array_InternalArray__ICollection_Remove_TisChar_t3634460470_m4143749387_gshared
OFb:__ZN15dense_hashtableINSt3__24pairIK9TextureIDiEES2_14GfxGenericHashIS2_EN14GfxDoubleCacheIS2_iS6_NS0_8equal_toIS2_EEN31GfxDoubleCacheConcurrencyPolicy11LocklessGetE42GfxDoubleCacheDefaultEmptyDeletedGeneratorIS2_EE9SelectKeyES9_13stl_allocatorIS4_L18MemLabelIdentifier24ELi16EEE14squash_deletedEv
$ec:__Z13RegisterClassI14Texture2DArrayEvPKc
wKc:__ZNK12b2MouseJoint10GetAnchorAEv
xDg:_Encoding_GetBytes_m3823106599
DTg:_GregorianCalendar__ctor_m979779718
Jrg:_SslClientStream__ctor_m2402546929
krf:_Camera_get_pixelRect_Injected_m2326986893
T6f:_DictionaryNodeEnumerator_get_Entry_m2309234501
BW:__ZN14FileCacherRead16UnlockCacheBlockEj
LQ:__ZN10InstancingL21OnGraphicsCapsChangedEv
tte:__ZL101SystemInfo_t3561985952_CustomAttributesCacheGenerator_SystemInfo_GetOperatingSystemFamily_m1440411909P21CustomAttributesCache
AUh:_WaitHandle_get_Handle_m3260446580
eMh:_Enumerator_VerifyState_m1745883925_AdjustorThunk
Lc:_emscripten_glUniform1f
j5g:_SortedList__ctor_m1261191695
X3j:__ZN6il2cpp2vm6Thread28GetThreadStaticDataForThreadEiP12Il2CppThread
a5c:__Z20ParseImageParametersR11UTF16StringRiRN20TextRenderingPrivate16TextFormatChangeE
xNe:__ZL55CanvasScaler_t2767979955_CustomAttributesCacheGeneratorP21CustomAttributesCache
Qc:_emscripten_glUniform1i
lfb:__Z18Transfer_BlittableI24GenerateTypeTreeTransferLb1EN4math12int3_storageEEvRK29SerializationCommandArgumentsR31RuntimeSerializationCommandInfo
Q0f:__Z14bankers_roundff
bJ:__ZN11UnityEngine15CloudWebService16SessionContainer20RestoreSessionHeaderERKN4core12basic_stringIcNS2_20StringStorageDefaultIcEEEES8_RNS0_13SessionHeaderE
Mqk:__ZN6il2cpp2os12Cryptography23GetCryptographyProviderEv
Bu:__ZN11UnityEngine9Animation27CreateAvatarBindingConstantER9TransformPKN7mecanim9animation14AvatarConstantERNS3_6memory9AllocatorE
Bqi:__Z151RuntimeInvoker_RuntimeObject_Int32_t2950945753_RuntimeObject_ObjectU5BU5DU26_t712384779_RuntimeObject_RuntimeObject_RuntimeObject_ObjectU26_t2146539884PFvvEPK10MethodInfoPvPS4_
ynd:__ZN8JSONRead19TransferSTLStyleMapINSt3__23mapIN4core12basic_stringIcNS3_20StringStorageDefaultIcEEEEN11UnityEngine9Analytics16LimitEventConfigENS1_4lessIS7_EE13stl_allocatorINS1_4pairIKS7_SA_EEL18MemLabelIdentifier6ELi16EEEEEEvRT_17TransferMetaFlags
EFd:_CanvasUpdateRegistry__ctor_m2005397069
JU:__ZN14MessageHandler3GetEv
VQd:_MonoMethodInfo_GetCallingConvention_m3156036493
Hvf:_SupportedRenderingFeatures_FallbackMixedLightingModeByRef_m3859171964
dd:_emscripten_glAttachShader
n7b:__Z16tesedgeIntersectP10TESSvertexS0_S0_S0_S0_
LO:__Z40DebugStringToFilePostprocessedStacktraceRK21DebugStringToFileData
wNd:_Image__cctor_m1927508576
c2b:__ZNSt3__26vectorIN4core12basic_stringIcNS1_20StringStorageDefaultIcEEEENS_9allocatorIS5_EEE6assignIPS5_EENS_9enable_ifIXaasr21__is_forward_iteratorIT_EE5valuesr16is_constructibleIS5_NS_15iterator_traitsISC_E9referenceEEE5valueEvE4typeESC_SC_
REa:__ZThn32_N8Renderer15AddAsRenderNodeER15RenderNodeQueueRK20DeprecatedSourceData
kCb:__ZN13dynamic_arrayIN18GlslGpuProgramGLES9GLProgramELj0EE6insertEPS1_jRKS1_
Ycf:_InternalEnumerator_1_get_Current_m3331252162_AdjustorThunk
J9a:__Z18Transfer_BlittableI14SafeBinaryReadLb0E11QuaternionfEvRK29SerializationCommandArgumentsR31RuntimeSerializationCommandInfo
fnb:__Z18Transfer_BlittableI18StreamedBinaryReadILb0EELb1E12PropertyNameEvRK29SerializationCommandArgumentsR31RuntimeSerializationCommandInfo
tO:_tlsf_walk_heap
qqi:__Z49RuntimeInvoker_Void_t1185182177_OpCode_t123070264PFvvEPK10MethodInfoPvPS4_
Nze:__ZL59AnimatorClipInfo_t3156717155_CustomAttributesCacheGeneratorP21CustomAttributesCache
Ebh:_Convert_ToUInt32_m3592050311
jb:invoke_vif
CRi:_Component_GetComponents_TisRuntimeObject_m2416546752_gshared
kb:invoke_vid
_wk:__ZNSt3__212basic_stringIcNS_11char_traitsIcEENS_9allocatorIcEEE6insertEjPKc
mb:invoke_vii
MJb:__ZNK12ImageFilters8DoRenderER17ShaderPassContextP13RenderTextureS3_RKNSt3__26vectorI11ImageFilterNS4_9allocatorIS6_EEEE
tfa:__ZN12TLSAllocatorI14StackAllocatorE16ThreadInitializeEP13BaseAllocator
Qri:__Z82RuntimeInvoker_Boolean_t97287965_SByte_t1669577662_RuntimeObject_SByte_t1669577662PFvvEPK10MethodInfoPvPS4_
u2a:__ZN9GfxDevice32UpdateStereoViewProjectionMatrixE21MonoOrStereoscopicEye
tL:__Z29GetCloudWebServicesModuleSpecv
vkd:__Z41CanvasRenderer_CUSTOM_DisableRectClippingP12Il2CppObject
DSe:_MonoType_GetConstructorImpl_m441167626
g5:__ZL45__ManagedRegistrationHelperFunction_CoroutinePv
Z5i:_Collection_1_IsFixedSize_m3709118201_gshared
H0a:__ZN25SingleBlockMemoryFileDataD0Ev
Ow:__ZNSt3__26vectorI14ConstantStringNS_9allocatorIS1_EEE6assignINS_11__wrap_iterIPS1_EEEENS_9enable_ifIXaasr21__is_forward_iteratorIT_EE5valuesr16is_constructibleIS1_NS_15iterator_traitsISA_E9referenceEEE5valueEvE4typeESA_SA_
YI:__ZN11UnityEngine15CloudWebService16SessionContainer21ConvertFromFolderTimeERKN4core12basic_stringIcNS2_20StringStorageDefaultIcEEEEPjPt
SQf:_CodeAccessPermission_Equals_m1555575992
tbb:__ZNSt3__26vectorI8GUIStyle13stl_allocatorIS1_L18MemLabelIdentifier1ELi16EEE7reserveEj
G6j:__ZN6il2cpp6icalls8mscorlib6System9Threading6Thread27GetSerializedCurrentCultureEP12Il2CppThread
Pog:_Context_set_ReadSequenceNumber_m2154909392
naj:_RijndaelTransform_SubByte_m3037693507
$gc:__Z31CalculateHierarchyTransformType23TransformAccessReadOnly
eA:__ZN4FMOD8ChannelI11setPositionEjj
Ewf:_Input_INTERNAL_CALL_GetTouch_m3481893561
Amk:_GC_set_fl_marks
oRa:__ZNSt3__26vectorIN30RuntimeInitializeOnLoadManager15ClassMethodInfoE13stl_allocatorIS2_L18MemLabelIdentifier13ELi16EEE7reserveEj
x2a:__ZN9GfxDevice17SetStereoViewportE15StereoscopicEyeRK5RectTIiE
H0:__ZN17BaseObjectManager13StaticDestroyEPv
mN:__GLOBAL__sub_I_Runtime_Graphics_Mesh_1_cpp
gDj:_CanvasRenderer_INTERNAL_CALL_GetColor_m597074473
Lef:_Comparer_1__cctor_m3891417387_gshared
tPc:__ZN27b2UpdateTriggerContactsTask8FinalizeEv
oE:__ZN12AudioManager14UpdateListenerERK8Vector3fS2_S2_S2_
ZZe:_EnumBuilder_GetEvent_m4074915332
MHf:_Vector3_get_forward_m3100859705
gy:__ZN4FMOD6Reverb13setPropertiesEPK22FMOD_REVERB_PROPERTIES
yLb:__ZN9DepthPass13PrepareSubsetEjRK10RenderNodeifRK17ShaderReplaceData
Qzg:_String_IndexOf_m3406607758
U0b:__ZN9ShaderLab20SerializedSubProgram16TextureParameter8TransferI14SafeBinaryReadEEvRT_
Y9c:_otv_BaseCoord_validate
zoc:__Z35SetMeshComponentFromArrayFromScriptR4Mesh30InternalScriptingShaderChannel34InternalScriptingVertexChannelTypei17ScriptingArrayPtri
mqh:_Array_InternalArray__ICollection_Add_TisCustomAttributeNamedArgument_t287865710_m4157175270_gshared
Rq:__ZN4core20StringStorageDefaultIcE6assignEPKcj
RZh:_UInt64_System_IConvertible_ToUInt64_m2135047981_AdjustorThunk
Hhg:_BigInteger_ModPow_m3776562770
Xdk:__ZN15dense_hashtableINSt3__24pairIK10KeyWrapperIP12Il2CppObjectEN6il2cpp2gc9CachedCCWEEES5_NS7_5utils11PointerHashIS3_EEN14dense_hash_mapIS5_S9_SD_NS5_14EqualsComparerINS0_8equal_toIS4_EEEENS0_9allocatorISA_EEE9SelectKeyESI_SK_E3endEv
Qqg:_RecordProtocol_ProcessChangeCipherSpec_m15839975
WNg:_ArrayList_IndexOf_m305368842
yVb:__ZN6Camera6SetFarEf
fNf:_FormatterConverter_ToBoolean_m1680758923
T3:__ZN6prcoreL12RemapGenericI17TexFormatABGR888817TexFormatARGB8888EEvPKNS_9InnerInfoE
Sfa:__ZN11GameManager17MainThreadCleanupEv
Q2h:_ReadOnlyCollection_1__ctor_m1345363288_gshared
ckd:__Z50Register_UnityEngine_UISystemProfilerApi_EndSamplev
NFj:_Physics2D_Raycast_m2082490717
dUc:__ZN10Collider2D12AddToManagerEv
gOf:_SerializationCallbacks_GetSerializationCallbacks_m2939476649
Kcd:_UNITY_tt_slot_init
gHb:__ZZ23InitPlayerLoopCallbacksvEN41PostLateUpdateUpdateResolutionRegistrator7ForwardEv
Wob:__Z25scripting_array_class_get17ScriptingClassPtrj
aBc:__ZL22Transfer_ManagedObjectI9JSONWriteLb1EEvRK29SerializationCommandArgumentsR31RuntimeSerializationCommandInfo
hD:__ZNK10SampleClip22GetTypeVirtualInternalEv
p3a:__ZN9GfxDevice20DestroyRenderSurfaceER12ObjectHandleI17RenderSurface_TagP17RenderSurfaceBaseE
_5g:_Stack__ctor_m2602729586
Fcc:__Z35Resources_CUSTOM_GetBuiltinResourceP12Il2CppObjectP12Il2CppString
BJg:_Array_slow_swapper_m4116724811
qUb:__ZN12_GLOBAL__N_15qAsinEff
W4e:_InternalEnumerator_1_System_Collections_IEnumerator_get_Current_m2629988057_AdjustorThunk
ufa:__ZN12TLSAllocatorI14StackAllocatorE13ThreadCleanupEv
ZAh:_Dictionary_2_get_Item_m2136868513_gshared
MJa:__ZN14SafeBinaryRead21TransferSTLStyleArrayI13dynamic_arrayI8Vector4fLj0EEEEvRT_17TransferMetaFlags
K_h:_ValueType_InternalEquals_m1384040357
fkk:__ZThn4_N6il2cpp2vm13ComObjectBase16MarshalInterfaceEP13Il2CppIStreamRK10Il2CppGuidPvjS7_j
p9g:_Convert_ToDouble_m996590115
O_b:__Z27FindActiveTransformWithPathPKc
m7h:_ReadOnlyCollection_1_System_Collections_IList_Remove_m4169110229_gshared
qYh:_UInt16_ToString_m3020002356
uZf:_LayoutRebuilder_LayoutComplete_m68578143
$oj:_GUIStyle_get_fixedWidth_m2576616348
z5g:_SortedList_Find_m3363512987
FNb:__ZNK6Camera7GetNearEv
H_e:_GenericTypeParameterBuilder_GetConstructorImpl_m863833310
vif:_Enumerator_get_Current_m3687673883_AdjustorThunk
Tid:__ZN2UI13CanvasManager8SortListEv
TBb:__ZN7ApiGLES11UnmapBufferEjN2gl12BufferTargetE
wkk:__ZN6il2cpp5utilsL24Utf32CharToSurrogatePairEjRA2_Ds
FBa:__Z25GetNextAllowedTextureSizeib13TextureFormat
Nrb:__ZN20LocalFileSystemWebGL4CopyER13FileEntryDataS1_
cM:__ZN19CloudServiceHandler6RetainEv
G3h:_ReadOnlyCollection_1_System_Collections_IList_IndexOf_m198887188_gshared
cDi:__Z71RuntimeInvoker_Vector2_t2156229523_Vector2_t2156229523_Rect_t2360479859PFvvEPK10MethodInfoPvPS4_
xvc:__Z36Event_CUSTOM_Internal_SetNativeEventPv
dRh:_UTF32Encoding_GetBytes_m3180303867
q5h:_ReadOnlyCollection_1_System_Collections_IList_Clear_m2007013334_gshared
PVa:__Z34scripting_liveness_calculation_endPv
oMg:_Char_GetDataTablePointers_m754571594
Ogk:__ZN6il2cpp2os6ThreadC2Ev
kjc:__ZN28ReflectionProbeAnchorManager7CleanupEv
yeh:_DateTimeOffset_get_UtcDateTime_m1021718282_AdjustorThunk
o6f:_HybridDictionary_get_Count_m1166314536
udj:_TlsStream_Write_m1412844442
DCc:__Z18Transfer_BlittableI8JSONReadLb0E8Vector3fEvRK29SerializationCommandArgumentsR31RuntimeSerializationCommandInfo
Vxf:_Matrix4x4__ctor_m53065545_AdjustorThunk
y3j:__ZN6il2cpp2vm6Thread6DetachEP12Il2CppThread
Xdj:_GeneralNames_get_DNSNames_m3788548987
Cfd:_Render_Single_Pass
Eug:_SymmetricAlgorithm_get_IV_m1875559108
z5:__ZL56__ManagedRegistrationHelperFunction_TextureMixerPlayablePv
Pu:__ZN7mecanim8skeleton30SkeletonBuildReverseIndexArrayEPiPKiPKNS0_8SkeletonES6_
Uvc:__Z19GetGUIBlendMaterialv
gRe:_Math_Round_m3018379666
Dhk:__ZN6il2cpp2os10ThreadImpl5SleepEjb
I3h:_ReadOnlyCollection_1_System_Collections_IList_Remove_m1965826685_gshared
ysd:__ZN22BaseUnityConnectClient12IsNewSessionEv
ZBe:__ZL82LayoutCache_t78309876_CustomAttributesCacheGenerator_LayoutCache__ctor_m3885940174P21CustomAttributesCache
xgh:_Delegate_CreateDelegate_m1051651521
Slh:_PlayableHandle_IsPlayableOfType_TisRuntimeObject_m503495943_AdjustorThunk
CEk:_glBindSampler__wrapper
oGb:__ZNSt3__26vectorIN20ArchiveStorageHeader12StorageBlockE13stl_allocatorIS2_L18MemLabelIdentifier55ELi16EEE8__appendEj
Lf:_emscripten_set_mouseup_callback
Nxf:_Mathf_Clamp_m3350697880
bsi:__Z165RuntimeInvoker_Void_t1185182177_UInt32U26_t3735378166_Int32_t2950945753_UInt32U26_t3735378166_Int32_t2950945753_Int32_t2950945753_Int32_t2950945753_Int32_t2950945753PFvvEPK10MethodInfoPvPS4_
UOh:_List_1_System_Collections_IList_Remove_m3140917266_gshared
Ndg:_X509ChainElementCollection_System_Collections_IEnumerable_GetEnumerator_m3829089536
Grb:__ZNK18ScreenManagerWebGL8GetWidthEv
aVh:_TimeSpan_get_TotalHours_m306507525_AdjustorThunk
eD:__ZN10SampleClipD2Ev
bei:_Predicate_1_Invoke_m2389850270_gshared
hVa:__Z13GetGISettingsv
v7b:__ZN19SpriteMeshGenerator7contourERNSt3__26vectorINS_6vertexENS0_9allocatorIS2_EEEERiRf
OL:__ZN11UnityEngine15CloudWebService20WebRequestRestClientC2Ev
j8c:_cff_cmap_unicode_init
Wjh:_Array_InternalArray__ICollection_Contains_TisRuntimeObject_m4067783231_gshared
O4:__ZL60__ManagedRegistrationHelperFunction_AssemblyIsEditorAssemblyPv
C4i:_Collection_1_IsValidItem_m3080586124_gshared
eGd:_ClipperRegistry_Register_m2407166513
Bvk:_readlink
fZj:__ZN15dense_hashtableINSt3__24pairIK10KeyWrapperINS1_IPK9EventInfoP11Il2CppClassEEEjEES9_17ReflectionMapHashIS8_EN14dense_hash_mapIS9_jSD_NS9_14EqualsComparerINS0_8equal_toIS8_EEEENS0_9allocatorISB_EEE9SelectKeyESI_SK_E12resize_deltaEjj
QQd:_MonoCMethod_Invoke_m2700167622
mSg:_KeyMarker__cctor_m2590194914
Lqk:__ZN6il2cpp8metadata14Il2CppTypeHash4HashEPK10Il2CppType
Nrk:__ZN6il2cpp2os13SemaphoreImplC2Eii
GLa:__ZNK6Sprite9GetBoundsE8Vector2fbb
wka:__ZNK19RenderEventsContext21CleanupCommandBuffersEv
nCj:_TextGenerator_PopulateWithErrors_m1222498386
s6h:_ReadOnlyCollection_1_System_Collections_Generic_ICollectionU3CTU3E_Clear_m2102011098_gshared
szb:__ZN11ContextGLES6CreateEi
HWi:_List_1_set_Capacity_m3382070520_gshared
UXf:_U3CMouseDragOutsideRectU3Ec__Iterator1_Dispose_m267465418
_fh:_Decimal_CompareTo_m3502307243_AdjustorThunk
Wnb:__Z19TransferField_ArrayI18StreamedBinaryReadILb0EE27Converter_SimpleNativeClassI17AnimationCurveTplIfEEEvRK23StaticTransferFieldInfoR31RuntimeSerializationCommandInfoRT0_
Ofa:__ZN14StackAllocator16FrameMaintenanceEb
iEa:__Z18ReadStringFromFilePN4core17string_with_labelILi1EEERKNS_12basic_stringIcNS_20StringStorageDefaultIcEEEE
wBc:__ZN9JSONWrite8TransferI13dynamic_arrayIjLj0EEEEvRT_PKc17TransferMetaFlags
mX:__ZNK10GameObject20QueryComponentByTypeEPKN5Unity4TypeE
rfh:_Decimal_System_IConvertible_ToInt32_m1488426794_AdjustorThunk
JRe:_MonoCustomAttrs_IsUserCattrProvider_m2878058089
hLe:__ZL71InputField_t3762917431_CustomAttributesCacheGenerator_m_HideMobileInputP21CustomAttributesCache
oAa:__ZN11TextureData5ResetEv
Gac:__Z53Register_UnityEngine_GameObject_get_activeInHierarchyv
$ug:_ToBase64Transform_InternalTransformFinalBlock_m360524956
MGg:_ActivationContext_Dispose_m2038725770
sS:__ZL30InitializeCoreScriptingClassesv
Qqa:__ZN15SerializeTraitsI12fixed_bitsetILi28EjEE8TransferI18StreamedBinaryReadILb0EEEEvRS1_RT_
Ig:_glBlitFramebuffer
idb:__Z35Transfer_Blittable_SingleValueFieldI14SafeBinaryReadhEvRT_R17GeneralMonoObjectRK23StaticTransferFieldInfo
oVh:_TimeSpan_Duration_m2963553230
J5b:__ZN12CachedWriter15CompleteWritingEv
wAa:__ZNK12CubemapArray22GetTypeVirtualInternalEv
Tn:FUNCTION_TABLE_vif
Un:FUNCTION_TABLE_vid
Wn:FUNCTION_TABLE_vii
_Va:__Z40scripting_liveness_calculation_from_root18ScriptingObjectPtrPv
hva:__ZN7Texture23VirtualRedirectTransferER24GenerateTypeTreeTransfer
u3c:_UNITY_FT_Set_Transform
YKa:__ZN14SpriteRenderer16CheckConsistencyEv
fEk:_glDeleteFramebuffers__wrapper
zoi:__Z220RuntimeInvoker_Boolean_t97287965_RuntimeObject_Int32U26_t1369213839_Int32_t2950945753_Int32_t2950945753_Int32_t2950945753_RuntimeObject_SByte_t1669577662_Int32_t2950945753_ContractionU26_t961830454_ContextU26_t3937453398PFvvEPK10MethodInfoPvPS4_
Gwh:_BitConverterLE_GetUIntBytes_m949779219
t6c:_cff_blend_build_vector
P9f:_WebHeaderCollection_ToString_m1263025316
aec:__Z26Input_CUSTOM_GetButtonDownP12Il2CppString
YSd:_GetterAdapter_Invoke_m3767885970
IXi:_List_1__ctor_m747758800_gshared
FBg:_String_CreateString_m2818852475
EDj:_CanvasRenderer_get_hasMoved_m2236392341
Uzf:_MessageEvent__ctor_m1231650089
_Xa:__ZNK15Lz4Decompressor16DecompressMemoryEPKvPjPvS2_
Vja:__Z11IsCoroutine18ScriptingMethodPtrRK22CommonScriptingClasses
u5b:__ZN4core8hash_mapINS_12basic_stringIcNS_20StringStorageDefaultIcEEEE10vector_setI4PPtrI11SpriteAtlasENSt3__24lessIS8_EE13stl_allocatorIS8_L18MemLabelIdentifier81ELi16EEENS_4hashIS4_EENS9_8equal_toIS4_EEEixERKS4_
xYc:__ZN11Rigidbody2D8TransferI24GenerateTypeTreeTransferEEvRT_
Gxa:__Z35UnityPropertySheet_MakeSortedColorsRKNSt3__23mapIN9ShaderLab16FastPropertyNameE10ColorRGBAfNS_4lessIS2_EENS_9allocatorINS_4pairIKS2_S3_EEEEEER10vector_mapIS2_S3_S5_NS6_INS7_IS2_S3_EEEEE
In:FUNCTION_TABLE_iiiiiiffiiiiiiiiiffffiii
Aad:_UNITY_tt_face_load_os2
AXc:__ZN17PolygonCollider2D8TransferI24GenerateTypeTreeTransferEEvRT_
Vrh:_Array_InternalArray__ICollection_CopyTo_TisUICharInfo_t75501106_m4268526610_gshared
kEe:__ZL107Collider2D_t2806799626_CustomAttributesCacheGenerator_Collider2D_IsTouchingLayers_m3205548484____layerMask0P21CustomAttributesCache
Dcb:__Z29Transfer_Blittable_ArrayFieldI14SafeBinaryRead8Vector4fEvRT_R9ArrayInfoRK23StaticTransferFieldInfo
xfk:__GLOBAL__sub_I_BoehmGC_cpp
rXe:_Default_check_arguments_m3882727959
jSh:_UTF8Encoding_GetMaxCharCount_m3762459613
yYe:_ModuleBuilder_RegisterToken_m4166846047
ZGb:__ZZ23InitPlayerLoopCallbacksvEN51PostLateUpdateUpdateCustomRenderTexturesRegistrator7ForwardEv
D$f:_RawImage_OnPopulateMesh_m1115858855
HQj:__ZN6il2cpp2vm13MetadataCache25GetStringLiteralFromIndexEi
lHg:_Hashtable_ToPrime_m33531354
_$h:_Collection_1_IsSynchronized_m1117613618_gshared
eG:__ZN11AudioModule6UpdateEv
ajf:_KeyCollection_System_Collections_Generic_ICollectionU3CTKeyU3E_Remove_m2555909644_gshared
vXh:_TypeInitializationException__ctor_m3546444694
Rcc:__ZNK9Transform16GetLocalRotationEv
QK:__ZN11UnityEngine15CloudWebService23WebRequestUploadHandler17ConsumeUploadDataEj
wDi:__Z68RuntimeInvoker_Void_t1185182177_Single_t1397266774_SByte_t1669577662PFvvEPK10MethodInfoPvPS4_
a3g:_MemoryStream_set_Position_m3169779190
sUb:__ZN13RenderManager29SetCurrentCameraAndStackStateEP6CameraP25CameraStackRenderingState
_Ad:_ExecuteEvents_get_scrollHandler_m2659345019
nga:__ZNSt3__26__treeINS_12__value_typeIjN4core12basic_stringIcNS2_20StringStorageDefaultIcEEEEEENS_19__map_value_compareIjS7_NS_4lessIjEELb1EEE13stl_allocatorIS7_L18MemLabelIdentifier7ELi16EEE7destroyEPNS_11__tree_nodeIS7_PvEE
B5j:__ZN15dense_hashtableINSt3__24pairIK10KeyWrapperINS1_IP11Il2CppClassjEEES4_EES6_N6il2cpp8metadata14ArrayClassHashEN14dense_hash_mapIS6_S4_SB_NS6_14EqualsComparerINSA_17ArrayClassCompareEEENS0_9allocatorIS8_EEE9SelectKeyESF_SH_E12resize_deltaEjj
Xh:_JS_WebRequest_Release
yJ:__ZN11UnityEngine15CloudWebService14DataErrorEventD0Ev
N8j:__ZN6il2cpp6icalls8mscorlib6System4Type20internal_from_handleEi
pme:__ZL72RequiredByNativeCodeAttribute_t4130846357_CustomAttributesCacheGeneratorP21CustomAttributesCache
pYd:_Context__ctor_m254302079
taa:__ZN9Scripting11UnityEngine12Experimental9Playables20TextureMixerPlayable9InitProxyEv
qDa:__ZN19ShaderPropertySheet16SetArrayPropertyEN9ShaderLab16FastPropertyNameENS_12PropertyTypeEPKvj
x1f:_Selectable_FindSelectable_m2348614027
DJd:_DropdownItem_OnPointerEnter_m1492957598
xba:__ZN9Scripting11UnityEngine9BoundsInt9InitProxyEv
Pqd:__ZN11UnityEngine15PlatformWrapper16GetApplicationIdEv
Rcd:_UNITY_TT_Get_VMetrics
wdg:_X509Chain__cctor_m993507223
jPg:_SimpleEnumerator__cctor_m2844299657
QQe:_LocalDataStoreSlot__ctor_m4104083971
Uuj:_AudioSource_ReadExtensionName_m725112169
Xfj:_X509CertificateEnumerator_System_Collections_IEnumerator_Reset_m2039524926
lvi:__Z128RuntimeInvoker_Void_t1185182177_RuntimeObject_BooleanU26_t4125257963_SByte_t1669577662_Int32U26_t1369213839_Int32U26_t1369213839PFvvEPK10MethodInfoPvPS4_
sva:__ZN7Texture21GetMasterTextureLimitEv
ZOa:__ZN13dynamic_arrayI9InputAxisLj0EE18resize_initializedEj12ResizePolicy
kWb:__Z12CanAddScriptR10GameObject17ScriptingClassPtrPS1_S2_
e0j:__ZN6il2cpp2vm10Reflection12HasAttributeEP12Il2CppObjectP11Il2CppClass
Mai:_Comparison_1_BeginInvoke_m3263247262_gshared
mR:__ZN9ShaderLabL25StaticInitializeShaderLabEPv
U:Math_max
SNe:__ZL64HorizontalLayoutGroup_t2586782146_CustomAttributesCacheGeneratorP21CustomAttributesCache
Y1j:_il2cpp_class_get_methods
QFc:__GLOBAL__sub_I_artifacts_WebGL_codegenerator_0_cpp_3493
ofb:__Z18Transfer_BlittableI24GenerateTypeTreeTransferLb0EN4math12int2_storageEEvRK29SerializationCommandArgumentsR31RuntimeSerializationCommandInfo
bhh:_StackTrace_get_trace_m1194606084
Pyg:_Single_CompareTo_m2785801815_AdjustorThunk
Wgk:__ZN6il2cpp2os6Thread16GetCurrentThreadEv
fsd:__ZN11UnityEngine7Connect20RemoteConfigSettings10UnregisterEv
jNi:_Array_InternalArray__Insert_TisUILineInfo_t4195266810_m3191124053_gshared
j6b:__ZN10GameObject13ComponentPair15SetComponentPtrEPN5Unity9ComponentE
xCk:_glBlitFramebuffer__wrapper
tga:__ZN10TagManager8TransferI19StreamedBinaryWriteILb0EEEEvRT_
uVa:__ZN11PreloadData23VirtualRedirectTransferER18StreamedBinaryReadILb0EE
Uba:__ZN9Scripting11UnityEngine24AssemblyIsEditorAssembly12CleanupProxyEv
wMg:_Char_System_IConvertible_ToDateTime_m3564102661
ox:__ZN13RuntimeStaticINSt3__26vectorI12WebCamDeviceNS0_9allocatorIS2_EEEELb0EE13StaticDestroyEPv
NGa:__ZN6Sprite17MainThreadCleanupEv
HCk:_glBlendFuncSeparate__wrapper
eC:__ZN10AudioMixer14UpdateMuteSoloEv
Fla:__ZN12BaseRenderer25FlattenSharedMaterialDataILb0EEEbRKS_R22PerThreadPageAllocatorR10RenderNode
Lha:__ZN9Transform35SetLocalPositionWithoutNotificationERKN4math7_float3Ey
Vpe:__ZL101MonoBehaviour_t3962482529_CustomAttributesCacheGenerator_MonoBehaviour_StartCoroutine_Auto_m594129169P21CustomAttributesCache
Yi:_JS_Eval_ClearTimeout
R7a:__ZN7ApiGLES16SetPatchVerticesEi
ilj:_CharacterClass_Compile_m3296067317
ygk:__ZN6il2cpp2gc16GarbageCollector16InvokeFinalizersEv
LLg:_Byte_System_IConvertible_ToInt64_m285584218_AdjustorThunk
zDf:_Rect_get_size_m477575021_AdjustorThunk
wIj:__ZN6il2cpp2vm5Class20FromGenericParameterEPK22Il2CppGenericParameter
zM:__ZN19CloudServiceHandler11FlushEventsEv
a0:__ZN15GlobalCallbacksC2Ev
OKc:__ZN7b2World10CreateBodyEPK9b2BodyDef
Gff:_Comparer_1_System_Collections_IComparer_Compare_m2016223770_gshared
f5h:_ReadOnlyCollection_1_System_Collections_Generic_ICollectionU3CTU3E_Add_m1738170497_gshared
iui:__Z74RuntimeInvoker_DateTime_t3738529785_DateTime_t3738529785_Int32_t2950945753PFvvEPK10MethodInfoPvPS4_
g5c:_UNITY_FT_New_Memory_Face
y7i:_Collection_1_System_Collections_IList_IndexOf_m3271188411_gshared
N2g:_MonoIO_GetFileStat_m678141354
R8c:_UNITY_FT_Load_Sfnt_Table
gId:__Z15CastclassSealedP12Il2CppObjectP11Il2CppClass
Pfh:_Decimal_IsZero_m4250358244_AdjustorThunk
AQe:_UnmanagedMemoryStream_get_CanRead_m3770815400
_Ub:__ZN16ReflectionProbes40UpdateRealtimeReflectionProbesTimeslicedEv
bHa:__ZN14SafeBinaryRead21TransferSTLStyleArrayI13dynamic_arrayI8Vector2fLj0EEEEvRT_17TransferMetaFlags
a7g:_Decimal_u64_m3374804932
OXh:_UInt16_System_IConvertible_ToInt32_m1950778303_AdjustorThunk
ZQa:__ZNK30RuntimeInitializeOnLoadManager22GetTypeVirtualInternalEv
DNj:__ZN15dense_hashtableINSt3__24pairIK10KeyWrapperIN6il2cpp5utils13dynamic_arrayIPK10Il2CppTypeLj4EEEEPFvvEEESA_NS3_8metadata19Il2CppSignatureHashEN14dense_hash_mapISA_SD_SG_NSA_14EqualsComparerINSF_22Il2CppSignatureCompareEEENS0_9allocatorISE_EEE9SelectKeyESK_SM_E12resize_deltaEjj
Tjc:__ZN16ReflectionProbes15InitializeClassEv
IJ:__ZN13dynamic_arrayIN11UnityEngine15CloudWebService14DataErrorEvent15FileErrorDetailELj0EE18resize_initializedEj12ResizePolicy
n5h:_ReadOnlyCollection_1_System_Collections_ICollection_CopyTo_m2527663815_gshared
oak:__ZN6il2cpp2vm5Image9GetCorlibEv
yJf:_Vector3_get_left_m2428419009
xek:__ZN6il2cpp2vm11MethodStack17GetStackFramesRawEv
pnk:_GC_reclaim_uninit
NAd:_ExecuteEvents_Execute_m113814934
wY:__ZN13RuntimeStaticINSt3__23mapIN4core12basic_stringIcNS2_20StringStorageDefaultIcEEEES6_NS0_4lessIS6_EE13stl_allocatorINS0_4pairIKS6_S6_EEL18MemLabelIdentifier13ELi16EEEELb0EE13StaticDestroyEPv
Dsf:_Coroutine_ReleaseCoroutine_m947702340
Mff:_Enumerator_System_Collections_IEnumerator_get_Current_m2979767597_AdjustorThunk
jgi:__ZN30GenericInterfaceActionInvoker1I17Color_t2555686324E6InvokeEPK10MethodInfoP12Il2CppObjectS0_
RTf:_MD5CryptoServiceProvider_ProcessFinalBlock_m2241588515
H2f:_ScrollRect_GetBounds_m449872505
Wj:_glIsVertexArray
ZFg:_SmallXmlParser_Read_m3485223434
EYg:_Int16_Parse_m2276856944
Khd:__ZL42__ManagedRegistrationHelperFunction_CanvasPv
fa:invoke_fff
qvk:_mbsinit
nBk:b14
_qc:__Z34RenderTexture_Get_Custom_PropWidthP12Il2CppObject
lid:__ZN2UI6Canvas17MainThreadCleanupEv
M3:__ZN6prcoreL12RemapGenericI17TexFormatARGB155517TexFormatRGBA8888EEvPKNS_9InnerInfoE
pKj:__ZN13Il2CppHashMapIPK19Il2CppGenericMethodPK26Il2CppGenericMethodIndicesN6il2cpp8metadata23Il2CppGenericMethodHashENS7_26Il2CppGenericMethodCompareENSt3__29allocatorINSA_4pairIK10KeyWrapperIS2_ES5_EEEEEC2EjRKS8_RKS9_
SOd:_TypeBuilder_HasElementTypeImpl_m1871001960
Uxg:_SecurityFrame__ctor_m2140076703_AdjustorThunk
sPi:_Array_Resize_TisVector2_t2156229523_m3382835435_gshared
$Dh:_DefaultComparer_Equals_m2458578172_gshared
j8a:__ZN7ApiGLES13CreateProgramEv
Qsa:__ZN11HaloManager7AddHaloEv
lgf:_Enumerator_VerifyState_m4003066746_gshared
RBa:__ZN4crnd12crn_unpackerD2Ev
Ex:__ZN9Scripting11UnityEngine12Experimental5Audio19AudioSampleProvider9InitProxyEv
lk:_emscripten_glTexImage2D
Aef:_Comparer_1_System_Collections_IComparer_Compare_m2537217645_gshared
Ena:__ZN16MeshVertexFormat20GetVertexDeclarationER9GfxDevice16VertexInputMasksPKS_
hS:__ZN18ScriptingArguments9AddStringEPKc
Jnk:_setup_header
oNg:_Char_ToString_m3588025615
dxh:_CryptoConvert_ToCapiKeyBlob_m3371450375
iza:__ZL23stbir__resize_arbitraryPvPKviiiS_iiiffffPfiij14stbir_datatype12stbir_filterS4_10stbir_edgeS5_16stbir_colorspace
u7b:__ZN19SpriteMeshGenerator4maskC2EP11ColorRGBA32iihj
Ifb:__Z18Transfer_BlittableI24GenerateTypeTreeTransferLb1E8Vector4fEvRK29SerializationCommandArgumentsR31RuntimeSerializationCommandInfo
rBk:b18
wk:_pthread_detach
ZRj:__ZN6il2cpp2vm19SocketPollingThread7RunLoopEv
jKd:_FontUpdateTracker_UntrackText_m1981515690
XFe:__ZL64AnalyticsEventTracker_t2285229262_CustomAttributesCacheGeneratorP21CustomAttributesCache
Lob:__ZNSt3__213__stable_sortIRN10vector_mapI17ScriptingClassPtrPKN5Unity4TypeENS_4lessIS2_EENS_9allocatorINS_4pairIS2_S6_EEEEE13value_compareENS_11__wrap_iterIPSB_EEEEvT0_SJ_T_NS_15iterator_traitsISJ_E15difference_typeEPNSM_10value_typeEi
Mth:_SimpleCollator_FillSurrogateSortKeyRaw_m725998232
UZi:_List_1_AddEnumerable_m1284696147_gshared
a9f:_IPAddress_Equals_m1823478787
cZd:_Context_CreateNewContext_m3053563976
D2b:__ZN9ShaderLab25SerializedTextureProperty8TransferI24GenerateTypeTreeTransferEEvRT_
YZj:__ZN6il2cpp2gc19AppendOnlyGCHashMapINSt3__24pairIPK14Il2CppAssemblyP11Il2CppClassEEP24Il2CppReflectionAssembly17ReflectionMapHashIS9_ENS2_8equal_toIS9_EEEC2Ev
uib:__Z18Transfer_BlittableI19StreamedBinaryWriteILb0EELb0EdEvRK29SerializationCommandArgumentsR31RuntimeSerializationCommandInfo
cN:__GLOBAL__sub_I_Runtime_Camera_RenderLoops_2_cpp
Rea:__ZN11NamedObject8TransferI18StreamedBinaryReadILb0EEEEvRT_
huf:_InvokableCall_remove_Delegate_m1376110510
LRg:_Hashtable_Clear_m3112193608
TRh:_UTF8Encoding_InternalGetByteCount_m771565606
BDc:__Z18Transfer_BlittableI8JSONReadLb1EyEvRK29SerializationCommandArgumentsR31RuntimeSerializationCommandInfo
bVi:_List_1_System_Collections_IList_Remove_m3654336679_gshared
zxe:__ZL51GUILayer_t2783472903_CustomAttributesCacheGeneratorP21CustomAttributesCache
Gna:__ZN9GfxDevice20GetVertexDeclarationERK18VertexChannelsInfoNS_30VertexDeclarationMRUCacheIndexE
Tk:_emscripten_glMatrixMode
Q_f:_MaskableGraphic_UnityEngine_UI_IClippable_get_gameObject_m1739855597
Xxg:_SecurityFrame_get_Assembly_m2874566710
rXg:_Guid__ctor_m3562600567_AdjustorThunk
Ich:_DateTime_System_IConvertible_ToInt16_m3239820399
SI:__ZN11UnityEngine15CloudWebService14DataDispatcher16PrepareDataBlockERNS0_16SessionContainerE
$Eb:__ZN18GfxFramebufferGLES5ClearE13GfxClearFlagsRK10ColorRGBAffib
Qph:_MonoProperty_StaticGetterAdapterFrame_TisRuntimeObject_m4131530968_gshared
knb:__ZL26Transfer_SimpleNativeClassI18StreamedBinaryReadILb0EE10RectOffsetLb0EEvRK29SerializationCommandArgumentsR31RuntimeSerializationCommandInfo
J7e:_InternalEnumerator_1_get_Current_m2316281569_gshared
iLb:__ZL12DepthPassJobPN21GfxDeviceAsyncCommand10ArgScratchEPKNS_3ArgE
W0b:__ZNSt3__26vectorIN9ShaderLab20SerializedSubProgram16TextureParameterENS_9allocatorIS3_EEE6assignINS_11__wrap_iterIPS3_EEEENS_9enable_ifIXaasr21__is_forward_iteratorIT_EE5valuesr16is_constructibleIS3_NS_15iterator_traitsISC_E9referenceEEE5valueEvE4typeESC_SC_
izf:_MonoBehaviour_IsInvoking_m3285132449
Syc:__ZN5Unity9rapidjson6WriterI16TempBufferWriterNS0_4UTF8IcEES4_13JSONAllocatorE11WriteDoubleEd
BTh:_Thread_SetCachedCurrentUICulture_m1729523031
v6a:__ZN14GfxDeviceStats16CopyAllDrawStatsERKS_
ong:_ClientContext_set_ClientHelloProtocol_m4189379912
Vm:FUNCTION_TABLE_iiiiiiiiiiii
Lpa:__ZN16GraphicsSettingsD0Ev
cP:__Z12FormatBufferPciPKcz
Xrd:__ZNSt3__26__treeINS_12__value_typeIN4core12basic_stringIcNS2_20StringStorageDefaultIcEEEE14CallbackArray3IRKS6_R8JSONReadbEEENS_19__map_value_compareIS6_SD_NS_4lessIS6_EELb1EEE13stl_allocatorISD_L18MemLabelIdentifier6ELi16EEE7destroyEPNS_11__tree_nodeISD_PvEE
n:cttz_i8
h6c:_UNITY_FT_GlyphLoader_Add
dvd:__ZN9Scripting11UnityEngine10Networking29UnityWebRequestAsyncOperation9InitProxyEv
ovj:_AudioListener_INTERNAL_CALL_ReadExtensionPropertyName_m330480156
ibh:_Convert_ToUInt16_m867476252
Ql:_emscripten_glViewport
elc:__Z21GenerateTilingAreaJobP22GenerateTilingAreaInfoj
mkk:__ZN6il2cpp6icalls8mscorlib6System15MonoCustomAttrs17IsDefinedInternalEP12Il2CppObjectP20Il2CppReflectionType
SEj:_SkeletonBone_t4134054672_marshal_pinvoke_back
tba:__ZN9Scripting11UnityEngine10CacheIndex9InitProxyEv
E7c:_cff_parse_font_bbox
Vsh:_MSCompatUnicodeTable_Category_m1834196420
nPa:__ZN14PlayerSettings23VirtualRedirectTransferER18StreamedBinaryReadILb0EE
Wni:__Z85RuntimeInvoker_Void_t1185182177_Int32_t2950945753_Int32_t2950945753_Int32_t2950945753PFvvEPK10MethodInfoPvPS4_
Rhh:_Double_CompareTo_m3151899116
Tsk:__ZN6il2cpp2os5Event5ResetEv
Tad:_tt_name_ascii_from_other
Ptj:_ToggleGroup__ctor_m3308114662
rck:__ZN6il2cpp8metadata15GenericMetadata17InflateParametersEPK13ParameterInfohPK20Il2CppGenericContextb
Qsg:_RSAParameters_t1728406613_marshal_pinvoke_back
gQi:_Array_Sort_TisUILineInfo_t4195266810_m3737783007_gshared
mBf:_PlayableAsset_Internal_CreatePlayable_m2550417712
rFf:_RenderTexture_get_width_m2160921386
h5c:__ZN13dynamic_arrayIN4core17string_with_labelILi35EEELj0EE6insertEPS2_jRKS2_
RCe:__ZL64GUIUtility_t1868551600_CustomAttributesCacheGenerator_s_SkinModeP21CustomAttributesCache
QQc:__ZN34b2SolveDiscreteIslandBodySleepTask7TaskJobEPS_j
P9c:_otv_LigatureSubst_validate
tsb:__Z25SetNeedToPerformRenderingb
And:__ZN8JSONRead12TransferPairINSt3__24pairIN4core12basic_stringIcNS3_20StringStorageDefaultIcEEEEN11UnityEngine9Analytics16LimitEventConfigEEEEEvRT_17TransferMetaFlagsPKN5Unity9rapidjson12GenericValueINSG_4UTF8IcEE13JSONAllocatorEE
Vga:__ZN10GameObjectD2Ev
wLb:__ZN14qsort_internal30FindAndMovePivotToLastPositionIP15RODataDepthPassi17ROSorterDepthPassEEvT_S4_T0_T1_
YTb:__ZN12CullingGroup10SendEventsEPK17CullingGroupEventj
nCd:_PointerInputModule__ctor_m3728889932
SEa:__ZThn32_NK8Renderer8GetLayerEv
CLh:_Enumerator_System_Collections_IEnumerator_Reset_m2915500989_gshared
J7c:_cff_parse_vsindex
PYg:_Int32_ValidDigit_m1059003769
RGk:_emscripten_glTexParameterfv__wrapper
FEf:_RectTransform_INTERNAL_get_sizeDelta_m2173368204
EYf:_LayoutGroup_get_rectTransform_m442863741
Q9a:__Z18Transfer_BlittableI14SafeBinaryReadLb1E9BoundsIntEvRK29SerializationCommandArgumentsR31RuntimeSerializationCommandInfo
dgc:__ZN2UI13RectTransform17GetLocalPositionZEv
UDk:b63
P2j:_il2cpp_method_get_param_count
_X:__ZNK5Unity4Type21FindAllDerivedClassesER13dynamic_arrayIPKS0_Lj0EENS0_17TypeFilterOptionsE
vcc:__ZN10systeminfo19ISOToSystemLanguageERN4core12basic_stringIcNS0_20StringStorageDefaultIcEEEE
RYj:__ZNK15dense_hashtableINSt3__24pairIK10KeyWrapperINS1_IPK12PropertyInfoP11Il2CppClassEEEjEES9_17ReflectionMapHashIS8_EN14dense_hash_mapIS9_jSD_NS9_14EqualsComparerINS0_8equal_toIS8_EEEENS0_9allocatorISB_EEE9SelectKeyESI_SK_E3endEv
zYc:__ZN11Rigidbody2D8TransferI19StreamedBinaryWriteILb0EEEEvRT_
r_h:_UnauthorizedAccessException__ctor_m40101894
rud:__ZN22BaseUnityConnectClient14AppRunningTickEj
Ped:_ps_dimension_done
rgd:__Z46Register_UnityEngine_TextGenerator_Dispose_cppv
Vhh:_Double_Parse_m4153729520
mii:_IndexedSet_1_AddUnique_m861843892_gshared
RFa:__ZN16LightmapSettings8TransferI14SafeBinaryReadEEvRT_
nzb:__ZN17BufferManagerGLES13ReleaseBufferEP14DataBufferGLES
nmg:_CipherSuite_Write_m1172814058
KPe:_SynchronizedWriter_Write_m301917713
SP:__ZN9profiling6MarkerC2EPKc13ProfilerGroupNS0_5FlagsE
yDc:__Z18Transfer_BlittableI8JSONReadLb1EjEvRK29SerializationCommandArgumentsR31RuntimeSerializationCommandInfo
CYe:_ConstructorBuilder_get_IsCompilerContext_m3364441562
htf:_Debug_LogWarning_m3752629331
lfc:__Z13RegisterClassIN2UI13RectTransformEEvPKc
$aa:__ZN9Scripting11UnityEngine7Texture9InitProxyEv
U9h:_ReadOnlyCollection_1_System_Collections_Generic_IListU3CTU3E_RemoveAt_m4037795630_gshared
tsi:__Z117RuntimeInvoker_Void_t1185182177_RuntimeObject_Int32_t2950945753_Int32_t2950945753_Int32_t2950945753_Int32_t2950945753PFvvEPK10MethodInfoPvPS4_
bJa:__ZNK13ScreenManager17GetFullscreenModeEv
KC:__Z30GetAudioSpatializerDefinitionsR13dynamic_arrayIP29AudioEffectInternalDefinitionLj0EE31UnityAudioEffectDefinitionFlags
_Ed:_U3COnFinishSubmitU3Ec__Iterator0_Reset_m3632769946
ip:stackSave
qL:__ZN5Unity9rapidjson15GenericDocumentINS0_4UTF8IcEE13JSONAllocatorNS0_12CrtAllocatorEE6StringEPKcjb
bHd:_ColorTween_get_targetColor_m1724075482_AdjustorThunk
ifd:_ps_dimension_end
Isc:__Z41Register_UnityEngine_Mesh_Internal_Createv
dLa:__ZN14SpriteRenderer23VirtualRedirectTransferER24GenerateTypeTreeTransfer
pck:__ZNK15dense_hashtableI10KeyWrapperIP18Il2CppGenericClassES3_N6il2cpp8metadata22Il2CppGenericClassHashEN14dense_hash_setIS3_S6_NS3_14EqualsComparerINS5_25Il2CppGenericClassCompareEEENSt3__29allocatorIS3_EEE8IdentityESA_SD_E12test_deletedERK30dense_hashtable_const_iteratorIS3_S3_S6_SF_SA_SD_E
rOc:__ZNSt3__27__sort3IRN18Overlap2DQueryBase29ColliderHitsByDepthComparitorEPP10Collider2DEEjT0_S7_S7_T_
v6g:_Console_Open_m3077673205
cgj:_X509StoreManager_get_CurrentUser_m4040993045
FVb:__ZN6Camera9SetAspectEf
Poh:_Array_InternalArray__IndexOf_TisDateTime_t3738529785_m2463359116_gshared
wa:invoke_viiffiii
hIk:_emscripten_glBindVertexArray__wrapper
Sek:__ZN6il2cpp6icalls8mscorlib6System4Enum19get_underlying_typeEP20Il2CppReflectionType
Slj:_Parser_IsECMAScript_m674158805
Uha:__ZN9Transform37InitializeTransformHierarchyRecursiveER18TransformHierarchyRii
u8a:__ZN26SinglePassStereoSupportExt23SetupStereoMatrixParamsE21MonoOrStereoscopicEye24BuiltinShaderMatrixParamRK10Matrix4x4f
c5a:__ZN9GfxDevice23CreateAsyncReadbackDataEv
Sud:__GLOBAL__sub_I_artifacts_WebGL_codegenerator_0_cpp_7008
rvd:__ZNK25UnityWebRequestJavaScript16GetUploadedBytesEv
bF:__Z46AudioListener_CUSTOM_GetNumExtensionPropertiesP12Il2CppObject
iTj:__ZN6il2cpp6icalls8mscorlib6SystemL16CheckMemberMatchI9FieldInfoNS_5utils10functional6FilterINSt3__212basic_stringIcNS8_11char_traitsIcEENS8_9allocatorIcEEEENS5_13VmStringUtils23CaseInsensitiveComparerEEEEEbPKT_PK11Il2CppClassSN_iRKT0_
Wxi:__Z84RuntimeInvoker_RuntimeObject_RayU26_t3515555043_Single_t1397266774_Int32_t2950945753PFvvEPK10MethodInfoPvPS4_
Hva:__ZN19ShaderPropertySheet38CopyTextureWithAuxiliaryPropertiesFromERKN9ShaderLab16FastPropertyNameERKS_
aph:_Array_InternalArray__IndexOf_TisMonoResource_t4103430009_m1351751258_gshared
ISg:_FieldAccessException__ctor_m3583219052
mfh:_Decimal_System_IConvertible_ToDouble_m3125524987
rdc:__Z57Register_UnityEngine_Transform_INTERNAL_set_localPositionv
cyb:__ZN13GfxDeviceGLES26SetRandomWriteTargetBufferEi15ComputeBufferID
Ink:_GC_split_block
mPi:_Array_Resize_TisUICharInfo_t75501106_m3903846016_gshared
NGb:__ZZ23InitPlayerLoopCallbacksvEN49EarlyUpdateResetFrameStatsAfterPresentRegistrator7ForwardEv
Nvk:_poll
A6h:_ReadOnlyCollection_1_System_Collections_IEnumerable_GetEnumerator_m1671097018_gshared
c_h:_UInt64_ToString_m1529093114_AdjustorThunk
oWd:_TypeLibImportClassAttribute__ctor_m2302178978
uuh:_Escape_t3294788190_marshal_pinvoke
_Wf:_InputField_OnUpdateSelected_m1118869681
sak:__ZN6il2cpp2vmL36AddNestedTypesToNametoClassHashTableEP40Il2CppNameToTypeDefinitionIndexHashTablePKcRKNSt3__212basic_stringIcNS5_11char_traitsIcEENS5_9allocatorIcEEEEP11Il2CppClass
_Ba:__ZN4crnd12crn_unpacker11unpack_dxt1EPPhjjj
g$j:__ZN15dense_hashtableINSt3__24pairIK10KeyWrapperIPK10Il2CppTypeEjEES6_N6il2cpp8metadata14Il2CppTypeHashEN14dense_hash_mapIS6_jSB_NS6_14EqualsComparerINSA_26Il2CppTypeEqualityComparerEEENS0_9allocatorIS8_EEE9SelectKeyESF_SH_E14squash_deletedEv
iw:__ZL55__ManagedRegistrationHelperFunction_CoordinateFramePairPv
k5b:__ZNK11ICallString6ToUTF8Ev
CIj:__ZN15dense_hashtableINSt3__24pairIK10KeyWrapperIPK22Il2CppGenericParameterEP11Il2CppClassEES6_N6il2cpp5utils11PointerHashIS4_EEN14dense_hash_mapIS6_S9_SE_NS6_14EqualsComparerINS0_8equal_toIS5_EEEENS0_9allocatorISA_EEE9SelectKeyESJ_SL_E15insert_noresizeERKSA_
Vkf:_Transform_1_Invoke_m2468053724_gshared
YH:__ZL60__ManagedRegistrationHelperFunction_ClothSkinningCoefficientPv
xLb:__ZNSt3__211__sift_downIR17ROSorterDepthPassP15RODataDepthPassEEvT0_S5_T_NS_15iterator_traitsIS5_E15difference_typeES5_
Uwa:__ZN18UnityPropertySheet11UnityTexEnvC2Ev
IHg:_ArgumentException__ctor_m3200406061
MW:__ZN12FileAccessor4ReadEyyPvPy
n$i:_List_1_set_Capacity_m2777925136_gshared
hVb:__ZN13RenderTexture9SetHeightEi
qV:__ZN17PersistentManager25PreallocateObjectThreadedEiNS_9LockFlagsE
$mg:_CipherSuiteCollection_get_IsFixedSize_m3127823890
adf:_InternalEnumerator_1_System_Collections_IEnumerator_get_Current_m3537550566_gshared
O0f:_Scrollbar_UpdateVisuals_m2492252165
Uej:_PKCS12_get_Keys_m2165478388
T6j:__ZN6il2cpp6icalls8mscorlib6System2IO6MonoIO17GetFileAttributesEP12Il2CppStringPi
gTf:_HMACMD5__ctor_m3008609295
Vdh:_DateTime_ToString_m2992030064_AdjustorThunk
Lbd:_tt_cmap8_char_index
S6b:__Z14tessMeshDeleteP8TESSmeshP12TESShalfEdge
GS:__Z24scripting_class_get_name17ScriptingClassPtr
lag:_Oid__ctor_m911618594
muj:_VerticalLayoutGroup_CalculateLayoutInputHorizontal_m1404590745
UY:__ZN13RuntimeStaticI15GUIEventManagerLb0EE13StaticDestroyEPv
wSe:_ShortComparer_Compare_m1881262465
Gbb:__Z29Transfer_Blittable_ArrayFieldI14SafeBinaryReadjEvRT_R9ArrayInfoRK23StaticTransferFieldInfo
ie:_emscripten_set_keydown_callback
bDg:_EncoderReplacementFallback__ctor_m1483565116
Ofg:_Interpreter_IsWordChar_m2858055765
JRg:_Hashtable_CopyTo_m2905447224
Waa:__ZN9Scripting11UnityEngine29CustomRenderTextureUpdateZone12CleanupProxyEv
UW:__ZN12FileAccessorC2Ev
cFa:__ZNK8Renderer29FlattenPerMaterialCustomPropsER22PerThreadPageAllocatorR10RenderNode
cii:_EventFunction_1_Invoke_m2429482587_gshared
fRj:_CertificateHandler_Dispose_m2100863831
qZc:__ZN23ColliderTilingExtensionC2Ev
xUj:__ZN6il2cpp2vm7Runtime12GetConfigDirEv
_Nc:__ZNSt3__27__sort3IR22InverseDepthComparitorP8DepthHitEEjT0_S5_S5_T_
aLh:_Enumerator_MoveNext_m1177880931_AdjustorThunk
vQc:__ZN14qsort_internal18QSortSingleJobDataIPN25b2SynchronizeFixturesTask14b2DeferredMoveEiPFbRKS2_S5_EE7SortJobEPS8_
SFf:_SendMouseEvents_SetMouseMoved_m2822596724
lCj:_TextGenerator_Populate_m194003733
zZe:_DerivedType_get_FullName_m1025358827
mRf:_CryptoConfig_MapNameToOID_m2044758263
S6:__ZL50__ManagedRegistrationHelperFunction_SetupCoroutinePv
Lr:__ZN13ConstraintJob23ConstraintComponentDataC2ERKS0_
lLe:__ZL70InputField_t3762917431_CustomAttributesCacheGenerator_m_OnValueChangedP21CustomAttributesCache
Wqb:__Z39WriteQueueForTransferSignatureIntoCacheRK31TransferFunctionScriptingTraitsRK24TransferRequestSignature17ScriptingClassPtrR23CachedSerializationDataRb
$Ta:__ZN13RenderManager18UpdateAllRenderersEv
IDg:_Encoding_get_UTF8UnmarkedUnsafe_m320312322
KTh:_Thread_Thread_free_internal_m333849022
lAc:__Z35Transfer_Blittable_FixedBufferFieldI9JSONWritexEvRK29SerializationCommandArgumentsR31RuntimeSerializationCommandInfo
dhj:_CostDelegate_BeginInvoke_m2828452701
Cpd:__ZN22BaseUnityConnectClient30OnEnteringStatePausedOrStoppedEv
sVc:__ZN10ClipperLib7Clipper18SwapPositionsInAELEPNS_5TEdgeES2_
r9i:_Collection_1_ConvertItem_m1556170494_gshared
Spc:__Z25scripting_raise_exception21ScriptingExceptionPtr
c8g:_DateTime_ToUniversalTime_m1945318289
iOg:_ArrayList_ToArray_m3827492363
G4f:_Slider_get_stepSize_m1423227661
ZZh:_UInt64_Parse_m819899889
Fug:_SymmetricAlgorithm_set_IV_m3196220308
u$e:_GenericTypeParameterBuilder_GetHashCode_m852224381
Abh:_Convert_ToUInt32_m1453583008
OTg:_CompareInfo_Compare_m894311506
zha:__Z24MergeTransformComponentsR9TransformS0_b
WMj:__ZNK15dense_hashtableI10KeyWrapperIPK19Il2CppGenericMethodES4_N6il2cpp8metadata23Il2CppGenericMethodHashEN14dense_hash_setIS4_S7_NS4_14EqualsComparerINS6_26Il2CppGenericMethodCompareEEENSt3__29allocatorIS4_EEE8IdentityESB_SE_E10test_emptyEj
Yyd:_EventSystem_UpdateModules_m3643806022
rEj:_AnimationOffsetPlayable__cctor_m1029460816
HHc:__ZN15AnchoredJoint2D16CheckConsistencyEv
Goa:__Z37GetBarycentricCoordinatesForOuterCellPPK8Vector3fRK13dynamic_arrayIS_Lj0EERS0_RK11TetrahedronR8Vector4f
Uj:_emscripten_glVertexAttribPointer
Jtb:__ZN14PreloadManager26UpdatePreloadingSingleStepENS_21UpdatePreloadingFlagsEi
u3f:_ScrollRect_SetLayoutHorizontal_m3078869633
u6g:_Console_OpenStandardInput_m3262421490
jth:_SimpleCollator__ctor_m1587210019
Y8b:__Z57Register_UnityEngine_RectTransform_INTERNAL_set_anchorMinv
rbh:_Convert_ToUInt16_m1480956416
g4:__ZN6prcoreL25inner_stretch_i8_bilinearEPKNS_9InnerInfoE
HVa:__ZL30RegisterFilteredObjectCallbackPP12Il2CppObjectiPv
q9h:_ReadOnlyCollection_1_System_Collections_Generic_IListU3CTU3E_RemoveAt_m3317217538_gshared
$Ae:__ZL54AudioSource_t3935305588_CustomAttributesCacheGeneratorP21CustomAttributesCache
eLc:__ZN16PhysicsManager2D19ApplyParticleForcesER13dynamic_arrayI21BatchedColliderResultLj0EE
nJ:__ZN11UnityEngine15CloudWebService16SessionContainer24GetSessionHeaderJsonDataERKN4core12basic_stringIcNS2_20StringStorageDefaultIcEEEERNS2_13StringBuilderE
cZe:_DerivedType_GetEvent_m4157575360
kY:__ZN13RuntimeStaticI21AssetReferenceStorageLb0EE13StaticDestroyEPv
Gae:__ZL56_MethodBuilder_t600455149_CustomAttributesCacheGeneratorP21CustomAttributesCache
i2h:_Collection_1_ConvertItem_m618594517_gshared
DDi:__Z72RuntimeInvoker_Bounds_t2266837910_RuntimeObject_Matrix4x4U26_t3606180965PFvvEPK10MethodInfoPvPS4_
Fgk:__ZN6il2cpp6icalls8mscorlib6System9AppDomain22InternalGetProcessGuidEP12Il2CppString
Q5c:_cf2_builder_moveTo
Et:__ZN9Scripting11UnityEngine10Animations16ConstraintSource9InitProxyEv
jrc:__Z34Quaternion_CUSTOM_Inverse_InjectedRK11QuaternionfRS_
dgb:__Z18Transfer_BlittableI24GenerateTypeTreeTransferLb1EjEvRK29SerializationCommandArgumentsR31RuntimeSerializationCommandInfo
AIj:__ZN6il2cpp2os12FastAutoLockD2Ev
wfc:__ZNK28RectTransformPropertyBinding9BindValueER6ObjectRKN11UnityEngine9Animation14GenericBindingERNS3_10BoundCurveE
tra:__ZN11ColorRGBA328TransferI14SafeBinaryReadEEvRT_
X7c:_cff_vstore_done
wxi:__Z68RuntimeInvoker_Void_t1185182177_UInt16_t2177724958_SByte_t1669577662PFvvEPK10MethodInfoPvPS4_
ySa:__ZN15ResourceManager10Dependency8TransferI24GenerateTypeTreeTransferEEvRT_
FTf:_MACTripleDES_HashFinal_m3613553534
tZh:_UInt64_System_IConvertible_ToChar_m2074245892
XRh:_UTF8Encoding_InternalGetBytes_m1965760031
Nf:_emscripten_glClearDepth
shc:__ZNK8GUILayer22GetTypeVirtualInternalEv
GDa:__ZN14SafeBinaryRead21TransferSTLStyleArrayINSt3__26vectorIN15QualitySettings14QualitySettingENS1_9allocatorIS4_EEEEEEvRT_17TransferMetaFlags
Kif:_KeyCollection__ctor_m2388548663_gshared
GQa:__ZNSt3__26vectorINS_4pairIPKN5Unity4TypeE7Hash128EENS_9allocatorIS7_EEE8__appendEj
lEc:__ZN8JSONRead21TransferSTLStyleArrayI13dynamic_arrayIaLj0EEEEvRT_17TransferMetaFlags
_7c:_cff_font_load
jhk:__GLOBAL__sub_I_LibraryLoader_cpp
Ipc:__Z13IsPathCreatedRKN4core12basic_stringIcNS_20StringStorageDefaultIcEEEE
jtf:_Debug_LogWarningFormat_m2535776735
oza:__ZL22stbir__encode_scanlineP11stbir__infoiPvPfiii
AVd:_ExternalException__ctor_m2877839282
O0c:__ZN20QuadTreeNodeRenderer13StaticDestroyEPv
jK:__ZN11UnityEngine15CloudWebService20WebRequestRestClient5AbortEv
ckj:_Regex_Matches_m2080913806
rgc:__ZN9Transform12CleanupClassEv
mKe:__ZL57FontData_t746620069_CustomAttributesCacheGenerator_m_FontP21CustomAttributesCache
xxf:_Mathf_Sin_m3411839043
j5c:_UNITY_FT_Set_Pixel_Sizes
WVe:_OperatingSystem_Clone_m1122165140
sTi:_GameObject_AddComponent_TisRuntimeObject_m3469369570_gshared
x3j:__ZN6il2cpp2vmL24thread_cleanup_on_cancelEPv
vXi:_List_1_RemoveAll_m3165362277_gshared
tWh:_Type_type_is_subtype_of_m1406623598
W6:__ZL54__ManagedRegistrationHelperFunction_SpriteAtlasManagerPv
wSh:_Thread_get_CurrentThread_m4142136012
Una:__Z30ProcessDynamicBatchGeometryJobP25DynamicVBOGeometryJobDataj
_Lb:__ZNSt3__27__sort4IRNS_6__lessI11CulledLightS2_EEPS2_EEjT0_S6_S6_S6_T_
p0j:__ZN6il2cpp2vm14TypeNameParser26ParseArrayModifierOptionalEv
_T:__Z26scripting_object_get_class18ScriptingObjectPtr
W5j:__ZN6il2cpp6icalls8mscorlib6System10Reflection8Assembly13get_code_baseEP24Il2CppReflectionAssemblyb
zRa:__ZNSt3__26vectorIN4core12basic_stringIcNS1_20StringStorageDefaultIcEEEE13stl_allocatorIS5_L18MemLabelIdentifier13ELi16EEE7reserveEj
uSf:_DSASignatureDeformatter__ctor_m2889130126
qic:__ZNK28MonoBehaviourPropertyBinding15GenerateBindingERKN4core12basic_stringIcNS0_20StringStorageDefaultIcEEEEbRN11UnityEngine9Animation14GenericBindingE
LEf:_RectTransform_INTERNAL_set_pivot_m1160676233
m0i:_List_1_set_Item_m35836043_gshared
tdg:_X509ChainElementCollection__ctor_m3424079155
uTf:_HMACSHA512__cctor_m4155933671
lhj:_LinkStack_Push_m3081279930
whf:_Enumerator_MoveNext_m1107569389_gshared
$hk:__ZN6il2cpp6icalls8mscorlib6System11Environment15internalGetHomeEv
Yxf:_Matrix4x4_GetHashCode_m4034747639_AdjustorThunk
DUd:_ResourceCacheItem_t51292791_marshal_pinvoke_cleanup
Mca:__ZNK5Unity9Component7GetNameEv
eWb:__Z23FindMonoScriptFromClass17ScriptingClassPtr
hZf:_U3CDelayedSetDirtyU3Ec__Iterator0_Reset_m160466733
F_i:_List_1_System_Collections_IList_Remove_m1070694895_gshared
yoj:_LayoutCache__ctor_m3885940174
nJc:__ZNK11b2RopeJoint16GetReactionForceEf
sZh:_UInt64_System_IConvertible_ToByte_m1501504925_AdjustorThunk
ZBj:_TextGenerator_Invalidate_m1072346986
Lpg:_TlsClientHello_ProcessAsTls1_m2549285167
FLi:__Z74RuntimeInvoker_Boolean_t97287965_UIVertex_t4057497605_UIVertex_t4057497605PFvvEPK10MethodInfoPvPS4_
h7h:_ReadOnlyCollection_1_System_Collections_IList_Clear_m3591436538_gshared
SCg:_EncoderExceptionFallback_Equals_m2760188920
OTb:__ZNK15LODGroupManager17CalculateLODMasksERK13LODParametersfPhPf
UA:__ZN4FMOD6System7releaseEv
cLg:_Boolean_CompareTo_m3665076258
Nzg:_String_Split_m3580120853
zyh:_PrivateKeyInfo__ctor_m2811023496
pW:__Z18PathToAbsolutePathRKN4core12basic_stringIcNS_20StringStorageDefaultIcEEEE
LNd:_PropertyBuilder_GetCustomAttributes_m2917594003
upj:_GUILayoutUtility_LayoutFromEditorWindow_m2914699782
haa:__ZN9Scripting11UnityEngine12Experimental10PlayerLoop13PreLateUpdate9InitProxyEv
Knd:__ZN21UnityAnalyticsManager15ThreadedCleanupEv
gXc:__ZThn160_N17PolygonCollider2D5ResetEv
Uya:__ZL13BlitImageImplR14ImageReferenceiiRKS_NS_10ColorSpaceENS_8BlitModeEb
EFj:_Joint2D_get_connectedBody_m3200001184
aHa:__Z14resize_trimmedINSt3__26vectorI13dynamic_arrayI8Vector2fLj0EENS0_9allocatorIS4_EEEEEvRT_j
eOi:_Array_InternalArray__set_Item_TisColor32_t2600501292_m1891325855_gshared
vTi:_GameObject_GetComponentInChildren_TisRuntimeObject_m1310240902_gshared
lue:__ZL69PersistentCall_t3407714124_CustomAttributesCacheGenerator_m_ArgumentsP21CustomAttributesCache
_za:__ZN29SerializeTraitsForStringTypesIN4core12basic_stringIcNS0_20StringStorageDefaultIcEEEEE8TransferI24GenerateTypeTreeTransferEEvRS4_RT_
Wra:__ZN16ReflectionProbes28GetMinBakedCubemapResolutionEv
Hjk:__GLOBAL__sub_I_String_cpp
zIj:__ZN15dense_hashtableINSt3__24pairIK10KeyWrapperIPK22Il2CppGenericParameterEP11Il2CppClassEES6_N6il2cpp5utils11PointerHashIS4_EEN14dense_hash_mapIS6_S9_SE_NS6_14EqualsComparerINS0_8equal_toIS5_EEEENS0_9allocatorISA_EEE9SelectKeyESJ_SL_E6insertERKSA_
hXf:_InputField_GenerateCaret_m1459647218
Mej:_X509CertificateEnumerator__ctor_m85694331
hzb:__ZN14DataBufferGLES16RecreateWithDataEjPKv
ida:__Z29GetGlobalAllowNameConversionsv
ash:_Array_InternalArray__Insert_TisTableRange_t3332867892_m558285859_gshared
WWb:__ZN8Material8SetColorEN9ShaderLab16FastPropertyNameERK10ColorRGBAf
IMh:_Enumerator_System_Collections_IEnumerator_Reset_m3754523291_gshared
jsd:__ZN11UnityEngine7Connect20RemoteConfigSettings19ConfigUpdatedStaticEPS1_bbi
jdg:_X509CertificateEnumerator__ctor_m943731472
oug:_SHA512Managed_processLength_m2162821715
JCf:_RangeInt_get_end_m4128831787
Vtd:__Z25GetUnityConnectModuleSpecv
yZi:_List_1_set_Item_m2082115010_gshared
zDg:_Encoding_GetBytes_m3735967069
bTc:__ZN23ColliderTilingExtension5ResetEv
yCb:__ZN14GfxContextGLES43AddRenderSurfaceToDeferredFBOInvalidateListEPK17RenderSurfaceGLES
w6j:__ZN6il2cpp6icalls8mscorlib6System9Threading6Thread15Thread_internalEP12Il2CppThreadP14Il2CppDelegate
ifa:__ZN11NamedObject23VirtualRedirectTransferER14SafeBinaryRead
A5f:_Text_get_resizeTextMinSize_m1002355407
Z4c:__ZNSt3__26vectorIN20TextRenderingPrivate8FontImpl13CharacterInfoE13stl_allocatorIS3_L18MemLabelIdentifier1ELi16EEE6insertENS_11__wrap_iterIPKS3_EERS9_
HSa:__ZN23PreloadManagerOperation6IsDoneEv
IUj:__ZN6il2cpp2vm7Runtime15InvokeWithThrowEPK10MethodInfoPvPS5_
z1f:_Selectable_get_navigation_m3508916916
q_c:__ZN10Effector2D10EndContactEP9b2Contact
ijk:__ZN6il2cpp5utils11StringUtils11Utf16ToUtf8ERKNSt3__212basic_stringIDsNS2_11char_traitsIDsEENS2_9allocatorIDsEEEE
Fjg:_MD4Managed_Decode_m4273685594
NUa:__ZN21LightProbeProxyVolume18HasHardwareSupportEv
kPb:__ZN26LightProbeProxyVolumeCacheC2ER13BatchRendererR15RenderLoopStats
e$g:_IntPtr__ctor_m620280096
f4:__ZN6prcoreL31inner_stretch_argb8888_bilinearEPKNS_9InnerInfoE
ikb:__Z18Transfer_BlittableI18StreamedBinaryReadILb1EELb1E8BitFieldEvRK29SerializationCommandArgumentsR31RuntimeSerializationCommandInfo
pcd:_UNITY_FT_Outline_Decompose
e_g:_Int64_System_IConvertible_ToChar_m1509243576_AdjustorThunk
EDb:__ZNK12GraphicsCaps24GetFallbackSampledFormatE14GraphicsFormat
Ydj:_GeneralNames_get_IPAddresses_m4242915644
$8g:_Decimal_op_Implicit_m3873897383
_nk:_GC_init_size_map
nka:__Z20scripting_object_new17ScriptingClassPtr
gca:__ZN9Scripting5Unity11Collections39NativeMatchesParallelForLengthAttribute12CleanupProxyEv
Myh:_KeyGeneratedEventHandler_Invoke_m2527485594
Itc:__Z58Register_UnityEngine_Object_Internal_CloneSingleWithParentv
Yeh:_Decimal__ctor_m1925875020_AdjustorThunk
Maa:__ZN9Scripting11UnityEngine6Events14UnityEventBase12CleanupProxyEv
P:Math_exp
hta:__Z19GetMaxBytesPerPixel13TextureFormat
Ko:FUNCTION_TABLE_iiifi
Mek:__ZN6il2cpp2os5posix13PosixAutoLockD2Ev
Aqj:_SymmetricTransform_OFB_m3690147804
C5c:_cff_get_advances
qqb:__ZN13MonoBehaviour9SetScriptERK4PPtrI10MonoScriptE18ScriptingObjectPtr
kGj:_RaycastHit2D_get_collider_m1549426026
h_a:__ZNK10FileSystem16LastErrorMessageEv
nNi:_Array_InternalArray__Insert_TisVector3_t3722313464_m3862657277_gshared
wHa:__ZN15SerializeTraitsI13dynamic_arrayI12SpriteVertexLj0EEE19ResizeSTLStyleArrayERS2_i
Xwg:_SecurityException__ctor_m1631242336
AKj:__ZN15dense_hashtableINSt3__24pairIK10KeyWrapperIPK11Il2CppClassEPKcEES6_N6il2cpp5utils11PointerHashIS3_EEN14dense_hash_mapIS6_S9_SE_NS6_14EqualsComparerINS0_8equal_toIS5_EEEENS0_9allocatorISA_EEE9SelectKeyESJ_SL_E14squash_deletedEv
Zzd:_EventSystem_Update_m1662072334
Cwd:__ZN22UnityWebRequestManager10InitializeEv
vSa:__ZNSt3__26__treeINS_12__value_typeIN4core12basic_stringIcNS2_20StringStorageDefaultIcEEEE4PPtrI6ObjectEEENS_19__map_value_compareIS6_SA_NS_4lessIS6_EELb1EEE13stl_allocatorISA_L18MemLabelIdentifier52ELi16EEE15__emplace_multiIJRNS_4pairIS6_S9_EEEEENS_15__tree_iteratorISA_PNS_11__tree_nodeISA_PvEEiEEDpOT_
u4c:_raccess_guess_darwin_newvfs
keb:__ZL26Transfer_SimpleNativeClassI17RemapPPtrTransfer8GradientLb1EEvRK29SerializationCommandArgumentsR31RuntimeSerializationCommandInfo
Bzd:_RaycasterManager_RemoveRaycasters_m3057093063
I5b:__ZN12CachedWriter9InitWriteER15CacheWriterBase
cnc:__Z21UnsignedInt64ToStringy
Z$f:_GetRaycastNonAllocCallback_BeginInvoke_m3984885848
nij:_PatternCompiler_BeginLink_m1295557963
ENe:__ZL70CanvasScaler_t2767979955_CustomAttributesCacheGenerator_m_PhysicalUnitP21CustomAttributesCache
jXg:_GuidParser_ThrowFormatException_m3223388534
Blj:_Group_GetAnchorInfo_m3730312864
AKe:__ZL50Graphic_t1660335611_CustomAttributesCacheGeneratorP21CustomAttributesCache
ljf:_KeyCollection_System_Collections_Generic_ICollectionU3CTKeyU3E_Add_m454648927_gshared
MVh:_TimeSpan_op_LessThanOrEqual_m300470010
cAe:__ZL139AnimatorOverrideController_t3582062219_CustomAttributesCacheGenerator_AnimatorOverrideController_OnInvalidateOverrideController_m3380737075P21CustomAttributesCache
Ddc:__Z66Register_UnityEngine_Transform_INTERNAL_CALL_InverseTransformPointv
G_:__ZZN15DirectorManager15InitializeClassEvEN41FixedUpdateDirectorFixedUpdateRegistrator7ForwardEv
$2g:_MemoryStream_get_Position_m3733941202
j_b:__ZL10KeyHandleriPK23EmscriptenKeyboardEventPv
SHk:_glLinkProgram__wrapper
BYa:__ZN18ScriptingArguments8AddInt64Ex
q3:__ZN6prcoreL12RemapGenericI17TexFormatARGB888815TexFormatBGR888EEvPKNS_9InnerInfoE
o8a:__ZN26SinglePassStereoSupportExt19SaveStereoConstantsEv
f0:__ZNSt3__26vectorIP10MemoryPool13stl_allocatorIS2_L18MemLabelIdentifier76ELi16EEE21__push_back_slow_pathIRKS2_EEvOT_
SWg:_TextInfo_get_ListSeparator_m1628160079
V3f:_Selectable_OnCanvasGroupChanged_m472903475
FSh:_EventWaitHandle_Reset_m3348053200
Ttd:__ZN28UnityConnectScriptingClasses23CallSessionStateChangedEixxbP21ScriptingExceptionPtr
d9j:__ZN6il2cpp6icalls8mscorlib6System13Globalization11CultureInfo35construct_internal_locale_from_nameEP17Il2CppCultureInfoP12Il2CppString
sgb:__ZL22Transfer_ManagedObjectI24GenerateTypeTreeTransferLb1EEvRK29SerializationCommandArgumentsR31RuntimeSerializationCommandInfo
xJb:__ZN15RenderNodeQueueC2E10MemLabelId
zUd:_ResourceEnumerator_FillCache_m1661715061
Pee:__ZL72SecuritySafeCriticalAttribute_t3505979402_CustomAttributesCacheGeneratorP21CustomAttributesCache
dk:_emscripten_set_main_loop_timing
Nqf:_Bounds_get_min_m3755135869
kbh:_Convert_ToUInt16_m3523269149
xAb:__ZN14DataBufferGLES12RecordRenderEv
YAd:_ExecuteEvents_get_endDragHandler_m2879610446
AWb:__ZN14ImageReference10FlipImageYEv
Uia:__ZN21ScalableBufferManager20GetHeightScaleFactorEv
Qx:__ZN4FMOD3DSP9setBypassEb
a_b:__Z19NormalizeWheelInputf
ZKd:_Graphic_DoMeshGeneration_m3548487693
kv:__ZN11KeyframeTplIfE8TransferI14SafeBinaryReadEEvRT_
Ajj:_Repetition__ctor_m1672362629
zFc:__Z29Transfer_Blittable_ArrayFieldI8JSONReadhEvRT_R9ArrayInfoRK23StaticTransferFieldInfo
$xg:_SecurityFrame_ToString_m339310712_AdjustorThunk
yOd:_TypeBuilder_create_runtime_class_m2581270900
a5b:__ZN11MonoManager25GetImageFromAssemblyIndexEi
L4e:_InternalEnumerator_1_get_Current_m3008260692_gshared
wsk:__ZN6il2cpp2os20ThreadLocalValueImpl8SetValueEPv
Wka:__ZN22RenderingCommandBuffer20CleanupCommandBufferEv
b9g:_Decimal_op_Implicit_m2299919277
nAc:__Z18Transfer_BlittableI9JSONWriteLb1EtEvRK29SerializationCommandArgumentsR31RuntimeSerializationCommandInfo
tQe:_UnexceptionalStreamReader_ReadToEnd_m920589220
Sch:_DateTime_System_IConvertible_ToType_m1242864300
kAg:_String_IndexOf_m1298810678
yk:___syscall85
ald:__ZN2UI14CanvasRenderer18UpdateTRSHierarchyEb
CJb:__ZNSt3__26__sortIRPFbP10GUIElementS2_EPS2_EEvT0_S7_T_
ehc:__ZN16GraphicsSettings12CleanupClassEv
SYe:_ConstructorBuilder_GetILGenerator_m1750792206
yBg:_EncoderFallback_get_ReplacementFallback_m818398284
fhk:__ZN6il2cpp2os6Thread19DetachCurrentThreadEv
sAd:_EventTrigger_OnBeginDrag_m4203438710
VIj:__ZN6il2cpp2vmL21SetupInterfacesLockedEP11Il2CppClassRKNS_2os12FastAutoLockE
U8a:__ZN11MonoManager23VirtualRedirectTransferER24GenerateTypeTreeTransfer
Jsf:_CullingGroup_Dispose_m782801025
Iba:__ZN9Scripting11UnityEngine9Component12CleanupProxyEv
jJ:__ZN11UnityEngine15CloudWebService14DataDispatcher15SetupWebRequestEv
crd:__ZN11UnityEngine15PlatformWrapper13GetShaderCapsEv
LRb:__ZNSt3__211__sift_downIR26RenderDeferredObjectSorterP16RenderObjectDataEEvT0_S5_T_NS_15iterator_traitsIS5_E15difference_typeES5_
c$e:_GenericTypeParameterBuilder_IsDefined_m98179866
Jxh:_KeyPairPersistence_get_MachinePath_m3812267291
j6g:_Stack_Peek_m2216191248
Fch:_DateTime_System_IConvertible_ToDecimal_m1044850612_AdjustorThunk
Khc:__ZN21FixedBehaviourManager6UpdateEv
Ycc:__ZN9Transform9SetParentEPS_NS_15SetParentOptionE
xTc:__ZN13SliderJoint2D5ResetEv
dna:__ZN19ShaderPropertySheet8SetFloatEN9ShaderLab16FastPropertyNameEfNS_8SetFlagsE
jTa:__ZN19RuntimeSceneManager24BeginIntegrateMainThreadEP10UnityScene
Thk:__ZNSt3__2plIcNS_11char_traitsIcEENS_9allocatorIcEEEENS_12basic_stringIT_T0_T1_EERKS9_S6_
rPe:_StringReader_CheckObjectDisposedException_m3796163530
IYh:_UInt32_System_IConvertible_ToInt16_m1659441601
q1b:__ZN9ShaderLab20SerializedSubProgramaSERKS0_
uyk:_roundf
PLg:_Byte_System_IConvertible_ToSingle_m324484566_AdjustorThunk
$6g:_Decimal_op_Explicit_m2848387298
oJh:_KeyValuePair_2_ToString_m1238786018_gshared
WIj:__ZN6il2cpp2vmL24SetupTypeHierarchyLockedEP11Il2CppClassRKNS_2os12FastAutoLockE
k_b:__ZL11TextHandleriPK23EmscriptenKeyboardEventPv
l4c:_destroy_face
dEk:_glBlendEquationSeparate__wrapper
xpk:__ZN6il2cpp6icalls8mscorlib6System8Security12Cryptography24RNGCryptoServiceProvider13RngInitializeEP11Il2CppArray
ome:__ZL68UsedByNativeCodeAttribute_t1703770351_CustomAttributesCacheGeneratorP21CustomAttributesCache
Uch:_DateTimeUtils_ToString_m1782212840
DVe:_NumberFormatter_NumberToString_m3906556024
jlb:__Z19TransferField_ArrayI18StreamedBinaryReadILb1EE27Converter_SimpleNativeClassI17AnimationCurveTplIfEEEvRK23StaticTransferFieldInfoR31RuntimeSerializationCommandInfoRT0_
RZc:__ZN7b2World18SetContactListenerEP17b2ContactListener
PAb:__ZN18GfxFramebufferGLES22MakeCurrentFramebufferENS_7BuiltinE
Sqa:__ZN12CachedReader4ReadEPvj
FDd:_StandaloneInputModule_ProcessMouseEvent_m2923582521
vEe:__ZL49Canvas_t3310196443_CustomAttributesCacheGeneratorP21CustomAttributesCache
iSd:_MonoMethod_ShouldPrintFullName_m1607666412
gOb:__Z24CalculateLightShadowFadeRK6CamerafffR8Vector4f
QS:__ZN19RuntimeSceneManagerD2Ev
hTg:_CCGregorianCalendar_GetMonth_m1547203696
zK:__ZN11UnityEngine15CloudWebService25WebRequestDownloadHandler17OnCompleteContentEv
Bza:__ZN6prcore17GetIntegerBlitterE13TextureFormatS0_N14ImageReference8BlitModeE
znk:_GC_print_block_descr
M6:__ZL51__ManagedRegistrationHelperFunction_ResourceRequestPv
Hph:_Array_LastIndexOf_TisRuntimeObject_m1677937501_gshared
nF:__ZN11AudioSource18IsPlayingScriptingEv
Bxh:_KeyBuilder_IV_m2230195376
OJc:__ZNK12b2WheelJoint10GetAnchorAEv
UCk:_glShaderSource__wrapper
X$a:__ZN25MultiBlocksMemoryFileData17AdjustBlocksCountEj
g6j:__ZNSt3__214__split_bufferIN6il2cpp2vm22EmbeddedResourceRecordERNS_9allocatorIS3_EEED2Ev
s2c:__ZN13TextRendering4Font8TransferI24GenerateTypeTreeTransferEEvRT_
z9b:__Z27CullingGroup_CUSTOM_DisposeP12Il2CppObject
Gm:_glStencilMask
Fhk:__ZN6il2cpp2os10ThreadImpl16GetCurrentThreadEv
c_b:__ZN15GUIEventManager10QueueEventERK10InputEvent
OQj:_AnalyticsEvent_OnValidationFailed_m2609604624
ABe:__ZL62EventType_t3528516131_CustomAttributesCacheGenerator_mouseMoveP21CustomAttributesCache
iVd:_DecimalConstantAttribute__ctor_m3583301917
$mk:_GC_push_conditional_with_exclusions
x$d:_MethodCallDictionary__ctor_m2167303393
$gi:__ZN30GenericInterfaceActionInvoker4IP12Il2CppObjectS1_S1_S1_E6InvokeEPK10MethodInfoS1_S1_S1_S1_S1_
ULa:__Z31DrawSpriteDeformedFromNodeQueueRK15RenderNodeQueuej16VertexInputMasksi
Fmk:_GC_make_disappearing_links_disappear
yvk:_strrchr
usf:_Component_GetComponentInParent_m779177818
fEd:_UIBehaviour_IsDestroyed_m3033055982
gwi:__Z109RuntimeInvoker_Void_t1185182177_RuntimeObject_RuntimeObject_SByte_t1669577662_Int32_t2950945753_RuntimeObjectPFvvEPK10MethodInfoPvPS4_
IVf:_InputField_get_readOnly_m3111985574
hsa:__ZN14RenderSettings27UpdateIndirectSpecularColorEv
Hse:__ZL59RectOffset_t1369453676_CustomAttributesCacheGenerator_m_PtrP21CustomAttributesCache
PPa:__ZN14PlayerSettings8TransferI18StreamedBinaryReadILb0EEEEvRT_
ATj:__ZN6il2cpp6icalls8mscorlib6System8MonoType16GetMethodsByNameEP20Il2CppReflectionTypeP12Il2CppStringibS5_
uaj:_RijndaelTransform__cctor_m2439033240
Vub:__ZNSt3__27__sort3IRNS_4lessIN22BuiltinResourceManager8ResourceEEEPS3_EEjT0_S7_S7_T_
fZc:__ZN15AnchoredJoint2DC2E10MemLabelId18ObjectCreationMode
Xed:_ps_hints_t2mask
flh:_Array_InternalArray__ICollection_Remove_TisMonoResource_t4103430009_m238733686_gshared
Q4f:_Slider_Set_m1476104429
LMd:_Image_set_fillClockwise_m2210525152
HNa:__ZN10BlendShape8TransferI19StreamedBinaryWriteILb0EEEEvRT_
u7a:__ZNSt3__26vectorIN20GpuProgramParameters14ConstantBufferENS_9allocatorIS2_EEE21__push_back_slow_pathIRKS2_EEvOT_
iAf:_PlayerConnection_DisconnectedCallback_m1697017309
EOa:__Z19GetTimeSinceStartupv
jNd:_Image_AddQuad_m2161647989
wMh:_Enumerator_System_Collections_IEnumerator_Reset_m2953002685_gshared
wTi:_Object_FindObjectOfType_TisRuntimeObject_m2612646359_gshared
red:_TT_Load_Composite_Glyph
Hs:__ZL51__ManagedRegistrationHelperFunction_ScaleConstraintPv
Rva:__ZN9ShaderLab11shaderprops9GetTexEnvEPK19ShaderPropertySheetS3_NS_16FastPropertyNameE16TextureDimensionb
qpj:_GUILayoutGroup_CalcHeight_m1669391299
sMb:__ZN29RenderNodeQueuePrepareContextC2Ev
B2j:_il2cpp_gc_disable
z2b:__ZN9ShaderLab20SerializedSubProgram16TextureParameter8TransferI24GenerateTypeTreeTransferEEvRT_
mca:__ZN9Scripting5Unity11Collections8LowLevel6Unsafe29NativeSetThreadIndexAttribute12CleanupProxyEv
Xpk:__ZN6il2cpp2os11MutexHandle4WaitEb
B2a:__ZN9GfxDevice19SaveStereoConstantsEv
Wpk:__ZN6il2cpp2os11MutexHandle4WaitEj
K9b:__ZL34GetComponentsImplementationRecurseILb1ELi1ELi1EEbR10GameObjectbRK17CompareParametersRK39GetComponentsImplementation_ReturnValue
ooi:__Z114RuntimeInvoker_Boolean_t97287965_RuntimeObject_RuntimeObject_Int32_t2950945753_Int32_t2950945753_Int32_t2950945753PFvvEPK10MethodInfoPvPS4_
mYe:_AssemblyBuilder_GetTypes_m3415680380
E2:__ZN6prcoreL17RemapGenericFloatI15TexFormatRGHalf18TexFormatARGBFloatEEvPKNS_9InnerInfoE
Rsb:__Z18SimulateMouseInputi
oIb:__ZN13RenderManager23AddRemoveCamerasDelayedEv
Ond:__ZN11UnityEngine9Analytics15AnalyticsConfigC2Ev
Ryc:__ZN5Unity9rapidjson6WriterI16TempBufferWriterNS0_4UTF8IcEES4_13JSONAllocatorE11WriteUint64Ey
qKg:_BitConverter__cctor_m3841343255
I6g:_Decimal_Compare_m3062820418
Ggg:_IntervalCollection_GetMetaCollection_m4029522214
nAd:_EventTrigger_OnDeselect_m1919608102
sCj:_TextGenerator_get_characterCount_m864136654
OUh:_TimeSpan__ctor_m2047388489_AdjustorThunk
gVb:__ZN13RenderTexture8SetWidthEi
ted:_UNITY_FT_GlyphLoader_CheckSubGlyphs
a6i:_Collection_1_System_Collections_ICollection_CopyTo_m1516601228_gshared
ZY:__ZN23DefaultMeshVertexFormatC2E18VertexChannelsInfo
dYg:_Int16_System_IConvertible_ToDouble_m1661805412
EQ:__ZN9ShaderLab16FastPropertyName4InitEPKc
lva:__ZN6ObjectC2E10MemLabelId18ObjectCreationMode
A8e:_InternalEnumerator_1_get_Current_m3911557813_AdjustorThunk
Hqd:__ZN11UnityEngine15PlatformWrapper19GetPhysicalMemoryMBEv
uMg:_Char_System_IConvertible_ToByte_m2347554595_AdjustorThunk
Kta:__ZN13RenderTexture9SetMipMapEb
yHc:__ZN9Scripting11UnityEngine14ContactPoint2D9InitProxyEv
EBg:_String_CreateString_m860434552
f$:__Z18GetDirectorManagerv
Pcc:__Z38Transform_CUSTOM_INTERNAL_get_rotationP12Il2CppObjectP11Quaternionf
rye:__ZL99SceneManager_t2787271929_CustomAttributesCacheGenerator_SceneManager_LoadScene_m2298600132____mode1P21CustomAttributesCache
jzi:__Z73RuntimeInvoker_Single_t1397266774_Vector2_t2156229523_Vector2_t2156229523PFvvEPK10MethodInfoPvPS4_
CXj:__ZNK15dense_hashtableINSt3__24pairIK10KeyWrapperINS1_IPK10MethodInfoP11Il2CppClassEEEjEES9_17ReflectionMapHashIS8_EN14dense_hash_mapIS9_jSD_NS9_14EqualsComparerINS0_8equal_toIS8_EEEENS0_9allocatorISB_EEE9SelectKeyESI_SK_E5beginEv
izb:__ZN7ApiGLES19UploadBufferSubDataEjN2gl12BufferTargetEllPKv
oe:_glFramebufferTextureLayer
y1:__ZNSt3__216__rotate_forwardINS_11__wrap_iterIPN4core12basic_stringIcNS2_20StringStorageDefaultIcEEEEEEEET_S9_S9_S9_
RIf:_Vector2_GetHashCode_m3916089713
WFg:_SmallXmlParserException__ctor_m1976648878
zTe:_MulticastDelegate_Equals_m2502840627
Jug:_SymmetricAlgorithm_set_KeySize_m3805756466
TLg:_Byte_System_IConvertible_ToUInt32_m1049546902_AdjustorThunk
kxi:__Z53RuntimeInvoker_Double_t594665363_Interval_t1802865632PFvvEPK10MethodInfoPvPS4_
dvb:__Z21InitializeBatchedJobsv
aDj:_CanvasGroup_get_blocksRaycasts_m1805542303
rtg:_SHA1Internal_ProcessBlock_m1991889327
kbb:__Z19TransferField_ArrayI14SafeBinaryRead27Converter_SimpleNativeClassI8GUIStyleEEvRK23StaticTransferFieldInfoR31RuntimeSerializationCommandInfoRT0_
fpb:__ZN9TextAsset23VirtualRedirectTransferER19StreamedBinaryWriteILb0EE
DPi:_Array_Sort_TisRuntimeObject_TisRuntimeObject_m1685639929_gshared
Gpk:__ZN6il2cpp5utils10MemoryPoolC2Ev
Cra:__ZN14RenderSettings5ResetEv
w5b:__ZN6Sprite9BindAtlasERK4PPtrI11SpriteAtlasE
hzc:__ZN5Unity9rapidjson12GenericValueINS0_4UTF8IcEE13JSONAllocatorE10FindMemberIS4_EENS0_21GenericMemberIteratorILb0ES3_S4_EERKNS1_IS3_T_EE
w8e:_InternalEnumerator_1_System_Collections_IEnumerator_get_Current_m3892960115_AdjustorThunk
S4b:__ZN9ShaderLabL18AddPropertyToArrayERK19ShaderPropertySheetR13dynamic_arrayIiLj0EERKNS_8FloatValE
H7j:__ZNSt3__212basic_stringIDsNS_11char_traitsIDsEENS_9allocatorIDsEEE6appendEPKDsj
kOg:_ArrayList_Clone_m2682741233
aTf:_HMAC_HashCore_m3684104066
Wtd:__Z13RegisterClassI20UnityConnectSettingsEvPKc
Bbi:__ZN28GenericInterfaceFuncInvoker2Ii20UIVertex_t4057497605S0_E6InvokeEPK10MethodInfoP12Il2CppObjectS0_S0_
yyc:__ZN5Unity9rapidjson13GenericReaderINS0_4UTF8IcEES3_13JSONAllocatorE11ParseNumberILj1ENS0_25GenericInsituStringStreamIS3_EENS0_15GenericDocumentIS3_S4_S4_EEEEvRT0_RT1_
hLa:__ZN14SpriteRenderer14OnChangeSpriteEv
phk:__ZN6il2cpp2os10ThreadImplD2Ev
CKc:__ZN12b2MouseJoint23InitVelocityConstraintsERK12b2SolverData
wzc:__ZN8Gradient8TransferI9JSONWriteEEvRT_
cUa:__ZN21RendererUpdateManager18OncePerFrameUpdateER13RendererScene
qfa:__ZNK12TLSAllocatorI14StackAllocatorE22GetAllocatedMemorySizeEv
Cda:__ZN17RemapPPtrTransfer12PushMetaFlagE17TransferMetaFlags
OFh:_EqualityComparer_1_System_Collections_IEqualityComparer_GetHashCode_m2138064395_gshared
TYa:__ZN12HandlerChain4NameEv
qYg:_Int16_System_IConvertible_ToType_m3672347013_AdjustorThunk
$cb:__Z29Transfer_Blittable_ArrayFieldI14SafeBinaryReadN4math12int3_storageEEvRT_R9ArrayInfoRK23StaticTransferFieldInfo
xZg:_Int32_System_IConvertible_ToType_m3009233912_AdjustorThunk
XYg:_Int16_ToString_m2013897809
Mxg:_String_Substring_m2848979100
sld:__Z44Register_UnityEngine_CanvasRenderer_get_cullv
jqd:__ZN11UnityEngine7Connect17XRDeviceInfoEvent12XRDeviceInfoD2Ev
n9a:__Z44InitializeTransferFunctionScriptingTraitsForI17RemapPPtrTransferEvR31TransferFunctionScriptingTraits
egc:__ZNSt3__26vectorI16MessageForwarder13stl_allocatorIS1_L18MemLabelIdentifier7ELi8EEE6resizeEj
Qcg:_X509Chain_SelectBestFromCollection_m1068759221
Dqj:_SymmetricTransform_TransformBlock_m851059707
u2d:__ZL68IntPtr_t_CustomAttributesCacheGenerator_IntPtr_ToPointer_m4157623054P21CustomAttributesCache
Psb:__Z11StringToKeyRKN4core12basic_stringIcNS_20StringStorageDefaultIcEEEE
r2i:_Enumerator_System_Collections_IEnumerator_Reset_m2261065994_AdjustorThunk
G2f:_ScrollRect_get_verticalNormalizedPosition_m3693218937
iTa:__ZN18LoadSceneOperation21MustCompleteNextFrameEv
S4f:_Slider_UpdateDrag_m1102107039
tSd:_MonoMethodInfo_get_method_info_m88651774
WE:__ZNK12AudioManager16GetAudioListenerEv
hZg:_Int32_System_IConvertible_ToDateTime_m1824716955
RPf:_RuntimeTypeHandle__ctor_m3315980708_AdjustorThunk
HCj:_Canvas_set_overrideSorting_m4088794420
LUb:__ZNSt3__26vectorI11CameraStackNS_9allocatorIS1_EEE8__appendEj
pUh:_Scheduler_ShrinkIfNeeded_m820085397
lod:__ZN11UnityEngine9Analytics15UserCustomEvent12CustomParams6InsertEPKcRNS1_11CustomValueE
qLf:_ProxyAttribute_CreateProxy_m2826946776
vW:__Z13GetFileSystemv
TY:__ZN13RuntimeStaticI15GUIEventManagerLb0EE16StaticInitializeEPv
lzf:_MonoBehaviour_IsObjectMonoBehaviour_m2134950949
U6:__ZL45__ManagedRegistrationHelperFunction_Texture2DPv
a$h:_Version_CompareTo_m3146217210
qLc:__ZN24RigidbodyMovementState2D21ResetAngularMoveStateEv
lLa:__ZThn32_N14SpriteRenderer15AddAsRenderNodeER15RenderNodeQueueRK20DeprecatedSourceData
crh:_Array_InternalArray__ICollection_CopyTo_TisKeyValuePair_2_t71524366_m1056941380_gshared
gWh:_Type_get_IsClass_m589177581
$me:__ZL62NativeTypeAttribute_t2250406315_CustomAttributesCacheGeneratorP21CustomAttributesCache
A8a:__ZN19ShaderPropertySheet9SetMatrixEN9ShaderLab16FastPropertyNameERK10Matrix4x4fNS_8SetFlagsE
LBa:__Z29GetTextureSizeAllowedMultiple13TextureFormat
Hfh:_Decimal_Subtract_m835601464
Cgc:__Z46CleanupSpriteRendererAnimationBindingInterfacev
MUh:_TimeSpan__ctor_m3689759052_AdjustorThunk
M1j:_il2cpp_array_element_size
b1d:__ZL62ComVisibleAttribute_t1362837655_CustomAttributesCacheGeneratorP21CustomAttributesCache
kga:__ZNSt3__26__treeINS_12__value_typeIN4core12basic_stringIcNS2_20StringStorageDefaultIcEEEEjEENS_19__map_value_compareIS6_S7_NS_4lessIS6_EELb1EEE13stl_allocatorIS7_L18MemLabelIdentifier7ELi16EEE25__emplace_unique_key_argsIS6_JNS_4pairIS6_jEEEEENSH_INS_15__tree_iteratorIS7_PNS_11__tree_nodeIS7_PvEEiEEbEERKT_DpOT0_
HEf:_RectTransform_INTERNAL_set_sizeDelta_m188783163
_f:_glCheckFramebufferStatus
bpk:__ZN6il2cpp2os11EventHandle4WaitEv
BS:__Z43scripting_class_get_method_from_name_filter17ScriptingClassPtrPKciN24ScriptingMethodFiltering18MethodSearchFilterEPK16ScriptingTypePtr
Ild:__Z13RegisterClassIN2UI6CanvasEEvPKc
xLd:_GraphicRaycaster__ctor_m646559428
fQg:_BitArrayEnumerator_get_Current_m4220391712
LWe:__Z37il2cpp_codegen_get_executing_assemblyPK10MethodInfo
jFf:_Transform_get_parent_m835071599
W8f:_IPAddress_get_ScopeId_m4237202723
gaa:__ZN9Scripting11UnityEngine12Experimental10PlayerLoop9PreUpdate12CleanupProxyEv
Ejj:_ExpressionCollection_get_Item_m3510736379
sKe:__ZL62FontData_t746620069_CustomAttributesCacheGenerator_m_AlignmentP21CustomAttributesCache
eDd:_StandaloneInputModule_get_inputActionsPerSecond_m3946624274
aSh:_UTF8Encoding_InternalGetCharCount_m82458470
dJf:_Vector2__cctor_m2108982652
jAf:_U3CBlockUntilRecvMsgU3Ec__AnonStorey2_U3CU3Em__0_m2225790220
Z7:__ZN9Scripting11UnityEngine9Rendering20SphericalHarmonicsL29InitProxyEv
v9j:__ZN14dense_hash_mapI10KeyWrapperIP14Il2CppIUnknownEjN6il2cpp5utils11PointerHashIS1_EENS3_14EqualsComparerINSt3__28equal_toIS2_EEEENS9_9allocatorINS9_4pairIKS3_jEEEEE15set_deleted_keyERSF_
oMc:__ZN24b2ChainAndCapsuleContact8EvaluateEP10b2ManifoldRK11b2TransformS4_
f_j:__ZN13Il2CppHashMapIPK14Il2CppAssemblyPK22Il2CppMonoAssemblyNameN6il2cpp5utils11PointerHashIS1_EENSt3__28equal_toIS2_EENSA_9allocatorINSA_4pairIK10KeyWrapperIS2_ES5_EEEEEC2EjRKS9_RKSC_
qHg:_DelegatePInvokeWrapper_AppDomainInitializer_t682969308
AV:__ZN8Remapper6RemoveEi
yDg:_Encoding_GetBytes_m3148649984
Vpc:__ZN9Scripting27CreateArgumentNullExceptionEPKc
f5c:__ZL36CleanupTextRenderingScriptingClassesv
dVb:__ZN15ReflectionProbe17UseRendererResultEP13ProbeRenderer
Csc:__Z34Mesh_CUSTOM_SetArrayForChannelImplP12Il2CppObject30InternalScriptingShaderChannel34InternalScriptingVertexChannelTypeiP11Il2CppArrayi
FS:__Z32scripting_class_get_nested_types17ScriptingClassPtrRNSt3__26vectorIS_13stl_allocatorIS_L18MemLabelIdentifier1ELi16EEEE
iDj:_CanvasRenderer_INTERNAL_CALL_EnableRectClipping_m3318097918
yZh:_UInt64_System_IConvertible_ToDecimal_m806594027_AdjustorThunk
y5:__ZL58__ManagedRegistrationHelperFunction_MaterialEffectPlayablePv
iud:__ZN11UnityEngine7Connect20RemoteConfigSettings18StaticCallOnUpdateEPS1_
Wgf:_Enumerator_get_CurrentValue_m3103267885_gshared
UUi:_List_1__ctor_m3395838871_gshared
sUg:_CultureInfo_get_Parent_m672689885
Hw:__ZN9Scripting11UnityEngine18AssetBundleRequest9InitProxyEv
mej:_PKCS12__ctor_m1854440921
cPi:_Array_Resize_TisCustomAttributeNamedArgument_t287865710_m885566878_gshared
AX:__ZN17TransformInternal19FreeTransformThreadER18TransformHierarchyjj
Zs:__ZN9Scripting11UnityEngine12SkeletonBone12CleanupProxyEv
nu:__ZN11UnityEngine9Animation28GenericAnimationBindingCache25RegisterIAnimationBindingEPKN5Unity4TypeEiP17IAnimationBinding
mYd:_FormatterData__ctor_m3990517908
wld:__Z70RectTransformUtility_CUSTOM_INTERNAL_CALL_RectangleContainsScreenPointP12Il2CppObjectRK13Vector2fIcallS0_
S0g:_DirectoryInfo__ctor_m481305441
Xyk:dynCall_viiffiii
NIj:__ZN6il2cpp2vm5Class15GetElementClassEP11Il2CppClass
r6b:__ZNK6Sprite15GenerateOutlineEfhbRNSt3__26vectorI13dynamic_arrayI8Vector2fLj0EENS0_9allocatorIS4_EEEEi
DQ:__ZN10MemoryPoolC2E10MemLabelIdbPKciii
pnd:__ZN14UnityAnalytics25UnregisterGlobalCallbacksEv
vTb:__Z40ProcessCameraIndexListIsNodeVisibleInOutRK22SceneCullingParametersPK9SceneNodePK4AABBR9IndexList
ypj:_GUIScrollGroup_SetHorizontal_m291416666
Hqa:__ZN16GraphicsSettings8TransferI17RemapPPtrTransferEEvRT_
Mag:_X509BasicConstraintsExtension_Decode_m120598446
qOf:_ObjectReader_ReadObjectGraph_m340866276
HBe:__ZL64EventType_t3528516131_CustomAttributesCacheGenerator_dragUpdatedP21CustomAttributesCache
Brd:__ZN11UnityEngine7Connect13ConfigHandler12GetListenersERKN4core12basic_stringIcNS2_20StringStorageDefaultIcEEEE
B3a:__ZN9GfxDevice18AllocRenderSurfaceEb
nMg:_Char__cctor_m2787437263
alc:__ZN10TagManager32GetSortingLayerUniqueIDFromValueEi
tEd:_AspectRatioFitter_get_rectTransform_m2996235303
tS:__ZL27CleanupCoreScriptingClassesv
uLd:_Graphic_UnregisterDirtyMaterialCallback_m2707090617
qff:_Comparer_1_System_Collections_IComparer_Compare_m1313384821_gshared
Sdc:__Z26AnimationCurve_CUSTOM_InitP12Il2CppObjectP11Il2CppArray
xGk:_glUniform1uiv__wrapper
xMc:__ZNK14b2PolygonShape5CloneEP16b2BlockAllocator
SZj:__ZN6il2cpp2vm10Reflection7IsEventEP12Il2CppObject
BV:__ZN17PersistentManager26GetStreamNameSpaceInternalEi
SC:__ZN4FMOD6System11createSoundEPKcjP22FMOD_CREATESOUNDEXINFOPPNS_5SoundE
co:FUNCTION_TABLE_iiifiiii
W0c:__ZN13SpeedTreeWind20AdvanceWithoutUpdateEd
n2h:_ReadOnlyCollection_1_System_Collections_Generic_ICollectionU3CTU3E_Add_m1422506275_gshared
Ech:_DateTime_System_IConvertible_ToDecimal_m1044850612
zR:__ZN9ShaderLab19CommonPropertyNames13StaticCleanupEPv
QU:__Z31scripting_method_get_returntype18ScriptingMethodPtr
nGa:__ZN15SerializeTraitsI12LightmapDataE8TransferI24GenerateTypeTreeTransferEEvRS0_RT_
fwg:_SecurityElement_AddAttribute_m311510562
kca:__ZN9Scripting5Unity11Collections44NativeDisableParallelForRestrictionAttribute12CleanupProxyEv
WCk:_glStencilOpSeparate__wrapper
koc:__ZN4Mesh5SetUvEiPKfjj
ZDa:__ZN7Texture13SetAnisoLimitENS_20AnisotropicFilteringE
Wvd:__ZN20UnityWebRequestProtoI24UnityWebRequestTransport16AtomicRefCounter14RedirectHelper14ResponseHelper15DownloadHandler13UploadHandler18CertificateHandler12HeaderHelper14AsyncOperationED2Ev
gKg:_Attribute_IsDefined_m4069052474
Uh:_emscripten_glCompressedTexSubImage2D
nCb:__ZN13GfxDeviceGLES22MemoryBarrierImmediateEyN2gl17MemoryBarrierTypeE
g3:__ZN6prcoreL26RemapGenericFloatToIntegerI18TexFormatARGBFloat17TexFormatARGB8888EEvPKNS_9InnerInfoE
_Pc:__ZN14qsort_internal5QSortIPN35b2SynchronizeContinuousFixturesTask14b2DeferredMoveEiPFbRKS2_S5_EEEvT_S8_T0_T1_
f1i:_List_1_set_Capacity_m1977188119_gshared
rpc:__Z46GetShaderModelNumericValueFromRequirementsMask18ShaderRequirements
H8c:_cff_ps_has_glyph_names
aCh:_Dictionary_2_Resize_m3287623642_gshared
Dlk:_GC_write
CKf:_SoapTypeAttribute_SetReflectionObject_m1691526413
eLd:_Graphic_OnPopulateMesh_m767318148
Ar:__ZN17ConstraintManagerD2Ev
apf:_Dictionary_2_Remove_m4193450060_gshared
R_g:_Int64_TryParse_m3606398488
ZNi:_Array_InternalArray__set_Item_TisMark_t3471605523_m1299772331_gshared
bxc:__Z44Register_UnityEngine_GUIStyle_SetDefaultFontv
y6b:__ZN19SpriteMeshGenerator9MakeShapeEP11ColorRGBA32iifhbjfi
qjb:__Z18Transfer_BlittableI18StreamedBinaryReadILb1EELb1EiEvRK29SerializationCommandArgumentsR31RuntimeSerializationCommandInfo
uoi:__Z173RuntimeInvoker_Int32_t2950945753_RuntimeObject_Int32_t2950945753_Int32_t2950945753_Int32_t2950945753_RuntimeObject_Int32_t2950945753_SByte_t1669577662_ContextU26_t3937453398PFvvEPK10MethodInfoPvPS4_
MWi:_List_1__ctor_m2576108087_gshared
HYj:__ZN15dense_hashtableINSt3__24pairIK10KeyWrapperINS1_IPK12PropertyInfoP11Il2CppClassEEEjEES9_17ReflectionMapHashIS8_EN14dense_hash_mapIS9_jSD_NS9_14EqualsComparerINS0_8equal_toIS8_EEEENS0_9allocatorISB_EEE9SelectKeyESI_SK_E12maybe_shrinkEv
fzj:__ZL25UnresolvedVirtualCall_150P12Il2CppObject19Vector2_t2156229523S1_fiPK10MethodInfo
Jej:_X509Certificate_get_DSA_m565099499
Rjb:__Z18Transfer_BlittableI18StreamedBinaryReadILb1EELb1EsEvRK29SerializationCommandArgumentsR31RuntimeSerializationCommandInfo
kQh:_StringBuilder_Remove_m940064945
EPa:__ZN14SafeBinaryRead21TransferSTLStyleArrayI13dynamic_arrayI16SplashScreenLogoLj0EEEEvRT_17TransferMetaFlags
g7a:__ZN13dynamic_arrayIN16GeometryJobTasks15GeometryJobTaskELj0EE18resize_initializedEjRKS1_12ResizePolicy
RRf:_DESCryptoServiceProvider_GenerateIV_m683687014
dEa:__ZL21SetAnisoLimitEnumImplN7Texture20AnisotropicFilteringEb
wrd:__ZN22BaseUnityConnectClient17OnEnterStateReadyEv
I5f:_Text_get_fontSize_m1677872538
_Oh:_List_1_System_Collections_IList_get_Item_m995551621_gshared
P9:__ZN9Scripting11UnityEngine12Experimental9Rendering15ShadowSplitData9InitProxyEv
GNa:__ZN16BlendShapeVertex8TransferI19StreamedBinaryWriteILb0EEEEvRT_
eec:__Z29Input_CUSTOM_GetMouseButtonUpi
HYg:_Int16_Parse_m138525169
_Tj:__ZN6il2cpp6icalls8mscorlib6System8MonoType16InternalGetEventEP20Il2CppReflectionTypeP12Il2CppStringi
jnj:_UriScheme_t722425697_marshal_pinvoke_back
zad:_UNITY_tt_face_load_maxp
tec:__Z46Input_CUSTOM_INTERNAL_set_compositionCursorPosRK13Vector2fIcall
oLb:__ZN13BatchRenderer15ApplyShaderPassER17ShaderPassContextPK18SharedMaterialDataP6ShaderPN9ShaderLab4PassEi13BatchingFlagsbbPKNS7_10GrabPassesEPK22DeviceRenderStateBlock
RLa:__ZN19ShaderPropertySheet11ComputeHashEv
XMj:__ZN30dense_hashtable_const_iteratorI10KeyWrapperIPK19Il2CppGenericMethodES4_N6il2cpp8metadata23Il2CppGenericMethodHashEN14dense_hash_setIS4_S7_NS4_14EqualsComparerINS6_26Il2CppGenericMethodCompareEEENSt3__29allocatorIS4_EEE8IdentityESB_SE_EppEv
bNc:__ZN12b2EPCollider24ComputePolygonSeparationEv
iK:__ZN11UnityEngine15CloudWebService20WebRequestRestClient6IsDoneEv
Kbj:_X509CertificateCollection_get_Item_m1033426577
Ri:_llvm_fabs_f32
NJ:__ZN11UnityEngine15CloudWebService16SessionContainer16GetJsonDataBlockEjRKN4core12basic_stringIcNS2_20StringStorageDefaultIcEEEERS6_PjSA_
qwh:_ASN1_Decode_m1695284166
ITc:__ZN24JointTranslationLimits2D8TransferI14SafeBinaryReadEEvRT_
vih:_Enum_ToString_m3248653065
_Wd:_ChannelServices__cctor_m2475086854
mdj:_TlsStream_get_Position_m1904146856
UT:__ZN14SafeBinaryReadD2Ev
DMh:_Enumerator_MoveNext_m3859993671_gshared
X1c:__ZN14SafeBinaryRead21TransferSTLStyleArrayI13dynamic_arrayIN20TextRenderingPrivate8FontImpl13CharacterInfoELj0EEEEvRT_17TransferMetaFlags
flb:__ZN8Gradient8TransferI18StreamedBinaryReadILb1EEEEvRT_
xeg:_Capture__ctor_m3103117740
sni:__Z113RuntimeInvoker_Void_t1185182177_RuntimeObject_Int64_t3736567304_RuntimeObject_Int64_t3736567304_Int64_t3736567304PFvvEPK10MethodInfoPvPS4_
Tyc:__ZN5Unity9rapidjson8internal6Grisu2EdPcPiS3_
KCf:_RangeInt_get_end_m4128831787_AdjustorThunk
R8j:__ZN6il2cpp6icalls8mscorlib6System4Type15MakeGenericTypeEP20Il2CppReflectionTypeP11Il2CppArray
rj:_SDL_PauseAudio
RRg:_Hashtable_Clone_m3078962909
h2j:_il2cpp_class_from_type
TUj:__ZN6il2cpp2os4File11GetStdErrorEv
lHj:_NativeHeaderAttribute__ctor_m457462113
yR:__ZN9ShaderLab19CommonPropertyNames16StaticInitializeEPv
ref:_Comparer_1__cctor_m2517796511_gshared
zu:__ZN7mecanim9animation18CreateAvatarOutputEPKNS0_14AvatarConstantEbbRNS_6memory9AllocatorE
Ypg:_TlsServerCertificateRequest_Update_m2763887540
y4f:_Slider_set_maxValue_m2251404465
Wnc:__ZN7Texture11SetWrapModeE15TextureWrapMode
Iya:__ZN14Texture2DArray23VirtualRedirectTransferER14SafeBinaryRead
xRe:_MissingMemberException__ctor_m1220732369
bOb:__ZNK6Camera21CalculateCanDoShadowsEv
_gk:__ZN6il2cpp2os6Thread12SetStackSizeEj
P_f:_MaskableGraphic_RecalculateMasking_m183336762
DSi:_Array_InternalArray__get_Item_TisRuntimeObject_m3347010206_gshared
dPd:_TypeBuilder_IsSubclassOf_m3458909121
dzk:dynCall_viffii
omb:__Z18Transfer_BlittableI18StreamedBinaryReadILb0EELb1EhEvRK29SerializationCommandArgumentsR31RuntimeSerializationCommandInfo
lFg:_X509Certificate__cctor_m198658613
flc:__ZL24GenerateTilingJobCombineP22GenerateTilingAreaInfo
wBf:_PlayableHandle_Equals_m1666612586_AdjustorThunk
O2:__ZN6prcoreL27StretchGenericFloatBilinearI15TexFormatRFloatEEvPKNS_9InnerInfoE
dle:__ZL139ServicePointManager_t170559685_CustomAttributesCacheGenerator_ServicePointManager_t170559685____CheckCertificateRevocationList_PropertyInfoP21CustomAttributesCache
Hih:_Enum_ToObject_m1628250250
K4g:_StreamWriter_LowLevelWrite_m1081676583
$Ha:__ZN19StreamedBinaryWriteILb0EE21TransferSTLStyleArrayI13dynamic_arrayI8Vector2fLj0EEEEvRT_17TransferMetaFlags
tCa:__Z14PadImageBorderR14ImageReferenceii
hXj:__ZN15dense_hashtableINSt3__24pairIK10KeyWrapperINS1_IPK10MethodInfoP11Il2CppClassEEEjEES9_17ReflectionMapHashIS8_EN14dense_hash_mapIS9_jSD_NS9_14EqualsComparerINS0_8equal_toIS8_EEEENS0_9allocatorISB_EEE9SelectKeyESI_SK_E4findERSA_
fQj:__ZN6il2cpp2vm13MetadataCache28GetFieldDefaultValueForFieldEPK9FieldInfo
xoh:_Array_IndexOf_TisUIVertex_t4057497605_m3336763564_gshared
FGd:_ColorBlock_Equals_m518833916_AdjustorThunk
M4e:_InternalEnumerator_1_System_Collections_IEnumerator_get_Current_m1514266661_AdjustorThunk
Qy:__ZN12AudioManager39HandlePendingAudioConfigurationCallbackEv
$6:__ZL43__ManagedRegistrationHelperFunction_Vector3Pv
rk:_emscripten_glIsFramebuffer
Ryh:_RSAManaged_EncryptValue_m799827583
pUb:__ZN12_GLOBAL__N_16qAtan2Eff
vk:_JS_Sound_SetLoopPoints
kqk:__ZN6il2cpp2vm26MetadataAllocGenericMethodEv
qlh:_Array_InternalArray__ICollection_Remove_TisUInt16_t2177724958_m1766181761_gshared
DEb:__ZN19ConstantBuffersGLES12RecordRenderEv
mBc:__ZN9JSONWrite8TransferI10RectOffsetEEvRT_PKc17TransferMetaFlags
kCa:__ZN4crnd12symbol_codec11decode_bitsEj
xNc:__ZN15b2CircleContact8EvaluateEP10b2ManifoldRK11b2TransformS4_
Wqj:_AesManaged_GenerateIV_m1368817386
ay:__ZN4FMOD6System12createReverbEPPNS_6ReverbE
Ijk:__ZN6il2cpp2vm6String21InitializeEmptyStringEP11Il2CppClass
NVa:__Z16MarkDependenciesR27GarbageCollectorThreadStatej
Cji:_ObjectPool_1_get_countInactive_m526975942_gshared
hLf:_RemotingServices_DisposeIdentity_m2605848806
L1:__ZNK9Transform11GetPositionEv
Jqf:_Bounds_set_size_m4127623202
hXg:_GuidParser_Reset_m2640004655
g8b:__ZN23SharedMeshRenderingData18UnloadVertexStreamEi
Qmc:__ZN31CanvasBatchIntermediateRenderer11AddSubBatchERK16DrawBuffersRangePK19ShaderPropertySheet
Oic:__ZN19RenderEventsContextC2Ei
KH:__Z6simd4fRKf
Zk:_emscripten_glEnable
s6e:_InternalEnumerator_1_System_Collections_IEnumerator_get_Current_m2982675020_gshared
$fa:__ZN10TagManager23VirtualRedirectTransferER14SafeBinaryRead
YLe:__ZL51RawImage_t3182918964_CustomAttributesCacheGeneratorP21CustomAttributesCache
ZQb:__Z15InitLightMeshesv
cRd:_MonoCMethod_ToString_m3992577062
t3j:_RaycastHit_get_collider_m1464180279
UDa:__ZN15QualitySettings8TransferI19StreamedBinaryWriteILb0EEEEvRT_
yAc:__Z18Transfer_BlittableI9JSONWriteLb1E11ColorRGBA32EvRK29SerializationCommandArgumentsR31RuntimeSerializationCommandInfo
YZf:_LayoutUtility_U3CGetFlexibleHeightU3Em__7_m2991026842
j6c:_cf2_arrstack_init
MSi:_Array_InternalArray__get_Item_TisResourceCacheItem_t51292791_m1306056717_gshared
$Bi:__Z157RuntimeInvoker_Void_t1185182177_RuntimeObject_RuntimeObject_RuntimeObject_RuntimeObject_RuntimeObject_RuntimeObject_RuntimeObject_RuntimeObject_RuntimeObjectPFvvEPK10MethodInfoPvPS4_
OO:__Z15CleanLogHandler7LogTypePKcz
KUe:_NumberFormatter_NumberToString_m2481532188
c3b:__ZN9ShaderLab19SerializedSubShader8TransferI19StreamedBinaryWriteILb0EEEEvRT_
J2f:_ScrollRect_InternalGetBounds_m599803667
Dca:__ZN9Scripting5Unity11Collections8LowLevel6Unsafe41NativeContainerIsAtomicWriteOnlyAttribute9InitProxyEv
aqb:__ZN6Camera17RemoveImageFilterERK11ImageFilter
M7a:__ZNSt3__218__insertion_sort_3IR25ValueParameterArraySorterPN20GpuProgramParameters14ValueParameterEEEvT0_S6_T_
bVc:__ZN10ClipperLib7Clipper27ProcessEdgesAtTopOfScanbeamEx
Tke:__ZL67EditorBrowsableAttribute_t1475454531_CustomAttributesCacheGeneratorP21CustomAttributesCache
XQg:_Comparer__cctor_m3311686689
W5e:_InternalEnumerator_1_get_Current_m3500427238_AdjustorThunk
Xmd:__ZN2UI26InitializeDeviceForOverlayEi
iQ:__Z27LogRepeatingStringWithFlagsRKN4core12basic_stringIcNS_20StringStorageDefaultIcEEEE15LogMessageFlagsi
JZh:_UInt64_System_IConvertible_ToSingle_m925613075
Iih:_Enum_IsDefined_m1442314461
qTh:_Thread__cctor_m817723615
Quj:_AudioExtensionManager_RegisterBuiltinDefinitions_m2742744104
LCg:_DecoderReplacementFallbackBuffer_Fallback_m1261056214
FSe:_Binder_get_DefaultBinder_m950908649
h1g:_StreamReader__ctor_m1616861391
Pbd:_tt_cmap6_char_index
tsd:__ZN18UnityConnectClient33OnPlayerSessionStateChangedStaticEPS_jyy
$Oc:__ZN19ProcessContactsDataD2Ev
Asg:_RSA_ToXmlString_m2922661427
UK:__ZNK11UnityEngine15CloudWebService23WebRequestUploadHandler11GetProgressEv
Uzb:__ZN7ApiGLES4LoadE16GfxDeviceLevelGL
eCa:__ZN4crnd12crn_unpacker22decode_color_endpointsEv
zck:__ZN15dense_hashtableI10KeyWrapperIP18Il2CppGenericClassES3_N6il2cpp8metadata22Il2CppGenericClassHashEN14dense_hash_setIS3_S6_NS3_14EqualsComparerINS5_25Il2CppGenericClassCompareEEENSt3__29allocatorIS3_EEE8IdentityESA_SD_E15insert_noresizeERKS3_
qkc:__ZZL31RegisterOtherRendererPropertiesR22GenericPropertyBindingEN30Wrapper_RendererReceiveShadows13GetFloatValueEPv
Ojh:_Array_InternalArray__ICollection_Contains_TisSlot_t384495010_m688761886_gshared
JBa:__ZN17SharedTextureDataC2E10MemLabelIdii13TextureFormatjiibb
RDi:__Z114RuntimeInvoker_RuntimeObject_RuntimeObject_Int32_t2950945753_Int32_t2950945753_Int32_t2950945753_Int32_t2950945753PFvvEPK10MethodInfoPvPS4_
dtb:__ZN8Material11SetPassFastEPN9ShaderLab4PassER17ShaderPassContextP6Shaderib
csd:__ZN11UnityEngine7Connect20BasePersistentValues10SaveValuesER9JSONWrite
daj:_Collection_1_IsFixedSize_m3748602684_gshared
Gch:_DateTime_System_IConvertible_ToDouble_m2116720007
Lig:_BitConverterLE_GetUIntBytes_m795219058
ztf:_Display_GetSystemExtImpl_m2808197389
FUh:_WaitHandle_WaitOne_m2577152516
GQf:_SByte_Parse_m2899090751
e9:__ZN9Scripting11UnityEngine20ManagedStreamHelpers12CleanupProxyEv
jVe:_NumberFormatter_AppendExponent_m1258666517
L1e:_ArrayReadOnlyList_1_GetEnumerator_m1835926958_gshared
GY:__ZN20GlobalCachingManager7DisposeEv
IKb:__Z12SetupLODFadeR9GfxDeviceR17ShaderPassContextf
cCc:__ZN9JSONWrite8TransferI13dynamic_arrayI4AABBLj0EEEEvRT_PKc17TransferMetaFlags
MQb:__ZL24CollectForwardObjectsJobP27CollectForwardObjectsHeader
cEc:__ZN8JSONRead21TransferSTLStyleArrayI13dynamic_arrayIdLj0EEEEvRT_17TransferMetaFlags
gTb:__Z13IsNodeVisibleRK9SceneNodeRK4AABBRK22SceneCullingParameters
_oh:_Array_InternalArray__IndexOf_TisLabelFixup_t858502054_m1491765395_gshared
Lth:_SortKeyBuffer_AppendCJKExtension_m2591091991
Cld:__Z57RectTransformUtility_CUSTOM_INTERNAL_CALL_PixelAdjustRectP12Il2CppObjectS0_R5RectTIfE
WRh:_UTF8Encoding_GetByteCount_m4153686982
uIk:_emscripten_glStencilMask__wrapper
hmi:__Z49RuntimeInvoker_Void_t1185182177_Double_t594665363PFvvEPK10MethodInfoPvPS4_
NMj:__ZN15dense_hashtableI10KeyWrapperIPK19Il2CppGenericMethodES4_N6il2cpp8metadata23Il2CppGenericMethodHashEN14dense_hash_setIS4_S7_NS4_14EqualsComparerINS6_26Il2CppGenericMethodCompareEEENSt3__29allocatorIS4_EEE8IdentityESB_SE_EC2ERKSH_j
Mka:__ZN15RenderNodeQueue7CleanupEv
Zne:__ZL66RuntimePlatform_t4159857903_CustomAttributesCacheGenerator_XBOX360P21CustomAttributesCache
T$c:__ZN16NovodexAllocator8allocateEjPKcS1_i
gQb:__Z17PrepareShadowMapsRK11CullResultsRK11ActiveLightRK10MinMaxAABB
Aej:_DeriveBytes_DeriveIV_m973925711
sZg:_Int32_System_IConvertible_ToSByte_m3133688512
ayd:__ZN9Scripting11UnityEngine12Experimental23SubsystemDescriptorBase9InitProxyEv
IQb:__ZN9ShaderLab10GrabPassesD2Ev
Jza:__ZN14Texture2DArray13UploadTextureEv
z_f:_MaskableGraphic_UpdateCull_m2805101913
fbd:_tt_cmap14_done
NTa:__ZN18AwakeFromLoadQueue25RegisterObjectInstanceIDsEv
BUf:_InputField_UpdateLabel_m1837760870
Voa:__ZN14VertexDataInfo12UpdateFormatEj17ShaderChannelMaskS0_RK19VertexStreamsLayoutRK20VertexChannelsLayout
c3c:__ZN20TextRenderingPrivate19NativeTextGenerator15InsertCharacterEiPj
rJc:__ZN11b2RopeJoint24SolveVelocityConstraintsERK12b2SolverData
zSe:_MonoType_get_attributes_m1332507727
Noj:_GUIContent_ClearStaticCache_m1205116045
kNf:_BinaryCommon__cctor_m2978407547
WM:__GLOBAL__sub_I_Runtime_Burst_0_cpp
LOb:__Z19GetReflectionSampleRK23ReflectionProbesContextRK22ActiveReflectionProbesRK27PerObjectLightCullingOutputRK10RenderNodejP16ReflectionSample
bkc:__ZN28ReflectionProbeAnchorManager23HandleAnchorDestructionEPK15TransformAccessj
$ud:__ZL65__ManagedRegistrationHelperFunction_UnityWebRequestAsyncOperationPv
kii:_IndexedSet_1__ctor_m2250384602_gshared
lYh:_UInt16_TryParse_m4139137016
orc:__Z41MonoBehaviour_Set_Custom_PropUseGUILayoutP12Il2CppObjecth
W7:__ZN9Scripting11UnityEngine15ResourceRequest12CleanupProxyEv
xgk:__ZN6il2cpp2gc16GarbageCollector9FreeFixedEPv
pDg:_Encoding__ctor_m2997749867
jxf:_ManagedStreamHelpers_ManagedStreamSeek_m3158782053
vlj:_ExpressionAssertion_Compile_m2166597834
K8a:__ZN16ScriptingManagerD0Ev
Ayg:_Single_System_IConvertible_ToSByte_m1208276900_AdjustorThunk
zkk:__ZN6il2cpp6icalls8mscorlib6System7Convert24InternalFromBase64StringEP12Il2CppStringb
Pak:__ZN30dense_hashtable_const_iteratorINSt3__24pairIK10KeyWrapperINS1_IPKcS4_EEEiEES6_24NamespaceAndNamePairHashN14dense_hash_mapIS6_iS9_NS6_14EqualsComparerI26NamespaceAndNamePairEqualsEENS0_9allocatorIS8_EEE9SelectKeyESD_SF_EppEv
Stc:__Z44Register_UnityEngine_Component_get_transformv
DDj:_CanvasRenderer_get_absoluteDepth_m2703237819
WWg:_TextInfo_ToLower_m2744057472
XFb:__ZN17ArchiveFileSystem12MountArchiveEPKcS1_
uLj:__ZN14dense_hash_mapI10KeyWrapperIP9FieldInfoEiN6il2cpp5utils11PointerHashIS1_EENS3_14EqualsComparerINSt3__28equal_toIS2_EEEENS9_9allocatorINS9_4pairIKS3_iEEEEE15set_deleted_keyERSF_
iHh:_EqualityComparer_1_System_Collections_IEqualityComparer_Equals_m3977314386_gshared
qAc:__Z18Transfer_BlittableI9JSONWriteLb1E8Vector4fEvRK29SerializationCommandArgumentsR31RuntimeSerializationCommandInfo
wS:__Z11RequireTypePKcS0_S0_
aTg:_CCGregorianCalendar_year_from_fixed_m463929682
Phd:__ZN2UI13CanvasManagerD0Ev
eqg:_TlsServerHello_Update_m3935081401
wpf:_Debug_get_unityLogger_m2239795986
w2h:_ReadOnlyCollection_1_System_Collections_IEnumerable_GetEnumerator_m2123446296_gshared
ujg:_MD2Managed_Initialize_m2341076836
U8h:_ReadOnlyCollection_1_System_Collections_IList_Add_m4240023232_gshared
i4a:__ZN9GfxDevice15ImmediateVertexEfff
LFa:__ZNK16LightmapSettings22GetTypeVirtualInternalEv
iQi:_Array_Sort_TisUIVertex_t4057497605_TisUIVertex_t4057497605_m4243853890_gshared
owb:__ZN13GfxDeviceGLES15SetStencilStateEPK18DeviceStencilStatei
sLg:_Buffer_BlockCopyInternal_m418318694
Euk:_cycle
pkk:__ZN6il2cpp2vm8Profiler7GCEventE13Il2CppGCEvent
Uni:__Z76RuntimeInvoker_Void_t1185182177_RuntimeObject_RuntimeFieldHandle_t1871169219PFvvEPK10MethodInfoPvPS4_
Hd:_emscripten_glUniform1iv
U6a:__ZN13ComputeShader14SetBufferParamEjRKN9ShaderLab16FastPropertyNameE15ComputeBufferIDb
OTh:_Thread_get_ManagedThreadId_m1068113671
MLc:__ZN15b2DistanceProxy3SetEPK7b2Shapei
$0a:__ZN16MemoryFileSystemD2Ev
joi:__Z150RuntimeInvoker_Int32_t2950945753_RuntimeObject_Int32_t2950945753_Int32_t2950945753_RuntimeObject_Int32_t2950945753_Int32_t2950945753_Int32_t2950945753PFvvEPK10MethodInfoPvPS4_
tKg:_BitConverter_DoubleToInt64Bits_m3574395137
D7g:_DateTime_Parse_m3729096069
RWi:_List_1_System_Collections_IList_Add_m1540114404_gshared
aqa:__ZN16GraphicsSettings27SetLightsUseLinearIntensityEb
VRc:__ZN29b2InitializeContactSolverTask7TaskJobEPS_j
GGf:_StackTraceUtility_ExtractStringFromExceptionInternal_m2686726792
lkc:__ZZN8Renderer15InitializeClassEvEN32FunctorImpl_146kCullSceneChanged4CallEPviR11MessageData
sPe:_StringReader_Read_m3322058819
nXd:_CrossAppDomainChannel_get_ChannelPriority_m3418073750
vXf:_Selectable_StartColorTween_m3618813981
ezd:_BaseInputModule_HandlePointerExitAndEnter_m1705532066
DZb:__Z23ConvertIntegerToTypePtrItEbPvR14SafeBinaryRead
Egh:_Delegate_CombineImpl_m3572135514
Dlc:__Z13RegisterClassI15EditorExtensionEvPKc
LUe:_NumberFormatter_IntegerToString_m1679294587
b6h:_ReadOnlyCollection_1_System_Collections_IList_RemoveAt_m422909114_gshared
Yd:_emscripten_glStencilFunc
r4b:__ZN9ShaderLab20SerializedSubProgram14AddMatrixParamEPKcii15ShaderParamTypei
de:_glGetActiveUniformBlockName
Qlj:_Parser_IsIgnoreCase_m2210120858
XPj:__ZN6il2cpp2vm13MetadataCache28GetGenericContainerFromIndexEi
BVa:__ZN27UnloadUnusedAssetsOperationD0Ev
Nz:__ZN4FMOD7Channel20set3DConeOrientationEP11FMOD_VECTOR
un:FUNCTION_TABLE_iiifii
lYe:_AssemblyBuilder_not_supported_m1735277432
pek:__ZN6il2cpp2vm12GenericClass11SetupEventsEP11Il2CppClass
X3c:_ft_open_face_internal
Dbd:_tt_cmap12_get_info
Z9j:__ZN6il2cpp2vm15ReboxIReferenceEP14Il2CppIUnknownP11Il2CppClass
cFj:__ZN6il2cpp6icalls8mscorlib6System7Decimal14decimalCompareEP19il2cpp_decimal_reprS5_
$of:_Dictionary_2_OnDeserialization_m4209543208_gshared
Zkk:__ZThn4_N6il2cpp2vm13CachedCCWBaseINS0_13ManagedObjectEE7ReleaseEv
tsg:_RNGCryptoServiceProvider_GetNonZeroBytes_m1918423726
zxi:__Z100RuntimeInvoker_Void_t1185182177_RuntimeObject_Int32_t2950945753_Int32_t2950945753_UInt16_t2177724958PFvvEPK10MethodInfoPvPS4_
xFk:_glCopyTexImage2D__wrapper
WZc:__ZN16PhysicsManager2D11CreateWorldERK8Vector2f
otb:__Z18ClearByDrawingQuad13GfxClearFlagsRK10ColorRGBAffjR17ShaderPassContext
t2:__ZN6prcoreL17RemapGenericFloatI14TexFormatRHalf15TexFormatRFloatEEvPKNS_9InnerInfoE
q7c:_cf2_getBlueValues
Cri:__Z155RuntimeInvoker_Void_t1185182177_RuntimeObject_SByte_t1669577662_SByte_t1669577662_Int64U26_t200113976_ObjectU26_t2146539884_SerializationInfoU26_t419328957PFvvEPK10MethodInfoPvPS4_
a$:__ZN15DirectorManager21RebuildStageCallbacksEv
Gtb:__ZN19RuntimeSceneManager9LoadSceneERKN4core12basic_stringIcNS0_20StringStorageDefaultIcEEEES6_S6_RK9UnityGUIDiNS_11LoadingModeE
ypf:_Application_Internal_ApplicationQuit_m2936209313
Yyb:__ZN7ApiGLES10DrawArraysE16GfxPrimitiveTypejjj
LC:__ZN10SampleClip13LoadBaseSoundEv
cGg:_SmallXmlParser_SkipWhitespaces_m4243606597
WTg:_CompareInfo_IndexOf_m2631915198
ucb:__ZN14SafeBinaryRead21TransferSTLStyleArrayI13dynamic_arrayI10Matrix4x4fLj0EEEEvRT_17TransferMetaFlags
xAd:_TriggerEvent__ctor_m87299207
fyd:__ZN9Scripting11UnityEngine12Experimental27Internal_SubsystemInstances12CleanupProxyEv
yF:__Z57AudioSource_CUSTOM_INTERNAL_CALL_ClearExtensionPropertiesP12Il2CppObjectRK12PropertyName
iek:__ZN15dense_hashtableINSt3__24pairIK10KeyWrapperIP12Il2CppObjectEN6il2cpp2gc9CachedCCWEEES5_NS7_5utils11PointerHashIS3_EEN14dense_hash_mapIS5_S9_SD_NS5_14EqualsComparerINS0_8equal_toIS4_EEEENS0_9allocatorISA_EEE9SelectKeyESI_SK_E15insert_noresizeERKSA_
xEh:_EqualityComparer_1__cctor_m3962593840_gshared
hya:__ZN22DeviceMVPMatricesStateC2ER9GfxDevice
$rg:_SslClientStream_Finalize_m1251363641
qKb:__ZNK6Camera32ResolveLastTargetToCurrentTargetEv
oQg:_Comparer_Compare_m3984347512
f0j:__ZN6il2cpp2vm10Reflection12HasAttributeEP9FieldInfoP11Il2CppClass
X9:__ZN9Scripting11UnityEngine12Experimental9Rendering11CullResults9InitProxyEv
jc:invoke_viiifi
bfc:__Z13RegisterClassI6SpriteEvPKc
NSd:_MonoProperty_GetCustomAttributes_m3619796755
B$d:_MethodDictionary_System_Collections_IEnumerable_GetEnumerator_m4169036899
CVh:_TimeSpan_Subtract_m1264203589
DCh:_DefaultComparer_Equals_m3257444875_gshared
nf:_JS_Sound_SetPosition
nta:__ZN19RenderBufferManager13GetTempBufferEii17DepthBufferFormat19RenderTextureFormatj22RenderTextureReadWrite14VRTextureUsagei23RenderTextureMemoryless
IPj:__ZL13GetSharedInstPK17Il2CppGenericInst
Ooa:__Z27ConvertSubMeshesToTrianglesIjEvR13dynamic_arrayI7SubMeshLj0EERS0_IhLj0EE
Zpd:__ZN22BaseUnityConnectClient17SaveSessionValuesEv
Z3e:_InternalEnumerator_1_get_Current_m476140818_gshared
PQb:__Z24SetupActiveLightsContextR21ActiveLightingContextRK12ActiveLightsRK11CullResultsP14ShadowMapCacheRK10MinMaxAABB
$7b:__Z38Sprite_CUSTOM_INTERNAL_get_textureRectP12Il2CppObjectP5RectTIfE
T_j:__ZNK15dense_hashtableINSt3__24pairIK10KeyWrapperIPK22Il2CppGenericParameterEPK24MonoGenericParameterInfoEES6_N6il2cpp5utils11PointerHashIS4_EEN14dense_hash_mapIS6_SA_SF_NS6_14EqualsComparerINS0_8equal_toIS5_EEEENS0_9allocatorISB_EEE9SelectKeyESK_SM_E3endEv
uac:__ZN9TextAsset7SetTextERKN4core12basic_stringIcNS0_20StringStorageDefaultIcEEEE
yja:__ZN6Camera8TransferI24GenerateTypeTreeTransferEEvRT_
vTc:__ZN13SliderJoint2D13AwakeFromLoadE17AwakeFromLoadMode
Ia:invoke_iiiiiiif
Fa:invoke_iiiiiiii
sNi:_Array_InternalArray__set_Item_TisByte_t1134296376_m3104140039_gshared
Jrc:__Z56Register_UnityEngine_MonoBehaviour_IsObjectMonoBehaviourv
XDf:_Rect_ToString_m447614148
cfj:_PKCS12_GetBytes_m415958948
DIb:__ZN8Renderer17PendingAddToSceneEv
rJk:b122
uJk:b125
tJk:b124
wJk:b127
vJk:b126
DJk:b129
W8b:__Z52Register_UnityEngine_RectTransform_INTERNAL_get_rectv
wyf:_Mesh_SetSizedArrayForChannel_m2565120436
gS:__Z21PostprocessStacktracePKcRN4core12basic_stringIcNS1_20StringStorageDefaultIcEEEE
cEe:__ZL73ContactFilter2D_t3805203441_CustomAttributesCacheGenerator_minNormalAngleP21CustomAttributesCache
kxf:_ManagedStreamHelpers_ManagedStreamLength_m2930872960
G8b:__Z43RectTransform_CUSTOM_INTERNAL_get_anchorMinP12Il2CppObjectP13Vector2fIcall
Odj:_BasicConstraintsExtension_Encode_m2009213240
Hbc:__Z47Register_UnityEngine_Camera_get_allCamerasCountv
QFd:___clang_call_terminate
Zt:__ZN16MecanimAnimation25RegisterIAnimationBindingEPKN5Unity4TypeEiP17IAnimationBinding
poc:__ZNSt3__26vectorIj13stl_allocatorIjL18MemLabelIdentifier1ELi16EEE6assignIPKtEENS_9enable_ifIXaasr21__is_forward_iteratorIT_EE5valuesr16is_constructibleIjNS_15iterator_traitsIS9_E9referenceEEE5valueEvE4typeES9_S9_
MBb:__ZL25ProgramUniformMatrix4x3fvPK7ApiGLESjiihPKv
PHb:__ZN12InputManager13InputEndFrameEv
Lyf:_Object_get_name_m4211327027
F3j:__ZN6il2cpp2vm6Thread5SetupEP12Il2CppThread
qhf:_Enumerator_System_Collections_IDictionaryEnumerator_get_Key_m2500634048_gshared
JWg:_SortKey_Compare_m1705990888
rHj:_NativeNameAttribute__ctor_m3296876808
Gvk:___munmap
eg:_localtime_r
cJb:__ZN22RenderingCommandBuffer13GetAndCheckRTE24BuiltinRenderTextureTypeRKN9ShaderLab16FastPropertyNameEPKcPP13RenderTexture
MN:__Z19free_alloc_internalPv10MemLabelId
At:__ZN9Scripting11UnityEngine10Animations18PositionConstraint9InitProxyEv
hg:_strftime
Eta:__ZN7Texture33SetStoredColorSpaceNoDirtyNoApplyE17TextureColorSpace
SUd:_ResourceSet__ctor_m3618395942
nfh:_Decimal_System_IConvertible_ToDouble_m3125524987_AdjustorThunk
VW:__ZN12FileAccessorD2Ev
bpa:__ZN14VertexDataInfoC2Ev
hgk:__ZN6il2cpp2gc16GarbageCollector14CollectALittleEv
enc:__ZNK9HPlayable15GetPlayableTypeEv
Ekb:__ZL17Transfer_GUIStyleI18StreamedBinaryReadILb1EELb1EEvRK29SerializationCommandArgumentsR31RuntimeSerializationCommandInfo
M$f:_RectMask2D_IsRaycastLocationValid_m1652308696
jQ:__ZNSt3__26__treeINS_12__value_typeIPKciEENS_19__map_value_compareIS3_S4_15compare_tstringIS3_ELb1EEENS_9allocatorIS4_EEE21__emplace_unique_implIJNS_4pairIPciEEEEENSD_INS_15__tree_iteratorIS4_PNS_11__tree_nodeIS4_PvEEiEEbEEDpOT_
QTj:__ZN6il2cpp6icalls8mscorlib6SystemL9IsPrivateEPK12PropertyInfo
lfj:_X501_ToString_m1148552872
MEf:_RectTransform_add_reapplyDrivenProperties_m1374850920
uR:__ZN9shadertag10InitializeEv
I0c:__GLOBAL__sub_I_Modules_Terrain_Public_1_cpp
RDa:__ZN15QualitySettings14QualitySetting8TransferI24GenerateTypeTreeTransferEEvRT_
Dtc:__Z44Register_UnityEngine_Object_DestroyImmediatev
Uah:_Convert_ToSingle_m835189399
Q5b:__ZN22BlockMemoryCacheWriter14LockCacheBlockEjPPhS1_
qhd:__ZN9Scripting11UnityEngine8Tilemaps8TileData12CleanupProxyEv
f_h:_UInt64_ToString_m2177233542
Ws:__ZN9Scripting11UnityEngine21StateMachineBehaviour9InitProxyEv
bEc:__Z22TransferField_NonArrayI8JSONRead27Converter_SimpleNativeClassI8GUIStyleEEvRK23StaticTransferFieldInfoR31RuntimeSerializationCommandInfoRT0_
Faa:__ZN9Scripting11UnityEngine26ExcludeFromPresetAttribute9InitProxyEv
Og:_llvm_eh_typeid_for
kMf:_RemotingServices_FindInterfaceMethod_m2125212568
C4g:_StreamWriter__cctor_m1229272693
rih:_Enum_System_IConvertible_ToSByte_m779472798
hWh:_Type_get_IsInterface_m3284996719
Vmb:__Z18Transfer_BlittableI18StreamedBinaryReadILb0EELb1E8Vector4fEvRK29SerializationCommandArgumentsR31RuntimeSerializationCommandInfo
$1c:__ZN14SafeBinaryRead21TransferSTLStyleArrayI13dynamic_arrayIN4core17string_with_labelILi35EEELj0EEEEvRT_17TransferMetaFlags
Zyj:__ZL25UnresolvedVirtualCall_142P12Il2CppObject17Color_t2555686324faaaPK10MethodInfo
oCh:_Dictionary_2_U3CCopyToU3Em__0_m2023886030_gshared
WHk:_glBindVertexArray__wrapper
fOf:_SerializationInfo__ctor_m2923079689
zwa:__ZN8Material8TransferI14SafeBinaryReadEEvRT_
LAa:__ZN12CubemapArray17UploadToGfxDeviceEv
MYg:_Int32_JumpOverWhite_m208298144
NSc:__ZN12WheelJoint2D23VirtualRedirectTransferER18StreamedBinaryReadILb0EE
EHi:__Z53RuntimeInvoker_Int32_t2950945753_UIVertex_t4057497605PFvvEPK10MethodInfoPvPS4_
WGk:_emscripten_glGetUniformiv__wrapper
Skk:__ZN6il2cpp2vm13ManagedObject14QueryInterfaceERK10Il2CppGuidPPv
uA:__ZN11AudioSource4StopEb
luk:_frexp
_Gg:_AppDomain_LoadAssembly_m1557889794
k8a:__ZN18GlslGpuProgramGLESD2Ev
dXb:__ZN13RenderTexture14SetVolumeDepthEi
pPd:_EventInfo_get_EventHandlerType_m420690865
Rwi:__Z86RuntimeInvoker_Void_t1185182177_UInt16_t2177724958_SByte_t1669577662_SByte_t1669577662PFvvEPK10MethodInfoPvPS4_
e4b:__Z22LoadGpuProgramFromDataPKhS0_Rj
HEc:__ZN10Matrix4x4f8TransferI8JSONReadEEvRT_
v$f:_PositionAsUV1_ModifyMesh_m4231919476
qRg:_Hashtable__ctor_m1941859523
hOb:__Z26FindForwardLightsForObjectR13dynamic_arrayIhLj0EEPK11CulledLightjRK12ActiveLightsRK10RenderNodePK19ShaderPropertySheetbRK23FindForwardLightsParamsf
H6:__ZL44__ManagedRegistrationHelperFunction_GPUFencePv
r2f:_ScrollRect_set_horizontalScrollbarSpacing_m2209919081
_Cb:__ZN25TransformFeedbackSkinning31CleanupTransformFeedbackShadersEv
FWh:_Type_GetTypeCodeInternal_m1968182887
fka:__Z22scripting_object_unbox18ScriptingObjectPtr
e3c:__ZNK20TextRenderingPrivate8FontImpl19GetCharacterAdvanceEjijfPj
Fqh:_Array_InternalArray__ICollection_Add_TisUriScheme_t722425697_m3142345403_gshared
fuk:_fmt_u
THa:__ZN10VertexData8TransferI18StreamedBinaryReadILb0EEEEvRT_
htk:__ZN6il2cpp8metadata25Il2CppGenericClassCompare7CompareEPK18Il2CppGenericClassS4_
Uld:__ZN2UI29ResetVRScreenSpaceWarningFlagEv
fTe:_MonoType_get_Assembly_m4290914179
P4b:__ZN9ShaderLab7ProgramC2E10MemLabelIdi10ShaderType
oXb:__ZN14PreloadManager16UpdatePreloadingEv
gia:__ZN12BaseRendererD2Ev
tac:__ZNSt3__26vectorI4PPtrI10MonoScriptE13stl_allocatorIS3_L18MemLabelIdentifier79ELi16EEE6insertENS_11__wrap_iterIPKS3_EERS9_
Ned:_ps_hinter_done
BAg:_String_LastIndexOf_m95398196
oOi:_Array_InternalArray__set_Item_TisUILineInfo_t4195266810_m2313892078_gshared
A_b:__ZNK21UnityDefaultAllocatorI17LowLevelAllocatorE8ContainsEPKv
TPf:_RuntimeTypeHandle_Equals_m2857439487
Yh:_emscripten_get_main_loop_timing
nWd:_SafeHandle_Finalize_m3866180675
QDa:__ZN24GenerateTypeTreeTransfer21TransferSTLStyleArrayINSt3__26vectorIN15QualitySettings14QualitySettingENS1_9allocatorIS4_EEEEEEvRT_17TransferMetaFlags
j3g:_MemoryStream_ToArray_m3911744835
Rgf:_Enumerator_System_Collections_IDictionaryEnumerator_get_Entry_m859540448_AdjustorThunk
rWb:__ZN23ManagedAttributeManager52CallManagedGetParentTypeDisallowingMultipleInclusionE17ScriptingClassPtr
UOa:__Z10AddGUIAxesR13dynamic_arrayI9InputAxisLj0EE
MWh:_Type_GetHashCode_m1947148725
_ri:__Z91RuntimeInvoker_Void_t1185182177_RuntimeObject_RuntimeObject_RuntimeObject_SByte_t1669577662PFvvEPK10MethodInfoPvPS4_
XWa:__ZNK2UI13RectTransform22GetTypeVirtualInternalEv
np:getTempRet0
yzd:_BaseRaycaster_OnEnable_m2678466030
Kuf:_UnityEventBase__ctor_m1851535676
tQi:_Array_Sort_TisVector4_t3319028937_m2797285308_gshared
spg:_HandshakeMessage_Update_m2417837686
B6j:__ZN6il2cpp6icalls8mscorlib6System9ThreadingL21lookup_cached_cultureEP12Il2CppThreadi
fuf:_NetFxCoreExtensions_CreateDelegate_m751211712
MRb:__ZN18DeferredRenderLoopD2Ev
fEj:_AnimationLayerMixerPlayable__cctor_m4086299972
eda:__ZNK16TypeTreeIterator4NameEv
tW:__ZN15FileSystemEntry3SetEPKc
IYe:_ConstructorBuilder_Invoke_m3010446651
$8f:_IPv6Address_set_ScopeId_m3907190992
T2h:_ReadOnlyCollection_1_System_Collections_Generic_IListU3CTU3E_Insert_m568455025_gshared
uz:__ZN20SoundChannelInstance15ParameterBuffer5ApplyEPN4FMOD7ChannelE
P8f:_IPv6Address__ctor_m4117281080
oah:_Convert_ToInt64_m2075293963
b3c:__ZN20TextRenderingPrivate19NativeTextGenerator9InsertTabEv
wyk:_sbrk
O7b:__ZNSt3__214__split_bufferIN19SpriteMeshGenerator4pathERNS_9allocatorIS2_EEED2Ev
zx:__ZL49__ManagedRegistrationHelperFunction_AudioSettingsPv
xrd:__ZN11UnityEngine15PlatformWrapper24GetRuntimePlatformStringEv
Ii:_glIsEnabled
qYe:_DerivedType__ctor_m1853298054
gbb:__Z25scripting_class_get_image17ScriptingClassPtr
Bxg:_SecurityException__ctor_m836898292
vPh:_List_1_RemoveAt_m2730968292_gshared
CRa:__ZNSt3__26vectorIN4core12basic_stringIcNS1_20StringStorageDefaultIcEEEE13stl_allocatorIS5_L18MemLabelIdentifier13ELi16EEEC2INS_11__wrap_iterIPS5_EEEET_SE_RKS8_PNS_9enable_ifIXaasr21__is_forward_iteratorISE_EE5valuesr16is_constructibleIS5_NS_15iterator_traitsISE_E9referenceEEE5valueEvE4typeE
Mi:_emscripten_glDrawElementsInstanced
noe:__ZL79Camera_t4157153871_CustomAttributesCacheGenerator_Camera_RaycastTry_m3913529496P21CustomAttributesCache
JYf:_LayoutGroup_get_preferredWidth_m3816902260
Nsa:__ZN18JobBatchDispatcherD2Ev
SWa:__ZN9Transform17MainThreadCleanupEv
Fnk:_GC_clear_hdr_marks
RIk:_emscripten_glCreateShader__wrapper
I5c:_cff_fd_select_get
z5f:_Text_set_resizeTextForBestFit_m4095249125
Yag:_OidEnumerator_MoveNext_m3138911739
nGi:__Z53RuntimeInvoker_Boolean_t97287965_Keyframe_t4206410242PFvvEPK10MethodInfoPvPS4_
Xi:_emscripten_glGetShaderiv
NA:__ZN4FMOD6System10getVersionEPj
sid:__ZN2UI6Canvas23VirtualRedirectTransferER24GenerateTypeTreeTransfer
I3f:_Selectable_set_animationTriggers_m2970345687
jCc:__ZN9JSONWrite8TransferIN4math12int2_storageEEEvRT_PKc17TransferMetaFlags
N1c:__ZN13TextRendering4Font13AwakeFromLoadE17AwakeFromLoadMode
aUg:_CompareInfo_LastIndexOf_m2688553706
e3a:__ZN9GfxDevice21ReleaseSharedMeshDataEP14SharedMeshData
oCd:_MouseState__ctor_m1467839005
Gmj:_Uri_IsDomainAddress_m2867513594
DQa:__ZNSt3__27__sort5IRNS_6__lessINS_4pairIPKN5Unity4TypeE7Hash128EES8_EEPS8_EEjT0_SC_SC_SC_SC_T_
oJd:_Dropdown_CreateItem_m2954407740
Mmk:_GC_unreachable_finalize_mark_proc
UBf:_PlayerConnectionInternal_PollInternal_m3759016321
tcg:_X509Chain_ProcessCrlExtensions_m236234529
iok:_maybe_finalize
kKj:__ZN6il2cpp2vm5Class40GetInterfaceInvokeDataFromVTableSlowPathEPK12Il2CppObjectPK11Il2CppClassj
J8b:__Z43RectTransform_CUSTOM_INTERNAL_get_anchorMaxP12Il2CppObjectP13Vector2fIcall
kCj:_TextGenerator_INTERNAL_CALL_Populate_Internal_cpp_m4171649399
TLf:_RemotingConfiguration_RegisterChannelTemplate_m3105688054
H8g:_Decimal_Parse_m942471224
Mma:__ZN8Material28UpdateHashesOnPropertyChangeEN9ShaderLab16FastPropertyNameE
sbc:__Z53Register_UnityEngine_SortingLayer_GetLayerValueFromIDv
Fig:_ASN1_GetBytes_m1968380955
$9a:__Z18Transfer_BlittableI14SafeBinaryReadLb1E8Vector4fEvRK29SerializationCommandArgumentsR31RuntimeSerializationCommandInfo
gxd:__ZN13RuntimeStaticINSt3__26vectorI23UnityVRDeviceDefinition13stl_allocatorIS2_L18MemLabelIdentifier90ELi16EEEELb0EE13StaticDestroyEPv
Uak:__ZN6il2cpp2vm5Image13ClassFromNameEPK11Il2CppImagePKcS6_
azk:dynCall_vdddddd
m2b:__ZN24GenerateTypeTreeTransfer21TransferSTLStyleArrayINSt3__26vectorIN9ShaderLab14SerializedPassENS1_9allocatorIS4_EEEEEEvRT_17TransferMetaFlags
WR:__ZL32MarkLevelGameManagerDependenciesR27GarbageCollectorThreadState
eyb:__ZNK13GfxDeviceGLES26HasActiveRandomWriteTargetEv
x4d:__ZL54_MemberInfo_t3922476713_CustomAttributesCacheGeneratorP21CustomAttributesCache
LDk:_glGetActiveUniformsiv__wrapper
Nwa:__ZN14SafeBinaryRead8TransferINSt3__24pairIN9ShaderLab16FastPropertyNameE10ColorRGBAfEEEEvRT_PKc17TransferMetaFlags
Qyf:_Mesh_GetIndices_m2873123901
pU:__ZN13MonoBehaviour19SetupScriptingCacheE17ScriptingClassPtrP10MonoScript
kkc:__ZZN8Renderer15InitializeClassEvEN28FunctorImpl_145kLayerChanged4CallEPviR11MessageData
cCd:_PointerEventData_get_dragging_m746831934
T8h:_ReadOnlyCollection_1_System_Collections_IEnumerable_GetEnumerator_m2781605075_gshared
Q9:__ZN9Scripting11UnityEngine12Experimental9Rendering15ShadowSplitData12CleanupProxyEv
M_:__ZZN15DirectorManager15InitializeClassEvEN52PreLateUpdateDirectorUpdateAnimationBeginRegistrator7ForwardEv
pjh:_Array_get_swapper_TisCustomAttributeNamedArgument_t287865710_m4254011335_gshared
tLd:_Graphic_RegisterDirtyMaterialCallback_m106898453
Soj:_GUILayoutEntry_get_margin_m3174861737
D1b:__ZNSt3__26vectorIN9ShaderLab14SerializedPassENS_9allocatorIS2_EEE8__appendEj
S0b:__ZNSt3__26vectorIN9ShaderLab20SerializedSubProgram13BufferBindingENS_9allocatorIS3_EEEC2INS_11__wrap_iterIPS3_EEEET_SB_RKS5_PNS_9enable_ifIXaasr21__is_forward_iteratorISB_EE5valuesr16is_constructibleIS3_NS_15iterator_traitsISB_E9referenceEEE5valueEvE4typeE
tBg:_Encoding_get_ISOLatin1_m2107621369
jLc:__ZNK16PhysicsManager2D21GetAutoSyncTransformsEv
Uhg:_BigInteger_op_Inequality_m2697143438
UJc:__ZN12b2WheelJoint24SolveVelocityConstraintsERK12b2SolverData
trb:__ZNK25PathNamePersistentManager30PathIDToFileIdentifierInternalEi
WCa:__ZN9Texture2D23VirtualRedirectTransferER18StreamedBinaryReadILb0EE
YVc:__ZN10Collider2D8TransferI24GenerateTypeTreeTransferEEvRT_
Hch:_DateTime_System_IConvertible_ToDouble_m2116720007_AdjustorThunk
dQg:_BitArrayEnumerator__ctor_m2359341397
$Kh:_Enumerator_MoveNext_m1177880931_gshared
gze:__ZL73g_UnityEngine_TextRenderingModule_Assembly_CustomAttributesCacheGeneratorP21CustomAttributesCache
WU:__ZN16ScriptingManager27NativeTypeForScriptingClassE17ScriptingClassPtr
vZh:_UInt64_System_IConvertible_ToDateTime_m3434604642
rWh:_Type_get_IsSerializable_m1040556850
pad:_get_sfnt_table
gjj:_Parser_ResolveReferences_m1518052352
GEa:__ZN8Renderer20RendererAddedToSceneEv
oTb:__ZL22ScheduleSceneNodesJobsP25ScheduleSceneNodesJobDataj
Qk:_emscripten_set_canvas_size
txa:__ZN18StreamedBinaryReadILb0EE19TransferSTLStyleMapINSt3__23mapIN9ShaderLab16FastPropertyNameEfNS2_4lessIS5_EENS2_9allocatorINS2_4pairIKS5_fEEEEEEEEvRT_17TransferMetaFlags
wKd:_Graphic_SetVerticesDirty_m2124914069
dUg:_CultureInfo__ctor_m3285927757
y_f:_MaskableGraphic_get_rootCanvasRect_m3492154629
wHc:__ZN9Scripting11UnityEngine9Physics2D9InitProxyEv
kPi:_Array_Resize_TisRaycastResult_t3360306849_m1811054291_gshared
Fic:__ZN12MeshRenderer27PrepareSingleRendererUpdateER13RendererSceneRS_10MemLabelId
j1b:__ZNSt3__26vectorIN9ShaderLab20SerializedSubProgramENS_9allocatorIS2_EEE8__appendEj
ZN:__ZN20DynamicHeapAllocatorI17LowLevelAllocatorE8AllocateEji
Rnd:__ZN11UnityEngine9Analytics15UserCustomEvent12ToJsonStringER9JSONWrite
oqj:_Locale_GetText_m2427493201
rLb:__ZN20DynamicPropertySheet15SetVectorQueuedERKN9ShaderLab16FastPropertyNameERK8Vector4fN19ShaderPropertySheet8SetFlagsE
jpa:__ZN31CanvasBatchIntermediateRendererD0Ev
Era:__ZN14RenderSettings23VirtualRedirectTransferER19StreamedBinaryWriteILb0EE
HAc:__ZL26Transfer_SimpleNativeClassI9JSONWrite10RectOffsetLb0EEvRK29SerializationCommandArgumentsR31RuntimeSerializationCommandInfo
enk:_GC_push_conditional
Ind:__ZN21UnityAnalyticsManager23VirtualRedirectTransferER24GenerateTypeTreeTransfer
xKa:__ZN17GenericDynamicVBO10AllocateVBEjR21DynamicVBOChunkHandle
Reh:_DBNull_ToString_m3638608738
mck:__ZN30dense_hashtable_const_iteratorI10KeyWrapperIP18Il2CppGenericClassES3_N6il2cpp8metadata22Il2CppGenericClassHashEN14dense_hash_setIS3_S6_NS3_14EqualsComparerINS5_25Il2CppGenericClassCompareEEENSt3__29allocatorIS3_EEE8IdentityESA_SD_EppEv
aQg:_BitArray_Clone_m3537018332
JNf:_ObjectRecord_UnchainFixup_m3191243952
jdj:_TlsStream_get_CanWrite_m16389328
Hld:__Z15GetUIModuleSpecv
z1c:__ZN9Scripting11UnityEngine8UIVertex9InitProxyEv
nl:_glMapBufferRange
OCa:__ZN9Texture2D8TransferI18StreamedBinaryReadILb0EEEEvRT_
dec:__Z31Input_CUSTOM_GetMouseButtonDowni
DXa:__ZNK9Transform16GetLocalPositionEv
iTe:_MonoType_get_BaseType_m1098640416
KSa:__ZN13LoadOperation19IntegrateTimeSlicedEi
Cdj:_TlsStream_Read_m3392972801
oyb:__ZN13GfxDeviceGLES22DispatchComputeProgramE12ObjectHandleI18ComputeProgram_TagPvE15ComputeBufferIDj
WEf:_Transform_get_localToWorldMatrix_m4155710351
UPh:_Latin1Encoding_GetString_m254210343
MUa:__Z17TransformAABBSlowRK4AABBRK10Matrix4x4fRS_
nJg:_Array_combsort_m4052486289
MMg:_Char_System_IConvertible_ToUInt16_m2449138174
KB:__ZN24AudioScriptBufferManager27InitialCompleteDomainReloadEv
J$b:__ZN9ShaderLab21SerializedShaderState8TransferI14SafeBinaryReadEEvRT_
gjh:_Environment_GetWindowsFolderPath_m1738399646
I6c:_cf2_stack_pushInt
m5c:__ZNSt3__26__treeINS_12__value_typeIN20TextRenderingPrivate7FontRefEP11FT_FaceRec_EENS_19__map_value_compareIS3_S6_NS_4lessIS3_EELb1EEENS_9allocatorIS6_EEE7destroyEPNS_11__tree_nodeIS6_PvEE
CQd:_Module_GetCustomAttributes_m76573271
nRf:_CryptoConfig_EncodeOID_m2635914623
oxa:__ZN15SerializeTraitsINSt3__24pairIN4core12basic_stringIcNS2_20StringStorageDefaultIcEEEES6_EEE8TransferI24GenerateTypeTreeTransferEEvRS7_RT_
kGk:b89
jGk:b88
LFk:b81
KFk:b80
ADb:__ZN7ApiGLES19CreateSparseTextureEjj14GraphicsFormatiiiiRiS1_S1_
KV:__ZN18ResourceImageGroup7CleanupEv
cGk:b85
bGk:b84
eGk:b87
IBg:_String_CharCopy_m3838781968
q0d:_RemotingSurrogateSelector_GetSurrogate_m3900875713
Alg:_CertificateValidationCallback_Invoke_m1014111289
vna:__Z20RenderMultipleMeshesRK15RenderNodeQueueRK18RenderMultipleData16VertexInputMasks
bm:_glDeleteShader
B2:__ZN6prcoreL17RemapGenericFloatI15TexFormatRGHalf16TexFormatRGFloatEEvPKNS_9InnerInfoE
eQi:_Array_Sort_TisUICharInfo_t75501106_m128665067_gshared
V8c:_otv_GSUB_validate
btg:_RSAPKCS1SignatureDeformatter_SetHashAlgorithm_m1602190713
jih:_Enum_System_IConvertible_ToByte_m1219166845
Qof:_Dictionary_2_CopyToCheck_m45332585_gshared
W4b:__Z27scripting_add_internal_callPKcPKv
z$j:__ZN13Il2CppHashMapINSt3__24pairIPK9EventInfoP11Il2CppClassEEj17ReflectionMapHashIS7_ENS0_8equal_toIS7_EENS0_9allocatorINS1_IK10KeyWrapperIS7_EjEEEEEC2EjRKS9_RKSB_
v1b:__ZNSt3__26vectorIN9ShaderLab20SerializedSubProgram16SamplerParameterENS_9allocatorIS3_EEE6assignIPS3_EENS_9enable_ifIXaasr21__is_forward_iteratorIT_EE5valuesr16is_constructibleIS3_NS_15iterator_traitsISA_E9referenceEEE5valueEvE4typeESA_SA_
$uc:__ZN9Scripting11UnityEngine3GUI9InitProxyEv
Zgf:_Enumerator_MoveNext_m1556953412_AdjustorThunk
Rjd:__Z44Register_UnityEngine_Canvas_get_pixelPerfectv
Flj:_Literal_GetAnchorInfo_m810577400
Qmd:__ZN2UI14CanvasRenderer12SyncMaterialENS0_8SyncFlagE
N4g:_StreamWriter_Write_m1660535366
erk:__ZN6il2cpp2vm9Parameter30GetDefaultParameterValueObjectEPK10MethodInfoPK13ParameterInfoPb
VRh:_UTF8Encoding_GetByteCount_m4152118078
Zxh:_KeyPairPersistence__CanSecure_m3516574278
Jsi:__Z95RuntimeInvoker_Void_t1185182177_RuntimeObject_RuntimeObject_Int32_t2950945753_SByte_t1669577662PFvvEPK10MethodInfoPvPS4_
NTf:_MD5CryptoServiceProvider_Dispose_m3502499818
F7i:_Collection_1_System_Collections_IList_get_Item_m2422562729_gshared
ssa:__ZN12LightManager28IsLightTransformDataUpToDateEPK5Light
bbd:_UNITY_tt_face_done_kern
P1e:_ArrayReadOnlyList_1_RemoveAt_m2104218585_gshared
JHa:__ZN12BoneWeights48TransferI24GenerateTypeTreeTransferEEvRT_
F5:__ZL49__ManagedRegistrationHelperFunction_PreLateUpdatePv
jsb:__Z19scripting_gc_enablev
$af:_InternalEnumerator_1_get_Current_m2907722321_gshared
HGb:__ZZ23InitPlayerLoopCallbacksvEN41InitializationPlayerUpdateTimeRegistrator7ForwardEv
Lpc:__ZN11UTF16StringC2ERKS_10MemLabelId
kcf:_InternalEnumerator_1_get_Current_m3792939945_AdjustorThunk
eld:__Z55Register_UnityEngine_CanvasRenderer_DisableRectClippingv
Ft:__ZN9Scripting11UnityEngine10Animations16ConstraintSource12CleanupProxyEv
DVh:_TimeSpan_Subtract_m1264203589_AdjustorThunk
AOc:__ZN19OverlapPointQuery2D14InitializeAABBER6b2AABB
G5e:_InternalEnumerator_1_System_Collections_IEnumerator_get_Current_m888718134_gshared
Eoi:__Z175RuntimeInvoker_Void_t1185182177_SByte_t1669577662_SByte_t1669577662_SByte_t1669577662_SByte_t1669577662_SByte_t1669577662_SByte_t1669577662_SByte_t1669577662_SByte_t1669577662PFvvEPK10MethodInfoPvPS4_
Tnh:_Array_compare_TisRaycastResult_t3360306849_m822404090_gshared
HAf:_Object_Destroy_m3118546832
t2h:_ReadOnlyCollection_1_System_Collections_Generic_IListU3CTU3E_set_Item_m519295790_gshared
ddh:_DateTime_FromTicks_m4059645178_AdjustorThunk
jSi:_Array_InternalArray__get_Item_TisClientCertificateType_t1004704908_m2297379651_gshared
dYd:_ConfigHandler_ParseTime_m1787834288
Y3b:__ZN9ShaderLab7Program27CreateFromSerializedProgramERKNS_17SerializedProgramE10ShaderTypeiP16PropertyNamesSetPK6Shader
mlh:_Array_InternalArray__ICollection_Remove_TisX509ChainStatus_t133602714_m3635989134_gshared
JWe:_Assembly_Load_m3487507613
bx:__ZNSt3__27__sort4IRNS_6__lessIN4core12basic_stringIcNS2_20StringStorageDefaultIcEEEES6_EEPS6_EEjT0_SA_SA_SA_T_
Ezk:dynCall_viiiifii
b_j:__ZN6il2cpp2gc19AppendOnlyGCHashMapINSt3__24pairIPK11Il2CppImageP11Il2CppClassEEP22Il2CppReflectionModule17ReflectionMapHashIS9_ENS2_8equal_toIS9_EEEC2Ev
aT:__Z20GetPersistentManagerv
led:_UNITY_TT_Set_Var_Design
vP:__ZN21SystemInfoStringCache16StaticInitializeEPv
m7f:_NameObjectCollectionBase_FindFirstMatchedItem_m840305173
U2h:_ReadOnlyCollection_1_System_Collections_Generic_ICollectionU3CTU3E_Remove_m1100818788_gshared
M0b:__ZNSt3__26vectorIN9ShaderLab20SerializedSubProgram15StructParameterENS_9allocatorIS3_EEE6assignIPS3_EENS_9enable_ifIXaasr21__is_forward_iteratorIT_EE5valuesr16is_constructibleIS3_NS_15iterator_traitsISA_E9referenceEEE5valueEvE4typeESA_SA_
y1h:_Collection_1_IsSynchronized_m2291009199_gshared
gpd:__ZN9Scripting11UnityEngine9Analytics21AnalyticsSessionState12CleanupProxyEv
Kpb:__ZNK13MonoBehaviour7GetNameEv
TVa:__ZN19ScriptingInvocation28AdjustArgumentsToMatchMethodEv
rii:_IndexedSet_1_Contains_m1525966688_gshared
Wy:__Z15_CheckFMODError11FMOD_RESULTPKciS1_
s7j:__ZN6il2cpp6icalls8mscorlib6SystemL16ThrowInvalidCastEPK11Il2CppClassS5_
ZSf:_HMAC_KeySetup_m661741544
Ibk:__ZN6il2cpp2vm5Field11SetValueRawEPK10Il2CppTypePvS5_b
IPh:_Latin1Encoding__ctor_m498920120
g1j:__ZN6il2cpp2vm4Type19GetGenericParameterEPK10Il2CppType
o4g:_StreamReader_Peek_m2272511193
wVg:_DateTimeFormatInfo_FillAllDateTimePatterns_m2683124783
nkd:__Z51Register_UnityEngine_CanvasGroup_get_blocksRaycastsv
yUe:_NumberFormatter_get_IsFloatingSource_m3714711779
aXh:_Type_GetConstructor_m1195697116
wd:_glBeginQuery
R5:__ZL48__ManagedRegistrationHelperFunction_VisibleLightPv
f_c:__ZN10Effector2D25CheckEffectorColliderMaskEP10Collider2DS1_
wIb:__ZN6Camera12RenderStereoENS_10RenderFlagE8CullFlagPNS_24PerformEyeRenderFunctionE
CZa:__ZN20LocalFileSystemPosix10ToAbsoluteEPKc
Yqa:__ZN20TierGraphicsSettings8TransferI19StreamedBinaryWriteILb0EEEEvRT_
gJk:b111
SUa:__Z23CollectSceneGameObjectsR13dynamic_arrayIiLj0EE
ckk:__ZN6il2cpp2vm13ComObjectBase16DisconnectObjectEj
Im:f0
dvk:_getcwd
dMc:__ZN16b2CapsuleContact6CreateEP9b2FixtureiS1_iP16b2BlockAllocator
xfa:__ZN25ThreadsafeLinearAllocatorD2Ev
xpc:__ZL50GetAndClearChangedTransformsForMultilpleSystemsJobP45GetChangedTransformsForMultipleSystemsJobDatajPK23TransformAccessReadOnlyPKyj
STa:__Z21SendMessageToEveryoneRK17MessageIdentifier11MessageData
oZ:__ZN21BillboardBatchManager16StaticInitializeEPv
k8g:_DateTime_AbsoluteDays_m4235097773
SQ:__ZN12_GLOBAL__N_138ArchiveRedirectFileSystemStaticDestroyEPv
Pji:__Z74RuntimeInvoker_RuntimeObject_RuntimeObject_RuntimeObject_SByte_t1669577662PFvvEPK10MethodInfoPvPS4_
oId:_DefaultControls_CreateScrollView_m3842770629
qHc:__ZL55__ManagedRegistrationHelperFunction_PhysicsJobOptions2DPv
IAa:__ZN12CubemapArray34UpdateFileTextureUploadInstructionEP26FileAssetUploadInstructionj
zDb:__Z23CreateSparseTextureGLES9TextureIDii14GraphicsFormati
B9c:_otv_Anchor_validate
cPc:__Z18AddCollisionReportP11Collision2DR13dynamic_arrayINS_15CollisionReportELj0EE
YSg:_CCMath_mod_m3631663509
BVh:_TimeSpan_Negate_m1889505500_AdjustorThunk
z6h:_ReadOnlyCollection_1_System_Collections_ICollection_CopyTo_m2715087453_gshared
a1a:__ZN16MemoryFileSystemD0Ev
qsd:__ZN11UnityEngine7Connect20RemoteConfigSettings7SetJSONER8JSONReadb
dJc:__ZNK12b2MotorJoint16GetReactionForceEf
m2j:_il2cpp_class_get_assemblyname
OIj:__ZN6il2cpp2vm5Class15GetEnumBaseTypeEP11Il2CppClass
Nog:_Context_set_WriteSequenceNumber_m942577065
$d:_glVertexAttrib4fv
qdg:_X509CertificateEnumerator_Reset_m4026698923
ykk:__ZNK6il2cpp5utils13VmStringUtils23CaseInsensitiveComparerclERKNSt3__212basic_stringIcNS3_11char_traitsIcEENS3_9allocatorIcEEEEPKc
wFd:_CanvasScaler_SetScaleFactor_m3006968999
ALi:__Z78RuntimeInvoker_Boolean_t97287965_Navigation_t3049316579_Navigation_t3049316579PFvvEPK10MethodInfoPvPS4_
hBa:__ZNK9Texture2D16GetNpotTexelSizeEv
mUe:_NumberFormatter_Init_m3576155222
A_a:__ZL33FileEntryInfoListToFolderContentsRKN4core12basic_stringIcNS_20StringStorageDefaultIcEEEERK19dynamic_block_arrayI13FileEntryInfoLj32EERNSt3__23setIS3_NSB_4lessIS3_EENSB_9allocatorIS3_EEEE
JZf:_LayoutUtility_GetLayoutProperty_m714717302
T2a:__ZN9GfxDevice22GetDefaultVertexBufferE26GfxDefaultVertexBufferTypej
Ujh:_Array_InternalArray__ICollection_Contains_TisInt64_t3736567304_m2911357929_gshared
qtb:__Z17BeginSplashScreenb
R7i:_Collection_1_Remove_m3022471627_gshared
uvk:___fseeko_unlocked
saa:__ZN9Scripting11UnityEngine12Experimental9Playables21TexturePlayableOutput12CleanupProxyEv
NVe:_Object_ToString_m1740002499
mvk:_sscanf
dBd:_ExecuteEvents_GetEventChain_m2404658789
oPi:_Array_Resize_TisUILineInfo_t4195266810_m3763058392_gshared
JQf:_SByte_ToString_m3584531119_AdjustorThunk
$2b:__ZN9ShaderLab16SerializedShader8TransferI19StreamedBinaryWriteILb0EEEEvRT_
wu:__ZN7mecanim9animation18CreateAvatarMemoryEPKNS0_14AvatarConstantERNS_6memory9AllocatorE
shg:_ModulusRing__ctor_m2420310199
p8g:_Convert_ToDateTime_m626620011
shf:_Enumerator_System_Collections_IDictionaryEnumerator_get_Key_m2500634048_AdjustorThunk
F4j:__ZN14dense_hash_mapI10KeyWrapperIP11Il2CppClassES2_N6il2cpp8metadata16SZArrayClassHashENS3_14EqualsComparerINS5_19SZArrayClassCompareEEENSt3__29allocatorINSA_4pairIKS3_S2_EEEEE15set_deleted_keyERSD_
bBb:__ZN18GfxFramebufferGLES18GetFramebufferNameERK20GfxRenderTargetSetup
j8:__ZN9Scripting11UnityEngine9Transform9InitProxyEv
ynk:_GC_print_block_list
A0j:__ZN6il2cpp2vm14TypeNameParser12ParseVersionERKNSt3__212basic_stringIcNS2_11char_traitsIcEENS2_9allocatorIcEEEERtSB_SB_SB_
oyk:_saveSetjmp
XWf:_InputField_MoveDown_m1455948167
uvc:__Z30Event_Get_Custom_PropCharacterP12Il2CppObject
Y_:__ZN13PlayableGraph27SchedulePlayableDestructionERK9HPlayable
M8c:_cff_get_mm_var
NCk:_glGetFramebufferAttachmentParameteriv__wrapper
YWd:_ChannelServices_GetCurrentChannelInfo_m3041604116
dbb:__Z22scripting_array_length17ScriptingArrayPtr
yPe:_SynchronizedReader_Peek_m148942882
yni:__Z95RuntimeInvoker_Void_t1185182177_RuntimeObject_Int32_t2950945753_Int32_t2950945753_RuntimeObjectPFvvEPK10MethodInfoPvPS4_
Sza:__ZN14SafeBinaryRead20TransferTypelessDataEjPvi
iLa:__ZN14SpriteRenderer18UpdateCachedSpriteEb
bgk:__ZN15dense_hashtableINSt3__24pairIK10KeyWrapperIPcES3_EES4_N6il2cpp5utils15PassThroughHashIS3_EEN14dense_hash_mapIS4_S3_SA_NS4_14EqualsComparerINS0_8equal_toIS3_EEEENS0_9allocatorIS6_EEE9SelectKeyESF_SH_E3endEv
Qma:__Z19GetActiveColorSpacev
Ead:_UNITY_tt_face_load_kern
YQd:_MonoMethodInfo_GetDeclaringType_m2924452727
hQ:__Z6StrCmpPKcS0_
MTc:__ZN16b2PrismaticJoint11EnableMotorEb
O4b:__Z21CheckGpuProgramUsable20ShaderGpuProgramType
Rhc:__ZN13ProduceHelperI14Texture2DArrayLb0EE7ProduceE10MemLabelId18ObjectCreationMode
Qhk:__ZN6il2cpp2os9Directory20GetFileSystemEntriesERKNSt3__212basic_stringIcNS2_11char_traitsIcEENS2_9allocatorIcEEEESA_iiPi
$Hg:_Array_System_Collections_IList_Add_m1063688101
U2c:__ZN20TextRenderingPrivate19NativeTextGenerator5SetupEv
kQb:__ZNK15SharedLightData24GetFinalShadowResolutionEv
SPa:__ZN12AspectRatios8TransferI18StreamedBinaryReadILb0EEEEvRT_
i6b:__ZN10GameObject14CopyPropertiesERS_
Ywc:__Z44Register_UnityEngine_GUIStyle_get_fixedWidthv
Rkh:_Array_InternalArray__ICollection_Remove_TisLink_t544317964_m1280781374_gshared
rKg:_BitConverter_DoubleWordsAreSwapped_m1474345095
pBi:__Z114RuntimeInvoker_Int32_t2950945753_Vector2_t2156229523_Vector2_t2156229523_ContactFilter2D_t3805203441_RuntimeObjectPFvvEPK10MethodInfoPvPS4_
WOg:_FixedSizeArrayListWrapper_set_Capacity_m4221053039
Pvk:_rand
pDk:_emscripten_glFramebufferRenderbuffer__wrapper
Coc:__ZN13MeshScripting10CreateMeshE21ScriptingObjectOfTypeI4MeshE
ccb:__ZN14SafeBinaryRead21TransferSTLStyleArrayINSt3__26vectorI17AnimationCurveTplIfE13stl_allocatorIS4_L18MemLabelIdentifier1ELi16EEEEEEvRT_17TransferMetaFlags
zPg:_SynchronizedArrayListWrapper_Contains_m3809499313
cqg:_HandshakeMessage_Compare_m2214647946
clh:_Array_InternalArray__ICollection_Remove_TisLabelData_t360167391_m3556246844_gshared
lTf:_HMACSHA256__ctor_m346174875
Zrf:_Color_op_Multiply_m2887457390
JSb:__Z22PrepareOptimizedPlanesPK5PlaneiPKN4math7_float4E
IM:__ZN11UnityEngine15CloudWebService17WebFileDownloaderINS0_20WebRequestRestClientENS0_23WebRequestRestHeaderMapEE10InitializeERKN4core12basic_stringIcNS5_20StringStorageDefaultIcEEEE
mZ:__ZN17UniqueIDGenerator15CreatePureIndexEv
Gfc:__Z48InitializeRectTransformAnimationBindingInterfacev
pSa:__ZNSt3__26vectorIN15ResourceManager10DependencyE13stl_allocatorIS2_L18MemLabelIdentifier52ELi16EEE6assignINS_11__wrap_iterIPS2_EEEENS_9enable_ifIXaasr21__is_forward_iteratorIT_EE5valuesr16is_constructibleIS2_NS_15iterator_traitsISC_E9referenceEEE5valueEvE4typeESC_SC_
bIj:__ZN15dense_hashtableINSt3__24pairIK10KeyWrapperIPK22Il2CppGenericParameterEP11Il2CppClassEES6_N6il2cpp5utils11PointerHashIS4_EEN14dense_hash_mapIS6_S9_SE_NS6_14EqualsComparerINS0_8equal_toIS5_EEEENS0_9allocatorISA_EEE9SelectKeyESJ_SL_E14squash_deletedEv
Cva:__ZN9ShaderLabL27GetDesiredRenderTextureDescEPK6Camera
zKc:__ZNK12b2MouseJoint17GetReactionTorqueEf
UMi:_Array_InternalArray__Insert_TisMark_t3471605523_m2854535880_gshared
foc:__ZN4Mesh24UpdateSubMeshVertexRangeEi
Wvc:__Z14GUIClipTextureP9Texture2DPhiiii
kAe:__ZL52HumanBone_t2465339518_CustomAttributesCacheGeneratorP21CustomAttributesCache
Z$d:_MethodReturnDictionary__cctor_m278392388
gKb:__ZNK9Transform18TransformDirectionERK8Vector3f
ncj:_SslStreamBase_get_CanWrite_m1622082918
zNe:__ZL80CanvasScaler_t2767979955_CustomAttributesCacheGenerator_m_ReferencePixelsPerUnitP21CustomAttributesCache
Fvh:_PrimalityTests_RabinMillerTest_m1471415870
DKh:_Enumerator_MoveNext_m2114485647_gshared
e$e:_GenericTypeParameterBuilder_GetCustomAttributes_m580748276
SOj:__ZN15dense_hashtableINSt3__24pairIK10KeyWrapperIPK11Il2CppClassEPKcEES6_N6il2cpp5utils11PointerHashIS3_EEN14dense_hash_mapIS6_S9_SE_NS6_14EqualsComparerINS0_8equal_toIS5_EEEENS0_9allocatorISA_EEE9SelectKeyESJ_SL_E12resize_deltaEjj
xxk:__ZNK10__cxxabiv120__si_class_type_info27has_unambiguous_public_baseEPNS_19__dynamic_cast_infoEPvi
xhg:_Kernel_LeftShift_m4140742987
wWe:_Assembly_GetManifestResourceInternal_m1224391897
Dna:__Z30AddDefaultStreamsToMeshBuffersR9GfxDeviceR11MeshBuffersj17ShaderChannelMaskS3_
tQ:__ZL16GetInterfaceImpl18UnityInterfaceGUID
lkk:__ZN6il2cpp6icalls8mscorlib6System15MonoCustomAttrs27GetCustomAttributesInternalEP12Il2CppObjectP20Il2CppReflectionTypeb
K8e:_InternalEnumerator_1_get_Current_m1408339225_AdjustorThunk
Ied:_UNITY_TT_Set_MM_Blend
Vba:__ZN9Scripting11UnityEngine11Application9InitProxyEv
Itb:__ZN14PreloadManager35WaitForAllAsyncOperationsToCompleteEv
qKj:__ZN13Il2CppHashMapIP9FieldInfoiN6il2cpp5utils11PointerHashIS0_EENSt3__28equal_toIS1_EENS6_9allocatorINS6_4pairIK10KeyWrapperIS1_EiEEEEEC2EjRKS5_RKS8_
rR:__ZNSt3__26__treeINS_12__value_typeIPKc11ShaderTagIDEENS_19__map_value_compareIS3_S5_27compare_tstring_insensitiveIS3_ELb1EEENS_9allocatorIS5_EEE7destroyEPNS_11__tree_nodeIS5_PvEE
Sy:__ZL31InitializeAudioScriptingClassesv
BJb:__Z14SortGUIByDepthP10GUIElementS0_
Ozf:_PlayerConnection_OnEnable_m4286555589
pnj:_UriParser__cctor_m3655686731
zZf:_LayoutRebuilder_U3Cs_RebuildersU3Em__0_m589488547
c_a:__ZNK20LocalFileSystemPosix21GetAvailableDiskSpaceEPKcRy
Zw:__ZNSt3__26__treeIiNS_4lessIiEENS_9allocatorIiEEE7destroyEPNS_11__tree_nodeIiPvEE
E2a:__ZNK9GfxDevice14GetWorldMatrixEv
WHf:_Transform_set_parent_m786917804
Wvj:_AudioSampleProvider_InternalSetScriptingPtr_m3742743270
B4f:_Slider_get_value_m739683640
AYa:__Z19scripting_array_new17ScriptingClassPtrjj
cza:__ZN6prcoreL10inner_flipILj4EEEvPhS1_j
r1b:__ZNSt3__26vectorIN9ShaderLab20SerializedSubProgram16TextureParameterENS_9allocatorIS3_EEE6assignIPS3_EENS_9enable_ifIXaasr21__is_forward_iteratorIT_EE5valuesr16is_constructibleIS3_NS_15iterator_traitsISA_E9referenceEEE5valueEvE4typeESA_SA_
tNj:__ZN13Il2CppHashMapIN6il2cpp5utils13dynamic_arrayIPK10Il2CppTypeLj4EEEPFvvENS0_8metadata19Il2CppSignatureHashENS9_22Il2CppSignatureCompareENSt3__29allocatorINSC_4pairIK10KeyWrapperIS6_ES8_EEEEEC2EjRKSA_RKSB_
SDe:__ZL104Physics2D_t1528932956_CustomAttributesCacheGenerator_Physics2D_GetRayIntersectionAll_Internal_m643548862P21CustomAttributesCache
J_j:__ZN15dense_hashtableINSt3__24pairIK10KeyWrapperIPK22Il2CppGenericParameterEPK24MonoGenericParameterInfoEES6_N6il2cpp5utils11PointerHashIS4_EEN14dense_hash_mapIS6_SA_SF_NS6_14EqualsComparerINS0_8equal_toIS5_EEEENS0_9allocatorISB_EEE9SelectKeyESK_SM_E15set_deleted_keyERKSB_
HQf:_SByte_TryParse_m2431806379
cta:__ZN6prcoreL11inner_clearILj2EEEvPhjjj
Fca:__ZN9Scripting5Unity11Collections8LowLevel6Unsafe24NativeContainerAttribute9InitProxyEv
jSf:_DSACryptoServiceProvider_get_KeySize_m786836990
VJc:__ZN12b2WheelJoint24SolvePositionConstraintsERK12b2SolverData
Mg:_emscripten_exit_fullscreen
uOi:_Array_qsort_TisBoolean_t97287965_TisBoolean_t97287965_m214793583_gshared
MJh:_Enumerator_System_Collections_IEnumerator_Reset_m1564381721_gshared
Mfc:__ZZL31RegisterRectTransformPropertiesR22GenericPropertyBindingEN39Wrapper_RectTransformAnchoredPositiony113GetFloatValueEPv
HVe:_Object_MemberwiseClone_m1474068832
Jgk:__ZN6il2cpp6icalls8mscorlib6System6String19InternalAllocateStrEi
hFc:__Z29Transfer_Blittable_ArrayFieldI8JSONRead11QuaternionfEvRT_R9ArrayInfoRK23StaticTransferFieldInfo
Gbc:__Z45Register_UnityEngine_Camera_get_targetDisplayv
Kkc:__ZNK24RendererAnimationBinding15GenerateBindingERKN4core12basic_stringIcNS0_20StringStorageDefaultIcEEEEbRN11UnityEngine9Animation14GenericBindingE
d9f:_IPv6Address__ctor_m3704187391
qsa:__Z15GetFlareManagerv
Au:__ZN8Animator13GetAvatarRootEv
uqh:_Array_InternalArray__ICollection_Add_TisResourceCacheItem_t51292791_m3851804827_gshared
Stk:___toread
xrb:__ZNSt3__26vectorI10vector_mapIiiNS_4lessIiEE13stl_allocatorINS_4pairIiiEEL18MemLabelIdentifier38ELi16EEES4_IS9_LS7_38ELi16EEE26__swap_out_circular_bufferERNS_14__split_bufferIS9_RSA_EE
Vgg:_BigInteger_get_Rng_m3283260184
_xk:___cxa_is_pointer_type
Qv:__ZN8Animator22ScriptingStringToCRC32ERK11ICallString
ZCd:_RaycastResult_ToString_m2678663776_AdjustorThunk
sSi:_Array_InternalArray__get_Item_TisKeyValuePair_2_t2530217319_m2886833132_gshared
q5:__ZL50__ManagedRegistrationHelperFunction_UnityEventBasePv
jdc:__Z34Transform_CUSTOM_SetAsFirstSiblingP12Il2CppObject
MWf:_InputField_Delete_m3471899192
FLf:_RemotingConfiguration_get_ProcessId_m2180277012
eJ:__ZN11UnityEngine15CloudWebService17SessionEventQueue14ParseEventDataERKN4core12basic_stringIcNS2_20StringStorageDefaultIcEEEE
J9f:_WebHeaderCollection_Add_m183143026
Wzb:__ZN13TranslateGLES4InitERK12GraphicsCaps16GfxDeviceLevelGL
y_g:_Int64_System_IConvertible_ToUInt16_m848637338_AdjustorThunk
Jod:__Z32CustomEventData_CUSTOM_AddUInt32P12Il2CppObjectP12Il2CppStringj
frk:__ZN6il2cpp5utils9Exception26FormatInvalidCastExceptionEPK11Il2CppClassS4_
Moh:_Array_InternalArray__IndexOf_TisLink_t544317964_m455584088_gshared
y2i:_Enumerator_get_Current_m2282646120_AdjustorThunk
n6h:_ReadOnlyCollection_1_IndexOf_m2539022912_gshared
HMe:__ZL66Selectable_t3250028441_CustomAttributesCacheGenerator_m_TransitionP21CustomAttributesCache
Krk:__ZN6il2cpp2os6Memory12AlignedAllocEjj
lCc:__ZN9JSONWrite8TransferI13dynamic_arrayIN4math12int3_storageELj0EEEEvRT_PKc17TransferMetaFlags
H5f:_Text_set_alignByGeometry_m3828822280
jlk:__ZN6il2cpp8metadataL7CompareEPK10Il2CppTypeS3_
j6f:_HybridDictionary__ctor_m1681134385
Sia:__ZN21ScalableBufferManager11GetInstanceEv
Gmb:__Z18Transfer_BlittableI18StreamedBinaryReadILb0EELb1E10ColorRGBAfEvRK29SerializationCommandArgumentsR31RuntimeSerializationCommandInfo
LVh:_TimeSpan_op_LessThan_m1594498345
O9b:__ZL27GetComponentsImplementationILb0ELi0EEbR10GameObjectbRK17CompareParametersRK39GetComponentsImplementation_ReturnValue
wqb:__ZN9Scripting36IsSystemCollectionsGenericDictionaryE17ScriptingClassPtr
vhi:_UnityEvent_1_FindMethod_Impl_m322741469_gshared
kIf:_Enumerator_get_Current_m2591725252
nW:__ZL16ReadTypeTreeImplILb0EEbR8TypeTreeRK16TypeTreeIteratorRPKhS6_i
vgg:_Interval_Contains_m110351300_AdjustorThunk
V9g:_Convert_ToInt32_m3048308591
Q$f:_RectMask2D_OnCanvasHierarchyChanged_m3195492255
neh:_DateTimeOffset_Equals_m3030958070
Vra:__ZNK22BuiltinResourceManager21GetResourceInstanceIDEPKN5Unity4TypeERKN4core12basic_stringIcNS4_20StringStorageDefaultIcEEEE
gbc:__Z42Register_UnityEngine_RectOffset_set_bottomv
msj:_AnalyticsTracker_BuildParameters_m43920649
aVg:_DateTimeFormatInfo_GetMonthName_m2034512315
GLb:__ZN28LightProbeProxyVolumeContext8CopyFromERKS_
_6h:_ReadOnlyCollection_1_System_Collections_Generic_IListU3CTU3E_Insert_m2489506856_gshared
Yha:__ZN23TransformChangeDispatch32QueueTransformChangeIfHasChangedER18TransformHierarchy
byf:_Matrix4x4_MultiplyPoint_m1575665487
yBi:__Z105RuntimeInvoker_RuntimeObject_Vector3_t3722313464_Vector3_t3722313464_Single_t1397266774_Int32_t2950945753PFvvEPK10MethodInfoPvPS4_
BCb:__ZN7ApiGLES18DeleteRenderbufferERj
NBb:__ZL23ProgramUniformMatrix4fvPK7ApiGLESjiihPKv
Ovb:__ZN7ApiGLES13CreateTextureEjj14GraphicsFormatiiiii
sJg:_Array_new_gap_m262136975
Z0b:__ZN9ShaderLab20SerializedSubProgram15MatrixParameter8TransferI14SafeBinaryReadEEvRT_
Q9b:__ZL27GetComponentsImplementationILb0ELi1EEbR10GameObjectbRK17CompareParametersRK39GetComponentsImplementation_ReturnValue
ycg:_X509Store__ctor_m275383717
FHf:_Transform_INTERNAL_get_position_m1310184257
tdd:_Round_Down_To_Grid
mQj:__ZN6il2cpp2vm13MetadataCache40AddThreadLocalStaticOffsetForFieldLockedEP9FieldInfoiRKNS_2os12FastAutoLockE
qka:__ZN13RenderTexture7ReleaseEv
GCc:__Z18Transfer_BlittableI8JSONReadLb1EN4math12int3_storageEEvRK29SerializationCommandArgumentsR31RuntimeSerializationCommandInfo
KKa:__ZN10MeshFilter23VirtualRedirectTransferER14SafeBinaryRead
bOa:__ZN12MeshRenderer17MainThreadCleanupEv
SIj:__ZN6il2cpp2vmL10InitLockedEP11Il2CppClassRKNS_2os12FastAutoLockE
n7a:__ZN22CreateGpuProgramOutput12CreateParamsEv
_z:__ZN10ObjectPoolIN4FMOD7ChannelENS0_8ChannelIEE7GetFreeEi
Ns:__ZL62__ManagedRegistrationHelperFunction_AnimatorOverrideControllerPv
l7h:_ReadOnlyCollection_1_System_Collections_IList_Insert_m177536056_gshared
i6e:_InternalEnumerator_1_System_Collections_IEnumerator_get_Current_m548105685_gshared
Nzb:__ZNK14GfxContextGLES13GetDefaultFBOEv
tLg:_Byte_System_IConvertible_ToType_m2251112646
Mrc:__Z55Register_UnityEngine_MonoBehaviour_StopCoroutineManagedv
pDi:__Z81RuntimeInvoker_Char_t3634460470_RuntimeObject_Int32_t2950945753_Int16_t2552820387PFvvEPK10MethodInfoPvPS4_
hdh:_DateTime_get_Hour_m4153505178_AdjustorThunk
ivj:_AudioExtensionManager_WriteExtensionProperties_m3028464154
Hwg:_Evidence_Equals_m1478353107
Knc:__Z13GetImagePixelI10ColorRGBAfET_PKhii13TextureFormat15TextureWrapModeS5_ii
YXi:_List_1_System_Collections_IList_set_Item_m1842844683_gshared
yji:_ObjectPool_1__ctor_m2535233435_gshared
L3j:__ZN6il2cpp2vm6Thread49CheckCurrentThreadForInterruptAndThrowIfNecessaryEv
A7g:_Convert_ToChar_m3757390865
ina:__ZNSt3__23mapIN9ShaderLab16FastPropertyNameEN18UnityPropertySheet11UnityTexEnvENS_4lessIS2_EENS_9allocatorINS_4pairIKS2_S4_EEEEEixERS9_
Pvb:__ZNK13TranslateGLES25GetTextureTargetDimensionEj
l4h:_ReadOnlyCollection_1_System_Collections_IList_Remove_m1842121503_gshared
f1g:_File_OpenRead_m2936789020
bS:__ZN9Scripting12LogExceptionE21ScriptingExceptionPtriPKcb
Bzi:__Z94RuntimeInvoker_Void_t1185182177_RuntimeObject_PlayableGraph_t3515989261_RuntimeObject_IntPtr_tPFvvEPK10MethodInfoPvPS4_
Ni:_emscripten_glVertexAttrib4f
adb:__ZN14SafeBinaryRead21TransferSTLStyleArrayI13dynamic_arrayIN4math12int3_storageELj0EEEEvRT_17TransferMetaFlags
l4b:__ZNSt3__26vectorIN20GpuProgramParameters14ConstantBufferENS_9allocatorIS2_EEE8__appendEj
gdg:_X509CertificateCollection_AddRange_m3683116910
LCi:__Z88RuntimeInvoker_RuntimeObject_RuntimeObject_SByte_t1669577662_RuntimeObject_RuntimeObjectPFvvEPK10MethodInfoPvPS4_
UXe:_CustomAttributeTypedArgument_Equals_m2261980307
z4a:__ZN9GfxDevice18SetGlobalDepthBiasEff
PSj:__ZN6il2cpp6icalls8mscorlib6System8MonoType12get_AssemblyEP20Il2CppReflectionType
$i:_emscripten_glGetPointerv
iRi:_Dictionary_2_Do_CopyTo_TisKeyValuePair_2_t3842366416_TisRuntimeObject_m1564656153_gshared
Odc:__Z14BezierExtractUfff
etb:__Z26ApplyMaterialPassWithCacheRK18SharedMaterialDataR17ShaderPassContextP6ShaderPN9ShaderLab4PassEibPKNS6_10GrabPassesEPNS6_11SubProgramsEPK22DeviceRenderStateBlock
ooe:__ZL81Camera_t4157153871_CustomAttributesCacheGenerator_Camera_RaycastTry2D_m2460696262P21CustomAttributesCache
ETe:_MulticastDelegate_KPM_m22863605
Q9e:_InternalEnumerator_1_get_Current_m1897120917_AdjustorThunk
bTe:_MonoType_ReorderParamArrayArguments_m2458683451
gNf:_FormatterConverter_ToInt16_m4282804414
Ori:__Z81RuntimeInvoker_Void_t1185182177_Int64_t3736567304_RuntimeObject_Int64_t3736567304PFvvEPK10MethodInfoPvPS4_
DDd:_StandaloneInputModule_ProcessTouchPress_m4019232747
b1g:_FileStream__ctor_m3151488352
rJg:_Array_swap_m547389985
yEa:__ZN8Renderer23VirtualRedirectTransferER14SafeBinaryRead
mZh:_UInt32_ToString_m2420423038
ZUi:_List_1_System_Collections_IList_Add_m634558835_gshared
F1g:_FileStream_get_Length_m426703983
Hmc:__Z13RegisterClassI10TagManagerEvPKc
aJj:__ZN6il2cpp2vmL15GetBitmapNoInitEP11Il2CppClassPjRjj
xy:__ZN12AudioManager5ResetEv
Kne:__ZL68DisallowMultipleComponent_t1422053217_CustomAttributesCacheGeneratorP21CustomAttributesCache
N2:__ZN6prcoreL17RemapGenericFloatI17TexFormatRGBAHalf15TexFormatRGHalfEEvPKNS_9InnerInfoE
_hk:__ZN6il2cpp6icalls8mscorlib6System11Environment20GetWindowsFolderPathEi
M7c:_UNITY_FT_RoundFix
vHc:__ZN9Scripting11UnityEngine19PhysicsJobOptions2D12CleanupProxyEv
Fok:_GC_is_heap_ptr
rqg:_HandshakeMessage_EncodeMessage_m3919107786
rwh:_ASN1_DecodeTLV_m1200977460
Ruf:_UnityEventBase_PrepareInvoke_m1785382128
dOa:__ZNK12MeshRenderer22GetTypeVirtualInternalEv
OMg:_Char_System_IConvertible_ToUInt32_m3901815580
$0f:_Scrollbar_set_onValueChanged_m346467699
mui:__Z157RuntimeInvoker_Int32_t2950945753_RuntimeObject_Int32_t2950945753_Int32_t2950945753_Int32_t2950945753_SByte_t1669577662_SByte_t1669577662_Int32U26_t1369213839PFvvEPK10MethodInfoPvPS4_
vB:__ZN4FMOD6System17setSoftwareFormatEi17FMOD_SOUND_FORMATii18FMOD_DSP_RESAMPLER
Awa:__ZN14SafeBinaryRead19TransferSTLStyleMapINSt3__23mapIN4core12basic_stringIcNS3_20StringStorageDefaultIcEEEES7_NS1_4lessIS7_EE13stl_allocatorINS1_4pairIKS7_S7_EEL18MemLabelIdentifier1ELi16EEEEEEvRT_17TransferMetaFlags
vs:__ZL49__ManagedRegistrationHelperFunction_AimConstraintPv
Umd:__ZN2UI6Canvas27UpdateEventIndexesRecursiveERi
lJ:__ZN11UnityEngine15CloudWebService16SessionContainer21PrepareDataErrorEventERN4core12basic_stringIcNS2_20StringStorageDefaultIcEEEE
TAd:_ExecuteEvents_get_pointerUpHandler_m3515704212
INg:_ArrayList_set_Item_m2003485935
fVd:_SatelliteContractVersionAttribute__ctor_m3630863995
MCd:_MouseButtonEventData_PressedThisFrame_m1060658845
Hib:__Z19TransferField_ArrayI19StreamedBinaryWriteILb0EE27Converter_SimpleNativeClassI8GUIStyleEEvRK23StaticTransferFieldInfoR31RuntimeSerializationCommandInfoRT0_
oJb:__Z27SetClippingPlaneShaderPropsR9GfxDevice
F4h:_ReadOnlyCollection_1_System_Collections_Generic_IListU3CTU3E_RemoveAt_m3969985996_gshared
wpa:__Z28BuildSingleStreamChannelInfoP11ChannelInfo17ShaderChannelMaskS1_
Mzf:_PlayerConnection_get_isConnected_m911966057
GLd:_GraphicRegistry_GetGraphicsForCanvas_m4219276355
YTe:_NumberFormatter_FastToDecHex_m699829267
dij:_PatternCompiler_MakeFlags_m1977119795
uCc:__Z35Transfer_Blittable_FixedBufferFieldI8JSONReadiEvRK29SerializationCommandArgumentsR31RuntimeSerializationCommandInfo
Dxa:__ZN15SerializeTraitsIN9ShaderLab16FastPropertyNameEE8TransferI19StreamedBinaryWriteILb0EEEEvRS1_RT_
XQj:__ZNSt3__213__vector_baseIN6il2cpp2os19SocketHandleWrapperENS_9allocatorIS3_EEED2Ev
z4d:__ZL48_Type_t3588564251_CustomAttributesCacheGeneratorP21CustomAttributesCache
fFa:__ZN28ReflectionProbeAnchorManager18RemoveCachedAnchorERK4PPtrI9TransformE
dc:invoke_viiffi
KXb:__ZN13sorted_vectorINSt3__24pairIN4core12basic_stringIcNS2_20StringStorageDefaultIcEEEEPK17MessageIdentifierEEN10vector_mapIS6_S9_NS0_4lessIS6_EENS0_9allocatorISA_EEE13value_compareESF_E10insert_oneERKSA_
_Sh:_Monitor_Monitor_wait_m3706677354
HFc:__ZN5Unity9rapidjson13GenericReaderINS0_4UTF8IcEES3_13JSONAllocatorE10ParseFalseILj0ENS0_19GenericStringStreamIS3_EENS0_15GenericDocumentIS3_S4_S4_EEEEvRT0_RT1_
Jna:__ZL13MeshExtractorPv16VertexInputMasksiR11MeshBuffersR16DrawBuffersRangeRiS5_
xAa:__ZNK12CubemapArray20GetRuntimeMemorySizeEv
uVh:_TimeSpan_FromHours_m1109641064
V1b:__Z14resize_trimmedINSt3__26vectorIN9ShaderLab18SerializedPropertyENS0_9allocatorIS3_EEEEEvRT_j
zOj:__ZN6il2cpp2vm13MetadataCache38GetMethodInfoFromMethodDefinitionIndexEi
Ezd:_EventSystem_set_current_m38955169
zrc:__Z39MonoBehaviour_CUSTOM_GetScriptClassNameP12Il2CppObject
FMe:__ZL53Selectable_t3250028441_CustomAttributesCacheGeneratorP21CustomAttributesCache
ehj:_CostDelegate_EndInvoke_m2797921932
HHa:__ZN10VertexData8TransferI24GenerateTypeTreeTransferEEvRT_
d7g:_Double_IsInfinity_m820013146
oik:__ZN13Il2CppHashMapIPK19Il2CppGenericMethodP10MethodInfoN6il2cpp8metadata23Il2CppGenericMethodHashENS6_26Il2CppGenericMethodCompareENSt3__29allocatorINS9_4pairIK10KeyWrapperIS2_ES4_EEEEEC2EjRKS7_RKS8_
LFf:_Screen_get_dpi_m495672463
URh:_UTF8Encoding_InternalGetByteCount_m2120178851
hSb:__ZL10CullLightsRK22SceneCullingParametersR11CullResults
_bh:_Convert_ToUInt64_m3170916409
Xxd:__ZN9Scripting11UnityEngine12Experimental2XR14ReferencePoint12CleanupProxyEv
m_g:_Int64_System_IConvertible_ToInt16_m4062196970_AdjustorThunk
yTe:_MonoType_GetGenericTypeDefinition_m3201894896
lcc:__Z40GetTemporaryCachePathApplicationSpecificv
$2a:__ZN9GfxDevice16EndAsyncJobFrameEv
xBi:__Z99RuntimeInvoker_Int32_t2950945753_Ray_t3785851493_RuntimeObject_Single_t1397266774_Int32_t2950945753PFvvEPK10MethodInfoPvPS4_
xad:_UNITY_tt_face_load_hhea
xZe:_DerivedType_get_Assembly_m2979298667
_k:___syscall3
nBi:__Z135RuntimeInvoker_RaycastHit2D_t2279581989_Vector2_t2156229523_Vector2_t2156229523_Single_t1397266774_Int32_t2950945753_Single_t1397266774PFvvEPK10MethodInfoPvPS4_
bl:___syscall6
dl:___syscall4
gZe:_DerivedType_GetMethods_m3787404845
s0d:_ReturnMessage__ctor_m2352989078
X1a:__ZNSt3__26__treeINS_12__value_typeIN4core12basic_stringIcNS2_20StringStorageDefaultIcEEEEPN16MemoryFileSystem4NodeEEENS_19__map_value_compareIS6_SA_NS_4lessIS6_EELb1EEE13stl_allocatorISA_L18MemLabelIdentifier55ELi16EEE7destroyEPNS_11__tree_nodeISA_PvEE
DAi:__Z67RuntimeInvoker_Boolean_t97287965_TextGenerationSettings_t1351628751PFvvEPK10MethodInfoPvPS4_
eek:__ZN6il2cpp2vm3RCW14QueryInterfaceILb1EEEP14Il2CppIUnknownP15Il2CppComObjectRK10Il2CppGuid
Zng:_TlsServerCertificateRequest__ctor_m1334974076
iGc:__ZN27PerformanceReportingManager23VirtualRedirectTransferER14SafeBinaryRead
Y9g:_Convert_ToInt32_m1613163543
U8:__ZN9Scripting11UnityEngine9Playables8Playable12CleanupProxyEv
d4h:_ReadOnlyCollection_1_System_Collections_ICollection_CopyTo_m3127175806_gshared
sl:_emscripten_glShaderBinary
fxg:_String_op_Inequality_m215368492
tYh:_UInt16_ToString_m760649087
WZa:__ZNK20LocalFileSystemPosix6ExistsERK13FileEntryData
Irf:_Camera_GetAllCameras_m668492922
PHc:__ZN7Joint2D10DeactivateE19DeactivateOperation
akd:__Z58Register_UnityEngine_Canvas_GetETC1SupportedCanvasMaterialv
KVh:_TimeSpan_op_Inequality_m2467851530
klb:__ZN17AnimationCurveTplIfE8TransferI18StreamedBinaryReadILb1EEEEvRT_
jQi:_Array_Sort_TisUIVertex_t4057497605_m3996333845_gshared
dEe:__ZL73ContactFilter2D_t3805203441_CustomAttributesCacheGenerator_maxNormalAngleP21CustomAttributesCache
LJg:_Swapper_BeginInvoke_m1688449973
vtf:_Display_get_renderingWidth_m1970428952
Xrj:_U3CTimedTriggerU3Ec__Iterator0_MoveNext_m825792986
Svi:__Z81RuntimeInvoker_Void_t1185182177_RuntimeObject_Int32_t2950945753_Int64_t3736567304PFvvEPK10MethodInfoPvPS4_
Ov:__ZNSt3__26vectorIN4core12basic_stringIcNS1_20StringStorageDefaultIcEEEE13stl_allocatorIS5_L18MemLabelIdentifier1ELi16EEE21__push_back_slow_pathIS5_EEvOT_
qsi:__Z86RuntimeInvoker_Boolean_t97287965_Int16_t2552820387_Int16_t2552820387_Int32_t2950945753PFvvEPK10MethodInfoPvPS4_
vii:_IndexedSet_1_IndexOf_m241693686_gshared
brd:__ZN11UnityEngine15PlatformWrapper30GetGraphicsDriverLibraryStringEv
NPf:_RuntimeMethodHandle_Equals_m3301340296_AdjustorThunk
KZh:_UInt64_System_IConvertible_ToSingle_m925613075_AdjustorThunk
Hmb:__Z18Transfer_BlittableI18StreamedBinaryReadILb0EELb0E4AABBEvRK29SerializationCommandArgumentsR31RuntimeSerializationCommandInfo
wSa:__ZN24GenerateTypeTreeTransfer19TransferSTLStyleMapINSt3__28multimapIN4core12basic_stringIcNS3_20StringStorageDefaultIcEEEE4PPtrI6ObjectENS1_4lessIS7_EE13stl_allocatorINS1_4pairIKS7_SA_EEL18MemLabelIdentifier52ELi16EEEEEEvRT_17TransferMetaFlags
au:__ZN16MecanimAnimation24DeleteAnimatedPropertiesERP26IAnimatedPropertyEvaluator
nDj:_CanvasRenderer_SetMaterial_m824577244
cIb:__Z14DrawGUITextureRK5RectTIfEP7Texture11ColorRGBA32P8Materiali
B4h:_ReadOnlyCollection_1_System_Collections_Generic_ICollectionU3CTU3E_Add_m2686599243_gshared
gIf:_Transform_IsChildOf_m224006092
gNc:__ZNK11b2EdgeShape7RayCastEP15b2RayCastOutputRK14b2RayCastInputRK11b2Transformi
dCc:__ZN9JSONWrite8TransferI4AABBEEvRT_PKc17TransferMetaFlags
Y$b:__ZN15dense_hashtableINSt3__24pairIKiN4core17string_with_labelILi1EEEEEi18SInt32HashFunctionN14dense_hash_mapIiS5_S7_NS0_8equal_toIiEE13stl_allocatorIS6_L18MemLabelIdentifier1ELi16EEE9SelectKeyESA_SD_E12expand_arrayEjN21dense_hash_map_traits17integral_constantIbLb0EEE
Nec:__Z13RegisterClassI15QualitySettingsEvPKc
Mr:__ZN13ConstraintJob17ConstraintJobDataD2Ev
TTc:__ZN10Collider2D13AwakeFromLoadE17AwakeFromLoadMode
Uqj:_Aes__ctor_m178909601
ZAa:__ZNK9Texture2D20GetRuntimeMemorySizeEv
v$d:_MethodCall_get_MethodSignature_m2407904958
GFc:__ZN5Unity9rapidjson13GenericReaderINS0_4UTF8IcEES3_13JSONAllocatorE9ParseTrueILj0ENS0_19GenericStringStreamIS3_EENS0_15GenericDocumentIS3_S4_S4_EEEEvRT0_RT1_
Bm:_emscripten_glUniform2iv
d5:__ZL46__ManagedRegistrationHelperFunction_ColorGamutPv
MQh:_UnicodeEncoding_CopyChars_m785272451
G3c:_UNITY_FT_Outline_Transform
A8b:__Z60Register_UnityEngine_Sprites_DataUtility_Internal_GetMinSizev
tJj:__ZN6il2cpp2vm5Class10GetMethodsEP11Il2CppClassPPv
ONb:__Z30AddDefaultStreamsToMeshBuffersR9GfxDeviceR11MeshBuffersRK16DrawBuffersRange17ShaderChannelMaskS6_
dCb:__ZN7ApiGLES17DeleteFramebufferERN2gl6HandleILNS0_10ObjectTypeE9EEES3_
vEb:__ZN15UniformTFMethod13MapBoneBufferEj
Shd:__ZN2UI14CanvasRendererD2Ev
LSi:_Array_InternalArray__get_Item_TisParameterModifier_t1461694466_m29553316_gshared
E_g:_Int64_CompareTo_m1928360444_AdjustorThunk
D$j:__ZN15dense_hashtableINSt3__24pairIK10KeyWrapperINS1_IPK9EventInfoP11Il2CppClassEEEjEES9_17ReflectionMapHashIS8_EN14dense_hash_mapIS9_jSD_NS9_14EqualsComparerINS0_8equal_toIS8_EEEENS0_9allocatorISB_EEE9SelectKeyESI_SK_E15set_deleted_keyERKSB_
Wrb:__Z9SetupArgviPPKc
rah:_Convert_ToInt64_m2075031821
Trj:_AnalyticsEventTracker_OnDisable_m1553012800
tGk:_glTexParameteri__wrapper
BAa:__ZN12CubemapArray23VirtualRedirectTransferER24GenerateTypeTreeTransfer
TW:__ZN12FileAccessor4OpenER15FileSystemEntry14FilePermission16FileAutoBehavior
Phk:__ZN6il2cpp2os9Directory6CreateERKNSt3__212basic_stringIcNS2_11char_traitsIcEENS2_9allocatorIcEEEEPi
Vha:__ZN23TransformChangeDispatch32QueueTransformChangeIfHasChangedERK15TransformAccess
sWe:_Assembly_get_FullName_m293988418
l_c:__ZN22WorldContactListener2D8PreSolveEP9b2ContactPK10b2Manifold
rqb:__ZN14SafeBinaryRead20OverrideRootTypeNameEPKc
EGc:__ZN27PerformanceReportingManager18ActiveSceneChangedEPS_P10UnitySceneS2_
B:tempValue
usk:__ZN6il2cpp8metadata24Il2CppGenericContextHash4HashEPK20Il2CppGenericContext
Y7e:_InternalEnumerator_1_get_Current_m356936020_AdjustorThunk
MIb:__ZN6Camera21RenderODSWorldTextureERK11CullResultsRK19SharedRendererSceneR17ShaderPassContextNS_10RenderFlagE
TZg:_Int32_ToString_m141394615_AdjustorThunk
ES:__Z29scripting_class_from_fullnamePKcS0_S0_
A0g:_Directory_GetCurrentDirectory_m219218555
fGg:_SmallXmlParser_UnexpectedEndError_m1914362401
P6a:__ZN14DelayedDeletorI15dense_hashtableINSt3__24pairIK9TextureIDiEES3_14GfxGenericHashIS3_EN14GfxDoubleCacheIS3_iS7_NS1_8equal_toIS3_EEN31GfxDoubleCacheConcurrencyPolicy11LocklessGetE42GfxDoubleCacheDefaultEmptyDeletedGeneratorIS3_EE9SelectKeyESA_13stl_allocatorIS5_L18MemLabelIdentifier24ELi16EEEEclEv
rad:_UNITY_FT_Stream_ReadAt
Vvj:_AudioSampleProvider_Dispose_m1993565764
JUh:_TimeSpan__ctor_m1896986612_AdjustorThunk
hEg:_ArgumentException__ctor_m1216717135
TCf:_Ray_ToString_m1732834890_AdjustorThunk
TBc:__ZN9JSONWrite8TransferI13dynamic_arrayI5RectTIfELj0EEEEvRT_PKc17TransferMetaFlags
OXi:_List_1_System_Collections_IList_Contains_m3860993176_gshared
nG:__ZN11AudioModule22CreateAudioClipFromWWWEP10IWWWStreamPKcbbi
Uhc:__ZN9Texture2DC2E10MemLabelId18ObjectCreationMode
nvb:__Z17DebugStringToFileIA59_cEvRKT_iPKci15LogMessageFlagsiiPFvRK11CppLogEntryE
AOf:_ObjectRecord_get_IsUnsolvedObjectReference_m1163921033
xYh:_UInt32_System_IConvertible_ToBoolean_m1763673183_AdjustorThunk
Luf:_UnityEvent_AddListener_m2276267359
eta:__ZN6prcoreL11inner_clearILj4EEEvPhjjj
zHj:_NativeTypeAttribute__ctor_m1677513894
uN:__GLOBAL__sub_I_Runtime_SceneManager_0_cpp
Znk:_GC_initialize_offsets
X_:__ZNK8Playable6HandleEv
jVf:_SetPropertyUtility_SetColor_m2229203028
TU:__ZN14MessageHandler28MessageIDToMessageIdentifierEi
kIa:__ZNK11SpriteAtlas20GetRuntimeRenderDataEPK6Sprite
q0g:_FileSystemInfo__ctor_m3035148496
VYc:__Z13RegisterClassI17CapsuleCollider2DEvPKc
kZg:_Int32_System_IConvertible_ToDecimal_m2190376994_AdjustorThunk
b7:__ZL43__ManagedRegistrationHelperFunction_Vector4Pv
C$g:_InvalidOperationException__ctor_m2734335978
ew:__Z51Register_UnityEngine_Animator_get_hasBoundPlayablesv
Id:emscriptenWebGLGetUniform
Bo:FUNCTION_TABLE_iiiiiiiiiii
eoj:_GUI_CallWindowDelegate_m3309453386
K8c:_cff_set_mm_blend
$Tb:__ZL10CleanUpJobP20CullingGroupsJobData
m0g:_DirectoryInfo_get_Exists_m3142069876
JKa:__ZN10MeshFilter23VirtualRedirectTransferER24GenerateTypeTreeTransfer
Oec:__Z13RegisterClassI16LightmapSettingsEvPKc
VHb:__ZN13RenderManager15BatchModeUpdateEv
vcg:_X509Chain_get_CertificateAuthorities_m804805415
rOb:__Z14SetupLightmapsRK8Vector4fS1_R17ShaderPassContext
WDe:__ZL71ContactFilter2D_t3805203441_CustomAttributesCacheGenerator_useLayerMaskP21CustomAttributesCache
ZEf:_Vector2_get_one_m738793577
GVc:__ZN10ClipperLib7Clipper15SetWindingCountERNS_5TEdgeE
Onc:__ZNK4Mesh14GetIndexFormatEv
fpd:__ZN9Scripting11UnityEngine9Analytics21AnalyticsSessionState9InitProxyEv
wdk:__ZN14dense_hash_mapI10KeyWrapperIP12Il2CppObjectEN6il2cpp2gc9CachedCCWENS4_5utils11PointerHashIS1_EENS3_14EqualsComparerINSt3__28equal_toIS2_EEEENSB_9allocatorINSB_4pairIKS3_S6_EEEEE13set_empty_keyERSH_
ld:_glVertexAttribIPointer
iQh:_StringBuilder_ToString_m3317489284
p8b:__ZNK6Sprite10GetPaddingE20SpriteRenderDataMode
rlh:_Array_InternalArray__ICollection_Remove_TisUInt32_t2560061978_m733727733_gshared
aRf:_CryptographicException__ctor_m503735289
Z1g:_Stream_EndRead_m1896469262
gki:__Z93RuntimeInvoker_Boolean_t97287965_Int32_t2950945753_SByte_t1669577662_ExceptionU26_t3600731591PFvvEPK10MethodInfoPvPS4_
vLb:__ZN14qsort_internal5QSortIP15RODataDepthPassi17ROSorterDepthPassEEvT_S4_T0_T1_
abd:_UNITY_ft_glyphslot_alloc_bitmap
x2h:_ReadOnlyCollection_1_System_Collections_IList_Add_m3642938800_gshared
xrg:_RSASslSignatureDeformatter_SetHashAlgorithm_m895570787
bR:__ZL36TransformAccessArray_InitializeClassPv
ugj:_X509CrlEntry__ctor_m4013514048
$xi:__Z87RuntimeInvoker_Color_t2555686324_Color_t2555686324_Color_t2555686324_Single_t1397266774PFvvEPK10MethodInfoPvPS4_
Qfd:_ft_raster1_render
Ssc:__Z47Register_UnityEngine_Mesh_RecalculateBoundsImplv
m3a:__ZN9GfxDevice27UpdateComputeSkinPoseBufferEP9GfxBufferP12SkinMeshInfo
Hwk:__ZNKSt3__221__basic_string_commonILb1EE20__throw_length_errorEv
AFh:_EqualityComparer_1_System_Collections_IEqualityComparer_Equals_m245992594_gshared
cph:_Array_InternalArray__IndexOf_TisParameterModifier_t1461694466_m1227120810_gshared
NCb:__ZN18GfxFramebufferGLES13ReadbackImageER14ImageReferenceiiiiii
Jyc:__ZN5Unity9rapidjson6WriterI16TempBufferWriterNS0_4UTF8IcEES4_13JSONAllocatorE11WriteStringEPKcj
m3:__ZN6prcoreL12RemapGenericI17TexFormatARGB888815TexFormatRGB565EEvPKNS_9InnerInfoE
Jz:__ZN4FMOD7Channel19setReverbPropertiesEPK29FMOD_REVERB_CHANNELPROPERTIES
Qsj:_StandardEventPayload_GetParameters_m2672427676
l4g:_StreamReader_Dispose_m156389394
sU:__ZN13MonoBehaviour22GetScriptFullClassNameEv
Kxc:__ZNSt3__26vectorIN10GUIManager16GUIObjectWrapperENS_9allocatorIS2_EEE21__push_back_slow_pathIS2_EEvOT_
Paj:_RIPEMD160Managed_JJ_m112143231
HKb:__ZN13BatchRendererC2ER15RenderLoopStatsRK15RenderNodeQueuebb
L1a:__ZNK16MemoryFileSystem9EnumerateEPKcP19dynamic_block_arrayI13FileEntryInfoLj32EEbPPv19FileEnumerationFlag
eqb:__ZN13MonoBehaviour9CallAwakeEv
Usa:__ZN20SphericalHarmonicsL211AddWeightedERKS_f
jni:__Z82RuntimeInvoker_RuntimeObject_Int64_t3736567304_Int64_t3736567304_Int64_t3736567304PFvvEPK10MethodInfoPvPS4_
Leb:__Z19TransferField_ArrayI17RemapPPtrTransfer27Converter_SimpleNativeClassI8GUIStyleEEvRK23StaticTransferFieldInfoR31RuntimeSerializationCommandInfoRT0_
xzc:__ZN9JSONWrite8TransferI10ColorRGBAfEEvRT_PKc17TransferMetaFlags
xud:__ZN11UnityEngine9Analytics22EventLimitResumedEventC2EjRKN4core12basic_stringIcNS2_20StringStorageDefaultIcEEEEb
NU:__Z25scripting_method_get_name18ScriptingMethodPtr
Irg:_SslCipherSuite_ComputeKeys_m661027754
BAf:_Object_set_name_m291480324
$fh:_Decimal_Equals_m2486655999
$nk:_GC_exit_check
cbi:__ZN16VirtFuncInvoker2Ii19Color32_t2600501292S0_E6InvokeEjP12Il2CppObjectS0_S0_
OOb:__Z34SetupObjectBakedOcclusionInForwardbRK15SharedLightDataRK26SharedLightmapSettingsDataRK15LightmapIndicesR17ShaderPassContext
mxh:_DSAManaged_get_Random_m923751780
fR:__ZL29TransformAccessChangeCallbackPK15TransformAccessj
lJf:_Vector3_set_Item_m1772472431_AdjustorThunk
ofg:_Interpreter_PopulateGroup_m4042796257
hvd:__ZN9Scripting11UnityEngine10Networking18CertificateHandler9InitProxyEv
Sxd:__ZN9Scripting11UnityEngine12Experimental2XR13TrackableType9InitProxyEv
SWh:_Type_GetProperty_m3414567179
y8j:__ZN6il2cpp2vm13LivenessState25FieldCanContainReferencesEP9FieldInfo
cYb:__ZNSt3__26vectorINS_4pairIN4core12basic_stringIcNS2_20StringStorageDefaultIcEEEES6_EE13stl_allocatorIS7_L18MemLabelIdentifier38ELi16EEE6insertENS_11__wrap_iterIPKS7_EERSD_
xvf:_RenderPipelineManager_DoRenderLoop_Internal_m3799666479
Klc:__Z13RegisterClassI14PlayerSettingsEvPKc
Jte:__ZL79Object_t631007953_CustomAttributesCacheGenerator_Object_Instantiate_m4029422268P21CustomAttributesCache
h8i:_Collection_1_System_Collections_IList_IndexOf_m3894953546_gshared
Gej:_PKCS12_get_Certificates_m26161562
Y6f:_NameObjectCollectionBase_Init_m2525481323
NNb:__ZN15SkyboxGenerator28GetCubemapSkyboxVertexFormatEv
Z5a:__ZN19ShaderPropertySheet24SetTextureWithExplicitIDERK23FastTexturePropertyNameP7Texture9TextureID
zNh:_List_1_Insert_m1582252370_gshared
Mjk:__ZN6il2cpp2vm6String8NewUtf16EPKDsi
ZPf:_SByte_System_IConvertible_ToByte_m2268214252_AdjustorThunk
whk:__ZN6il2cpp2os10ThreadImpl12QueueUserAPCEPFvPvES2_
Klj:_RegularExpression__ctor_m119502265
Mud:__ZN22BaseUnityConnectClient10QueueEventERN11UnityEngine15CloudWebService17CloudServiceEventEPKcjb
C0f:_DelegatePInvokeWrapper_RaycastAllCallback_t1884415901
C4h:_ReadOnlyCollection_1_System_Collections_Generic_ICollectionU3CTU3E_Clear_m522482168_gshared
bZc:__ZN13ProduceHelperI17PhysicsMaterial2DLb0EE7ProduceE10MemLabelId18ObjectCreationMode
H_d:_ConstructionCall_InitMethodProperty_m2021094586
Tqc:__Z27Texture_CUSTOM_GetDataWidthP12Il2CppObject
iPc:__ZN7b2World19ContactsCollideTaskEv
Odd:_UNITY_FT_Hypot
GNe:__ZL74CanvasScaler_t2767979955_CustomAttributesCacheGenerator_m_DefaultSpriteDPIP21CustomAttributesCache
e2j:_il2cpp_class_is_abstract
Cf:_emscripten_glGetError
m_j:__ZN15dense_hashtableINSt3__24pairIK10KeyWrapperIPK14Il2CppAssemblyEPK22Il2CppMonoAssemblyNameEES6_N6il2cpp5utils11PointerHashIS4_EEN14dense_hash_mapIS6_SA_SF_NS6_14EqualsComparerINS0_8equal_toIS5_EEEENS0_9allocatorISB_EEE9SelectKeyESK_SM_E14squash_deletedEv
MFg:_SmallXmlParser__ctor_m202236734
LA:__Z14FMOD_FILE_SeekPvjS_
K_f:_MaskableGraphic_OnDisable_m1757789159
Nta:__ZN7TextureC2E10MemLabelId18ObjectCreationMode
zYf:_LayoutGroup__ctor_m2162961217
Qod:__Z56Register_UnityEngine_Analytics_CustomEventData_AddStringv
Zld:__ZZN2UI6Canvas15InitializeClassEvEN39FunctorImpl_1449kCanvasHierarchyChanged4CallEPviR11MessageData
kVb:__ZNK13RenderTexture32CalculateNeedsInvertedProjectionEv
p_b:__ZN10systeminfo18GetOperatingSystemEv
Kf:emscriptenWebGLGet
gX:__Z19CanReplaceComponentRN5Unity9ComponentEPKNS_4TypeEPN4core12basic_stringIcNS5_20StringStorageDefaultIcEEEE
MQe:_UnmanagedMemoryStream_Flush_m1540584491
iXg:_GuidParser_ParseGuid2_m1914838819
Fjc:__ZN12CubemapArray11InitTextureEiii13TextureFormatb
B8b:__Z17GetSceneBuildInfoRKN4core12basic_stringIcNS_20StringStorageDefaultIcEEEEiR14SceneBuildInfo
O9d:__ZL70ReliabilityContractAttribute_t502331440_CustomAttributesCacheGeneratorP21CustomAttributesCache
I2e:_InternalEnumerator_1_System_Collections_IEnumerator_get_Current_m55999184_gshared
HKd:_Graphic_get_depth_m815589653
Gnj:_Event_set_displayIndex_m1342258734
YYf:_LayoutGroup_SetLayoutInputForAxis_m2458344630
BOb:__ZL24AssignProjectorQueuesJobP30AssignProjectorQueuesJobHeader
ATd:_ParameterModifier_t1461694466_marshal_pinvoke
C4b:__ZNSt3__26vectorIN9ShaderLab20SerializedSubProgram15StructParameterENS_9allocatorIS3_EEE21__push_back_slow_pathIS3_EEvOT_
tYg:_Int16_System_IConvertible_ToUInt32_m3410279543
p4b:__ZN9ShaderLab20SerializedSubProgram14SetConstBufferEPKci
dVj:__ZN6il2cpp2os4File5CloseEPNS0_10FileHandleEPi
oNj:__ZNSt3__27__sort5IRN6il2cpp5utils11collections13ArrayValueMapIPK10Il2CppType17Il2CppInteropData26InteropDataToTypeConverterNS1_8metadata14Il2CppTypeLessENSA_26Il2CppTypeEqualityComparerEE12SortComparerEPS8_EEjT0_SH_SH_SH_SH_T_
_5c:_cf2_getStdVW
bYh:_UInt16_CompareTo_m2664746316_AdjustorThunk
i2a:__ZN9GfxDevice13SetActiveTierE12GraphicsTier
jEc:__Z29Transfer_Blittable_ArrayFieldI8JSONReadjEvRT_R9ArrayInfoRK23StaticTransferFieldInfo
fok:_GC_check_finalizer_nested
qg:__setLetterbox
R2f:_ScrollRect_OnScroll_m3861066534
epf:_Dictionary_2_ToTKey_m224697230_gshared
pwe:__ZL72FormerlySerializedAsAttribute_t2859083114_CustomAttributesCacheGeneratorP21CustomAttributesCache
yUf:_OnValidateInput_Invoke_m1009124904
zij:_PatternCompiler_EmitFastRepeat_m3012952683
YMa:__ZNSt3__26vectorI17BlendShapeChannelNS_9allocatorIS1_EEE6assignINS_11__wrap_iterIPS1_EEEENS_9enable_ifIXaasr21__is_forward_iteratorIT_EE5valuesr16is_constructibleIS1_NS_15iterator_traitsISA_E9referenceEEE5valueEvE4typeESA_SA_
ovb:__Z12SetGfxDeviceP9GfxDevice
i_b:__ZN11TimeManager11GetRealtimeEv
fB:__ZN29AudioEffectInternalDefinitionC2EP26UnityAudioEffectDefinitionb
B9h:_ReadOnlyCollection_1_System_Collections_IList_Remove_m2434650390_gshared
uYh:_UInt16_ToString_m3056878594_AdjustorThunk
lgg:_Interval_get_IsSingleton_m3386290029
z1j:__ZNSt3__2plIcNS_11char_traitsIcEENS_9allocatorIcEEEENS_12basic_stringIT_T0_T1_EERKS9_PKS6_
$Gf:_Time_get_unscaledDeltaTime_m4270080131
usd:__ZN18UnityConnectClient27OnPlayerSessionStateChangedEjyy
hza:_stbir_resize
qoh:_Array_IndexOf_TisCustomAttributeTypedArgument_t2723150157_m3158556463_gshared
cjh:_Environment_GetOSVersionString_m407782784
tCg:_DecoderExceptionFallback_Equals_m1082173956
s8d:__ZL69Assembly_t_CustomAttributesCacheGenerator_Assembly_GetName_m981771927P21CustomAttributesCache
I5:__ZL59__ManagedRegistrationHelperFunction_AsyncGPUReadbackRequestPv
Kpe:__ZL93Mesh_t3648964284_CustomAttributesCacheGenerator_Mesh_GetAllocArrayFromChannelImpl_m3084065604P21CustomAttributesCache
lMc:__ZN24b2ChainAndCapsuleContact6CreateEP9b2FixtureiS1_iP16b2BlockAllocator
_$a:__Z37ReadDirectoryInfo_UnityWebAndUnityRawR12FileAccessorRKN20ArchiveStorageHeader6HeaderERNS1_13DirectoryInfoE
sR:__ZNSt3__26__treeINS_12__value_typeIPKciEENS_19__map_value_compareIS3_S4_15compare_tstringIS3_ELb1EEENS_9allocatorIS4_EEE7destroyEPNS_11__tree_nodeIS4_PvEE
ush:_Array_InternalArray__Insert_TisIntPtr_t_m189626842_gshared
Abg:_X509Certificate2_get_IssuerName_m1277209535
oaj:_RijndaelManaged_CreateEncryptor_m263736311
sLb:__ZN20DynamicPropertySheet14SetValueQueuedEN9ShaderLab16FastPropertyNameEN19ShaderPropertySheet12PropertyTypeEjNS2_8SetFlagsE
quf:_InvokableCallList_ClearPersistent_m1904264973
orb:__ZN25PathNamePersistentManagerD2Ev
RSa:__ZN17PersistentManager48IntegrateObjectAndUnlockIntegrationMutexInternalEi
J1:__ZZ29InitializeSortingGroupManagerPvEN44PostLateUpdateSortingGroupsUpdateRegistrator7ForwardEv
oHe:__ZL55EventTrigger_t1076084509_CustomAttributesCacheGeneratorP21CustomAttributesCache
yxg:_SecurityElement_SearchForChildByTag_m900466299
Kp:__ZN6Object12SetHideFlagsENS_9HideFlagsE
tLc:__ZN9b2Fixture11SynchronizeEP12b2BroadPhaseRK11b2TransformS4_
Tah:_Convert_ToSingle_m3227075028
qDk:_emscripten_glGetFramebufferAttachmentParameteriv__wrapper
AUb:__ZN13RendererScene15InitializeUmbraEv
fra:__Z28CalculateGlobalMatrixInverse23TransformAccessReadOnly
fIh:_GenericEqualityComparer_1_Equals_m3457564127_gshared
nhg:_BigInteger_ModInverse_m2426215562
pCg:_DecoderExceptionFallback__ctor_m4044614564
RQe:_LocalDataStoreSlot__cctor_m644942532
ssk:__ZN6il2cpp6icalls8mscorlib6System6Object7GetTypeEP12Il2CppObject
xSd:_MonoProperty_CachePropertyInfo_m2968057423
pvd:__ZNK25UnityWebRequestJavaScript18GetDownloadedBytesEv
RCf:_Ray_GetPoint_m1852405345_AdjustorThunk
stb:__Z21BeginSplashScreenFadev
Bvd:__ZN12HeaderHelper14SetUnvalidatedERKN4core12basic_stringIcNS0_20StringStorageDefaultIcEEEES6_b
nz:__ZN4FMOD6SoundI7releaseEv
XKa:__ZN14SpriteRenderer13AwakeFromLoadE17AwakeFromLoadMode
B7c:_cff_parse_num
C0a:__ZN10MemoryFile9SetLengthEy
Rgb:__ZN5RectTIiE8TransferI24GenerateTypeTreeTransferEEvRT_
ASg:_Exception_get_ClassName_m2428844642
Jqb:__Z28scripting_class_is_interface17ScriptingClassPtr
Hh:_glTexStorage2D
gUg:_CultureInfo_ConstructInternalLocaleFromName_m4012802696
bwa:__ZNK9ShaderLab10SubProgram14EnsureCompiledEv
d0e:_MethodBuilder_GetGenericArguments_m1765425737
ydh:_DateTime_CompareTo_m3687348273
Wmk:_GC_push_marked
Xdh:_DateTime_ToUniversalTime_m1945318289_AdjustorThunk
H9g:_Convert_ToInt16_m1336719169
DU:__Z18BuildScriptClassId17ScriptingClassPtr
UBj:_TextGenerator_Init_m1168488231
k_a:__ZL31DeleteLastPathNameComponentImplRKN4core12basic_stringIcNS_20StringStorageDefaultIcEEEEPKc
Qeh:_DBNull_System_IConvertible_ToUInt64_m4072736670
xpd:__ZN18UnityConnectClient15GetCloudServiceEv
vcb:__Z29Transfer_Blittable_ArrayFieldI14SafeBinaryRead5RectTIiEEvRT_R9ArrayInfoRK23StaticTransferFieldInfo
X6e:_InternalEnumerator_1_get_Current_m2698009637_gshared
RQj:__ZN6il2cpp2os19SocketHandleWrapperD2Ev
RLc:__ZN15b2CircleContact6CreateEP9b2FixtureiS1_iP16b2BlockAllocator
Dqb:__ZL28SerializationCommandGroupForRK31TransferFunctionScriptingTraits17ScriptingClassPtr17ScriptingFieldPtrRK20CoreScriptingClasses
bga:__ZN10TagManager32RegisterDefaultTagsAndLayerMasksEv
DUh:_WaitHandle_Dispose_m738127030
mti:__Z50RuntimeInvoker_Double_t594665363_Int32_t2950945753PFvvEPK10MethodInfoPvPS4_
QCi:__Z104RuntimeInvoker_Void_t1185182177_Color_t2555686324_Single_t1397266774_SByte_t1669577662_SByte_t1669577662PFvvEPK10MethodInfoPvPS4_
nMh:_Enumerator_System_Collections_IEnumerator_get_Current_m1540440674_gshared
uyg:_Single_System_IConvertible_ToInt16_m809233024_AdjustorThunk
Sod:__Z56Register_UnityEngine_Analytics_CustomEventData_AddUInt32v
Xuk:_fmodf
k$c:__Z75Register_UnityEngine_Physics2D_GetRayIntersectionNonAlloc_Internal_Injectedv
Vzb:__ZN4gles8InitCapsEP7ApiGLESP12GraphicsCapsR16GfxDeviceLevelGL
zza:__ZN6prcore14BlitImageFloatERK14ImageReferenceRS0_NS0_8BlitModeE
Asa:__Z24CalculateVertexLightDataRK15SharedLightDataR14GfxVertexLight
pi:_glEnable
AYj:__ZN15dense_hashtableINSt3__24pairIK10KeyWrapperINS1_IPK12PropertyInfoP11Il2CppClassEEEjEES9_17ReflectionMapHashIS8_EN14dense_hash_mapIS9_jSD_NS9_14EqualsComparerINS0_8equal_toIS8_EEEENS0_9allocatorISB_EEE9SelectKeyESI_SK_E15insert_noresizeERKSB_
Iaa:__ZN9Scripting11UnityEngine33ExcludeFromObjectFactoryAttribute12CleanupProxyEv
Zva:__ZNK9ShaderLab7Program28BeginReadUnsupportedVariantsEv
Oda:__ZN12CachedWriter11Align4WriteEv
uRa:__ZNSt3__26vectorIN30RuntimeInitializeOnLoadManager9ClassInfoE13stl_allocatorIS2_L18MemLabelIdentifier13ELi16EEE7reserveEj
Jzc:__Z35Transfer_Blittable_FixedBufferFieldI9JSONWriteiEvRK29SerializationCommandArgumentsR31RuntimeSerializationCommandInfo
vIh:_Enumerator__ctor_m1590062855_AdjustorThunk
k$j:__ZN14dense_hash_mapI10KeyWrapperINSt3__24pairIPK10MethodInfoP11Il2CppClassEEEj17ReflectionMapHashIS8_ENS9_14EqualsComparerINS1_8equal_toIS8_EEEENS1_9allocatorINS2_IKS9_jEEEEEC2EjRKSB_RKSF_
oQe:_UnexceptionalStreamReader_Peek_m1842169584
Bqd:__ZN11UnityEngine7Connect15DeviceInfoEvent16CollectExtraInfoEv
Aqf:_Bounds_GetHashCode_m1844059663_AdjustorThunk
TLe:__ZL66Navigation_t3049316579_CustomAttributesCacheGenerator_m_SelectOnUpP21CustomAttributesCache
JJf:_Vector4_Equals_m1779210055_AdjustorThunk
ach:_Convert_ChangeType_m739676612
ZFb:__ZN20ArchiveStorageReader10InitializeER15FileSystemEntryyb
$kk:__ZThn8_N6il2cpp2vm13CachedCCWBaseINS0_13ManagedObjectEE6AddRefEv
BOd:_TypeBuilder_CreateType_m3375483507
svh:_ModulusRing_BarrettReduction_m167376748
rLf:_RemotingServices_GetRealProxy_m2081098851
Vwh:_BlockProcessor_Core_m189015002
yDk:_emscripten_glScissor__wrapper
Fo:FUNCTION_TABLE_viifi
Go:FUNCTION_TABLE_viiff
jFg:_X501__cctor_m1166912714
o4d:__ZL37Type_t_CustomAttributesCacheGeneratorP21CustomAttributesCache
ut:__ZN9Scripting11UnityEngine14AnimationState9InitProxyEv
qOc:__ZNSt3__26__sortIRN18Overlap2DQueryBase29ColliderHitsByDepthComparitorEPP10Collider2DEEvT0_S7_T_
arf:_Bounds_ToString_m4208690781
j0j:__ZN6il2cpp2vm14TypeNameParser5ParseEb
nRe:_Math_Sqrt_m1297338011
B4g:_StreamWriter_Initialize_m3490883444
dXh:_Type_GetGenericArguments_m3500465462
pQj:__ZN15dense_hashtableINSt3__24pairIK10KeyWrapperIP9FieldInfoEiEES5_N6il2cpp5utils11PointerHashIS3_EEN14dense_hash_mapIS5_iSB_NS5_14EqualsComparerINS0_8equal_toIS4_EEEENS0_9allocatorIS7_EEE9SelectKeyESG_SI_E12resize_deltaEjj
cud:__ZN23UnityPurchasingSettingsC2Ev
FQd:_Module_IsDefined_m2423524910
$Ye:_DerivedType_create_unmanaged_type_m747846525
FBe:__ZL60EventType_t3528516131_CustomAttributesCacheGenerator_repaintP21CustomAttributesCache
Tka:__ZN17GPUFenceInternals7ReleaseEv
GMe:__ZL66Selectable_t3250028441_CustomAttributesCacheGenerator_m_NavigationP21CustomAttributesCache
Tnc:__ZN17MaterialScripting18CreateWithMaterialE21ScriptingObjectOfTypeI8MaterialEPS1_
lVb:__ZL10RenderFaceR9GfxDeviceR18MaterialStateCacheP13RenderTextureiif
poh:_Array_IndexOf_TisCustomAttributeNamedArgument_t287865710_m2817957199_gshared
J3h:_ReadOnlyCollection_1_System_Collections_IList_RemoveAt_m1980090087_gshared
Vdj:_ExtendedKeyUsageExtension_ToString_m2116504780
YVa:__ZNK5Unity9Component38MarkGameObjectAndComponentDependenciesER27GarbageCollectorThreadState
R$g:_BinaryReader_Read_m3708759962
cV:__ZNK11TypeManager15ClassNameToRTTIEPKcb
m5:__ZL57__ManagedRegistrationHelperFunction_DefaultExecutionOrderPv
Azb:__ZN9GfxDevice26CreateDefaultVertexBuffersEv
SEk:_emscripten_glVertexAttrib2fv__wrapper
APe:_SynchronizedReader_ReadToEnd_m2160105378
jCa:__ZN4crnd12symbol_codec32decode_receive_static_data_modelERNS_25static_huffman_data_modelE
sic:__ZN18ScriptingArguments8AddFloatEf
NMd:_Image_set_fillOrigin_m469806249
pqd:__ZN11UnityEngine15PlatformWrapper16GetVRRenderScaleEv
JAc:__Z18Transfer_BlittableI9JSONWriteLb0EaEvRK29SerializationCommandArgumentsR31RuntimeSerializationCommandInfo
GI:__ZN11UnityEngine15CloudWebService14DataDispatcher34OnSessionContainerArchivedAndReadyERNS0_16SessionContainerE
Hzf:_ConnectionChangeEvent__ctor_m764126802
UIc:__ZN7b2World11CreateJointEPK10b2JointDef
ZTd:_ResolveEventHandler_Invoke_m1337322179
fLh:_Enumerator_VerifyState_m2621680056_gshared
Emj:_UriParser_InternalRegister_m3643767086
H$b:__ZN14SafeBinaryRead19TransferSTLStyleMapINSt3__23mapIN4core12basic_stringIcNS3_20StringStorageDefaultIcEEEEiNS1_4lessIS7_EENS1_9allocatorINS1_4pairIKS7_iEEEEEEEEvRT_17TransferMetaFlags
qcd:_gray_move_to
Meh:_DBNull_System_IConvertible_ToSingle_m13713620
kNg:_Char_ToLowerInvariant_m1926695830
F3h:_ReadOnlyCollection_1_System_Collections_IList_Contains_m1327645028_gshared
_Md:_Image_GetDrawingDimensions_m3060965396
Aze:__ZL69FontTextureRebuildCallback_t2467502454_CustomAttributesCacheGeneratorP21CustomAttributesCache
wXh:_TypeLoadException__ctor_m1154572625
Lxa:__ZNSt3__27__sort4IRPFbRKNS_4pairIN9ShaderLab16FastPropertyNameE10ColorRGBAfEES7_EPS5_EEjT0_SC_SC_SC_T_
Mog:_Context_get_WriteSequenceNumber_m1115956887
tRi:_Dictionary_2_Do_ICollectionCopyTo_TisKeyValuePair_2_t2401056908_m1169495264_gshared
I0e:_OpCodes__cctor_m3821715395
LGd:_ContentSizeFitter__ctor_m2349275633
_na:__Z26TransformVerticesInnerLoopILb1ELb0ELb0EEvPhRK10Matrix4x4fRK10Matrix3x3fjPKhiS8_ii25GfxTransformVerticesFlagsj
aFc:__ZN8JSONRead8TransferI9BoundsIntEEvRT_PKc17TransferMetaFlagsb
ob:invoke_viidi
M0a:__ZN25SingleBlockMemoryFileData9SetLengthEy
UPi:_Array_Sort_TisOrderBlock_t1585977831_m2922111197_gshared
yKd:_Graphic_OnRectTransformDimensionsChange_m3695755375
$Pf:_SByte_System_IConvertible_ToChar_m1489191771_AdjustorThunk
dz:__ZN9AudioClip7CleanupEv
Flc:__Z13RegisterClassI18DelayedCallManagerEvPKc
y5j:__ZNK15dense_hashtableINSt3__24pairIK10KeyWrapperIP11Il2CppClassES4_EES5_N6il2cpp8metadata16SZArrayClassHashEN14dense_hash_mapIS5_S4_SA_NS5_14EqualsComparerINS9_19SZArrayClassCompareEEENS0_9allocatorIS7_EEE9SelectKeyESE_SG_E12test_deletedEj
R9g:_Convert_ToInt16_m1223489986
DDc:__Z18Transfer_BlittableI8JSONReadLb0EdEvRK29SerializationCommandArgumentsR31RuntimeSerializationCommandInfo
PZd:_SynchronizationAttribute_EnterContext_m1660729920
CCj:_Canvas_get_referencePixelsPerUnit_m3420541976
Enj:_Event_get_current_m2393892120
Xtj:_VertexHelper_Clear_m627349662
F2a:__ZNK9GfxDevice13GetViewMatrixEv
NQe:_UnmanagedMemoryStream_Dispose_m2681886347
XUa:__ZN17RemapPPtrTransferC2E24TransferInstructionFlagsb
u3e:_InternalEnumerator_1_System_Collections_IEnumerator_get_Current_m1295084274_gshared
_8g:_Convert_ToDecimal_m889385228
fW:__ZN8TypeTree8BlobReadERPKhS1_ib
jJg:_Array_Reverse_m3714848183
UId:_Dropdown_ClearOptions_m4085591601
YFd:_CanvasUpdateRegistry_InternalRegisterCanvasElementForGraphicRebuild_m3522560454
cTa:__ZN18LoadSceneOperation23GetAllowSceneActivationEv
Yia:__ZN6CameraD0Ev
iRa:__ZN14SafeBinaryRead21TransferSTLStyleArrayINSt3__26vectorIi13stl_allocatorIiL18MemLabelIdentifier13ELi16EEEEEEvRT_17TransferMetaFlags
$Cg:_EncoderFallback__cctor_m3806755293
r4c:_raccess_guess_apple_double
tBb:__ZL18ProgramUniform1uivPK7ApiGLESjiihPKv
Ojc:__ZN14Texture2DArray13RebuildMipMapEv
oKj:__ZN13Il2CppHashSetIPK17Il2CppGenericInstN6il2cpp8metadata21Il2CppGenericInstHashENS4_24Il2CppGenericInstCompareENSt3__29allocatorI10KeyWrapperIS2_EEEEC2EjRKS5_RKS6_
tab:__Z18Transfer_BlittableI14SafeBinaryReadLb1EaEvRK29SerializationCommandArgumentsR31RuntimeSerializationCommandInfo
ogk:__ZN6il2cpp2gc16GarbageCollector14RemoveWeakLinkEPPv
q4b:__ZN9ShaderLab20SerializedSubProgram14AddVectorParamEPKcii15ShaderParamTypei
oXi:_List_1_GetEnumerator_m563931292_gshared
Mld:__ZN2UI14CanvasRenderer12CleanupClassEv
i6g:_Enumerator__ctor_m3362421874
Nck:__ZN6il2cpp2vm6Object3BoxEP11Il2CppClassPv
Y3j:__ZN6il2cpp2vm6Thread7SetNameEP12Il2CppThreadP12Il2CppString
$J:__ZN11UnityEngine15CloudWebService10RestClientINS0_23WebRequestRestHeaderMapEE16SetRequestHeaderERKN4core12basic_stringIcNS4_20StringStorageDefaultIcEEEESA_
nRa:__ZN30RuntimeInitializeOnLoadManager15ClassMethodInfo8TransferI14SafeBinaryReadEEvRT_
z_d:_ConstructionCall_InitDictionary_m2824447813
fH:__ZL22InitializeModule_Audiov
x1a:__ZN16MemoryFileSystem8IsLockedERK13FileEntryData
b7j:__ZN6il2cpp6icalls8mscorlib6System2IO6MonoIO5WriteEiP11Il2CppArrayiiPi
Txf:_Mathf_InverseLerp_m4155825980
zqi:__Z92RuntimeInvoker_RuntimeObject_RuntimeObject_RuntimeObject_SByte_t1669577662_SByte_t1669577662PFvvEPK10MethodInfoPvPS4_
el:_emscripten_glBindRenderbuffer
Wnk:_GC_dirty_init
ubk:__ZN6il2cpp2vm5Image33GetCachedMemoryMappedResourceFileEP24Il2CppReflectionAssembly
Jbk:__ZN6il2cpp2vm5Field14GetValueObjectEP9FieldInfoP12Il2CppObject
yjd:__ZNK2UI6Canvas16GetTargetDisplayEv
Pod:__Z63Register_UnityEngine_Analytics_CustomEventData_Internal_Destroyv
lVh:_TimeSpan_CompareTo_m3633415627_AdjustorThunk
_pb:__ZN13MonoBehaviour17RemoveFromManagerEv
jJf:_Vector3_get_Item_m668685504_AdjustorThunk
Mja:__ZN12ImageFilters14AddImageFilterERK11ImageFilter
ybc:__ZN19RuntimeSceneManager32LoadSceneAsyncByNameOrBuildIndexERKN4core12basic_stringIcNS0_20StringStorageDefaultIcEEEEiNS_11LoadingModeEb
LYd:_Context_NotifyDynamicSinks_m1841702879
moj:_GUIUtility_get_pixelsPerPoint_m2369948084
kxg:_WindowsIdentity_System_Runtime_Serialization_IDeserializationCallback_OnDeserialization_m3428853631
NN:__ZN13MemoryManagerC2Ev
UNa:__ZN12SkinMeshInfo10DeallocateEPS_
s2f:_ScrollRect_SetDirty_m214267968
VKi:__Z74RuntimeInvoker_Int32_t2950945753_UIVertex_t4057497605_UIVertex_t4057497605PFvvEPK10MethodInfoPvPS4_
R0a:__ZN20ArchiveStorageReader28AcquireAndPrefillUnusedBlockEjPNS_11CacheResultE
IKg:_Boolean_System_IConvertible_ToDateTime_m603510836
Jjc:__Z12NHxRoughnessIA4_tEvP9Texture2DPT_iiii
wwh:_ASN1_get_Value_m1857007406
NH:__Z6simd4iiiii
KXa:__ZN9Transform5ResetEv
W9g:_Decimal_op_Explicit_m1842265407
fhb:__Z22TransferField_NonArrayI24GenerateTypeTreeTransfer16Converter_StringEvRK23StaticTransferFieldInfoR31RuntimeSerializationCommandInfoRT0_
C5:__ZL47__ManagedRegistrationHelperFunction_FixedUpdatePv
sDj:_CanvasRenderer_SetAlphaTexture_m2009567627
e8c:_UNITY_FT_CMap_New
U3e:_InternalEnumerator_1_get_Current_m4241643334_AdjustorThunk
vsb:__Z17MainLoopKeepalivePv
_9e:_InternalEnumerator_1_get_Current_m1588647567_AdjustorThunk
buk:_printf_core
_9d:__ZL51GCHandle_t3351438187_CustomAttributesCacheGeneratorP21CustomAttributesCache
_Uf:_InputField_get_caretBlinkRate_m3620074524
ftg:_RSAPKCS1SignatureFormatter_CreateSignature_m3191980616
Sva:__ZN10builtintex16GetDefaultTexEnvE16TextureDimensionb
BDb:__ZL25CheckCopyTextureArgumentsRK7ApiGLESP11GLESTextureS3_
IHk:_glDeleteShader__wrapper
J$:__ZNK15PlayableMethods18InvokeOnGraphStartER18ScriptingObjectPtrRK9HPlayable
Dgb:__Z29Transfer_Blittable_ArrayFieldI24GenerateTypeTreeTransferyEvRT_R9ArrayInfoRK23StaticTransferFieldInfo
Zz:__ZN4FMOD7SystemI9playSoundE17FMOD_CHANNELINDEXPNS_5SoundEbPPNS_7ChannelE
H_g:_Int64_GetHashCode_m703091690
J6:__ZL60__ManagedRegistrationHelperFunction_ReflectionProbeBlendInfoPv
IWc:__ZN17PhysicsMaterial2D5ResetEv
Rnj:_Event_get_commandName_m4275147343
d9g:_Decimal_op_Implicit_m4256234411
Xab:__Z24TransferPPtrToMonoObjecti17ScriptingClassPtrP23DataToCreateNullWrapper24TransferInstructionFlags
Ay:__ZN12AudioManager23VirtualRedirectTransferER18StreamedBinaryReadILb0EE
bni:__Z60RuntimeInvoker_RuntimeObject_RuntimeObject_Int16_t2552820387PFvvEPK10MethodInfoPvPS4_
HMa:__ZN10VertexData13SwapEndianessEv
h4g:_StreamReader__ctor_m3941437302
tdc:__Z57Register_UnityEngine_Transform_INTERNAL_get_localRotationv
lAk:dynCall_viif
Nu:__ZN7mecanim4hand8HandPoseC2Ev
Mec:__Z13RegisterClassIN5Unity9ComponentEEvPKc
uPe:_StringReader_ReadLine_m2337102945
jeb:__ZL26Transfer_SimpleNativeClassI17RemapPPtrTransfer8GradientLb0EEvRK29SerializationCommandArgumentsR31RuntimeSerializationCommandInfo
gpe:__ZL49Shader_t4151988712_CustomAttributesCacheGeneratorP21CustomAttributesCache
muc:__GLOBAL__sub_I_artifacts_WebGL_codegenerator_0_cpp_3029
fLg:_Boolean_Equals_m2410333903_AdjustorThunk
y$i:_List_1_System_Collections_IList_Contains_m2131605266_gshared
WK:__ZN13UploadHandlerD2Ev
Bw:__GLOBAL__sub_I_Modules_AssetBundle_Public_1_cpp
Kyk:dynCall_viiiiiffi
Bc:_emscripten_glBlendFuncSeparate
q8i:_Collection_1_Add_m809543251_gshared
lS:__Z20scripting_string_newPKc
Plj:_Parser_IsSingleline_m326238187
IQg:_CollectionBase_get_Count_m1708965601
OSf:_HMAC__ctor_m97939284
L_h:_ValueType_DefaultEquals_m2927252100
ozc:__ZN9JSONWrite12AppendToNodeEPN5Unity9rapidjson12GenericValueINS1_4UTF8IcEE13JSONAllocatorEEPKcRS6_
Dwh:_ASN1_ToString_m1340204511
Zbg:_X509ChainElementEnumerator_get_Current_m1301774989
fLc:__ZN16PhysicsManager2D20GetRigidBodyVelocityERK11Rigidbody2D
Bcg:_X509Store_get_Certificates_m2149701265
LWh:_Type_GetField_m2961003358
dJe:__ZL144StandaloneInputModule_t2760469101_CustomAttributesCacheGenerator_StandaloneInputModule_t2760469101____allowActivationOnMobileDevice_PropertyInfoP21CustomAttributesCache
iba:__ZN9Scripting11UnityEngine13ComputeBuffer12CleanupProxyEv
hQh:_StringBuilder_set_Chars_m3548656617
XUj:__ZN6il2cpp2os4File17GetFileAttributesERKNSt3__212basic_stringIcNS2_11char_traitsIcEENS2_9allocatorIcEEEEPi
xE:__ZN17AudioCustomFilterD2Ev
XHi:__Z56RuntimeInvoker_Void_t1185182177_MonoResource_t4103430009PFvvEPK10MethodInfoPvPS4_
Plk:_GC_unpromote_black_lists
ww:__ZN9Scripting11UnityEngine2XR5Tango9GridIndex9InitProxyEv
xCb:__ZN18GfxFramebufferGLES18ReleaseFramebufferEP17RenderSurfaceBaseP14GfxContextGLES
tCc:__Z18Transfer_BlittableI8JSONReadLb1EiEvRK29SerializationCommandArgumentsR31RuntimeSerializationCommandInfo
yL:__ZN19CloudServiceHandler34HandleSaveFileWebRequestPlayerLoopEv
nxd:__ZL47__ManagedRegistrationHelperFunction_XRNodeStatePv
QD:__Z31GetParentSampleClipFromInstancePN11SoundHandle8InstanceE
rfc:__ZNK28RectTransformPropertyBinding13GetFloatValueERKN11UnityEngine9Animation10BoundCurveE
IVb:__ZN6Camera22StandaloneCustomRenderENS_10RenderFlagEP6ShaderRKN4core12basic_stringIcNS3_20StringStorageDefaultIcEEEEPNS_21PerformRenderFunctionE
Koh:_Array_InternalArray__IndexOf_TisKeyValuePair_2_t2401056908_m4118889689_gshared
mSa:__ZNSt3__26vectorI4PPtrI6ObjectE13stl_allocatorIS3_L18MemLabelIdentifier52ELi16EEE6assignINS_11__wrap_iterIPS3_EEEENS_9enable_ifIXaasr21__is_forward_iteratorIT_EE5valuesr16is_constructibleIS3_NS_15iterator_traitsISD_E9referenceEEE5valueEvE4typeESD_SD_
Nsk:__ZN6il2cpp2os16ThreadLocalValue8GetValueEPPv
Ebg:_X509Certificate2_get_PublicKey_m370665820
fPj:__ZN6il2cpp2vm13MetadataCache14GetGenericInstEPKPK10Il2CppTypej
eF:__ZN13AudioListener17ReadExtensionNameEi
cd:_glUniform1uiv
ksd:__ZN11UnityEngine7Connect20RemoteConfigSettings35CallConfigUpdatedOnMainThreadStaticEPS1_
nGj:_Rigidbody2D_AddTorque_m1535770154
lp:setThrew
ksg:_SslClientStream_OnLocalPrivateKeySelection_m1934775249
Bjc:__ZL21BuildEmptyCubeTexturePKci11ColorRGBA3217TextureColorSpace
gMg:_Byte_ToString_m721125428
K$b:__ZN14SafeBinaryRead21TransferSTLStyleArrayINSt3__26vectorIN9ShaderLab20SerializedSubProgramENS1_9allocatorIS4_EEEEEEvRT_17TransferMetaFlags
hph:_Array_InternalArray__IndexOf_TisX509ChainStatus_t133602714_m48896230_gshared
m_a:__ZN19dynamic_block_arrayI13FileEntryInfoLj32EE4growEj
CCc:__Z15Transfer_StringI8JSONReadLb1EEvRK29SerializationCommandArgumentsR31RuntimeSerializationCommandInfo
zTa:__ZN16LightmapSettings15AppendLightmapsEiRK13dynamic_arrayI12LightmapDataLj0EE
d2:__ZN6prcoreL17RemapGenericFloatI17TexFormatRGBFloat15TexFormatRGHalfEEvPKNS_9InnerInfoE
uad:_sfnt_load_face
C3c:_UNITY_FT_Render_Glyph_Internal
N7j:__ZNSt3__212basic_stringIDsNS_11char_traitsIDsEENS_9allocatorIDsEEE21__grow_by_and_replaceEjjjjjjPKDs
u8c:_UNITY_ft_service_list_lookup
gwc:__ZN5IMGUI21SelectReceivingWindowER8GUIStateb
cTf:_HMAC_Initialize_m3157696427
bvk:___strchrnul
WO:__ZN13BaseAllocator13TryDeallocateEPv
xag:_X509SubjectKeyIdentifierExtension__ctor_m2055934916
lyc:__ZN9Scripting19UnityEngineInternal5Input17NativeInputSystem9InitProxyEv
Ztk:_sprintf
Y4b:__ZN9Scripting25CreateNullExceptionObjectE18ScriptingObjectPtr
Fyh:_PrivateKeyInfo_DecodeRSA_m2889346634
kE:__ZN13AudioListener17RemoveFromManagerEv
xd:_glAttachShader
WGd:_ContentSizeFitter_SetLayoutHorizontal_m2833273874
D2h:_ReadOnlyCollection_1_System_Collections_IList_RemoveAt_m134366701_gshared
zia:__ZNK6Camera19GetProjectionMatrixEv
pLe:__ZL70InputField_t3762917431_CustomAttributesCacheGenerator_m_SelectionColorP21CustomAttributesCache
AVf:_InputField_SetToCustomIfContentTypeIsNot_m2813459946
DSc:__ZN21b2FindNewContactsTask15AddContactPairsERK16b2ContactManagerP14b2FixtureProxyS4_R13dynamic_arrayINS_17b2DeferredContactELj0EE
aoe:__ZL70RuntimePlatform_t4159857903_CustomAttributesCacheGenerator_FlashPlayerP21CustomAttributesCache
DXg:_Guid_GetHashCode_m3042133858_AdjustorThunk
cda:__Z38PreallocateObjectFromPersistentManagerib
wfg:_Interpreter_Backtrack_m2828876822
eBa:__ZNK9Texture2D20GetUnscaledTextureIDEv
pQf:_SByte_System_IConvertible_ToType_m4075253447
Gzh:_StrongName_get_PublicKey_m1841537984
YFk:_glFenceSync__wrapper
$Hf:_Transform_INTERNAL_get_worldToLocalMatrix_m2730237241
Jyg:_Single_System_IConvertible_ToUInt64_m3299129161
jBa:__ZNK9Texture2D26CanReuploadDataToGfxDeviceEv
Bee:__ZL63CodeAccessPermission_t2681295399_CustomAttributesCacheGeneratorP21CustomAttributesCache
YTa:__Z29ClearRepeatingLogMessageStatev
l8e:_InternalEnumerator_1_get_Current_m3191242573_gshared
ZLg:_Byte_Equals_m1161982810_AdjustorThunk
CZ:__ZN21EnlightenSceneMappingaSERKS_
fga:__ZN14SafeBinaryRead21TransferSTLStyleArrayI13dynamic_arrayI17SortingLayerEntryLj0EEEEvRT_17TransferMetaFlags
g0c:__ZL48__ManagedRegistrationHelperFunction_MeshColliderPv
pFb:__ZN7ApiGLESD2Ev
Eha:__ZN9Transform47ClearTransformHierarchyAndApplyToSerializedDataEv
RDc:__ZN8JSONRead21TransferSTLStyleArrayINSt3__26vectorI8MonoPPtr13stl_allocatorIS3_L18MemLabelIdentifier1ELi16EEEEEEvRT_17TransferMetaFlags
cXf:_InputField_IsSelectionVisible_m3622592134
QJg:_AssemblyLoadEventHandler_Invoke_m1462077361
cja:__ZN6Camera23VirtualRedirectTransferER19StreamedBinaryWriteILb0EE
CAk:dynCall_fidi
_Vj:__ZN15dense_hashtableINSt3__24pairIK10KeyWrapperINS1_IPK9FieldInfoP11Il2CppClassEEEjEES9_17ReflectionMapHashIS8_EN14dense_hash_mapIS9_jSD_NS9_14EqualsComparerINS0_8equal_toIS8_EEEENS0_9allocatorISB_EEE9SelectKeyESI_SK_E12resize_deltaEjj
xoj:_GUILayoutEntry__ctor_m2229197035
ima:__ZN15dense_hashtableINSt3__24pairIKN9ShaderLab7Program23ShaderKeywordSetAndHashEPKNS2_10SubProgramEEES4_NS3_24ShaderKeywordHashFunctorEN14dense_hash_mapIS4_S8_SA_NS0_8equal_toIS4_EE13stl_allocatorIS9_L18MemLabelIdentifier67ELi16EEE9SelectKeyESD_SG_E15insert_noresizeERKS9_
Dcc:__ZNK13MonoBehaviour13GetScriptTypeEv
Lta:__ZN13RenderTexture12SetDimensionE16TextureDimension
Yrg:_SslClientStream_set_ClientCertSelectionDelegate_m1261530976
z9:__ZN9Scripting11UnityEngine16GradientColorKey9InitProxyEv
ne:_SDL_FreeRW
Tkd:__Z34CanvasRenderer_Get_Custom_PropCullP12Il2CppObject
bD:__ZN20SoundChannelInstance8getDelayE14FMOD_DELAYTYPEPjS1_
zma:__ZNSt3__26vectorIN20GpuProgramParameters15StructParameterENS_9allocatorIS2_EEEC2ERKS5_
Z1e:_ArrayReadOnlyList_1_Contains_m232667507_gshared
Rsi:__Z77RuntimeInvoker_Boolean_t97287965_IntPtr_t_Int32_t2950945753_SByte_t1669577662PFvvEPK10MethodInfoPvPS4_
EBf:_PlayableHandle_GetPlayableType_m432385838_AdjustorThunk
q2c:__ZNSt3__26vectorIN20TextRenderingPrivate8FontImpl13CharacterInfoE13stl_allocatorIS3_L18MemLabelIdentifier1ELi16EEE8__appendEj
v:tempBigInt
cNi:_Array_InternalArray__Insert_TisKeyframe_t4206410242_m1558638568_gshared
ve:_emscripten_glVertexAttrib1fv
q0b:__ZNSt3__26vectorIN9ShaderLab20SerializedSubProgram12UAVParameterENS_9allocatorIS3_EEE7reserveEj
Cxk:__ZSt11__terminatePFvvE
PA:__ZN12AudioManager14systemCallbackEP11FMOD_SYSTEM24FMOD_SYSTEM_CALLBACKTYPEPvS3_
Wci:_Nullable_1_Equals_m4046255732_gshared
D7h:_ReadOnlyCollection_1_System_Collections_Generic_ICollectionU3CTU3E_Clear_m3451551308_gshared
HEd:_BaseMeshEffect_OnEnable_m3291426649
isa:__ZN16ReflectionProbes16UpdateSampleDataEv
_Kf:_TrackingServices_NotifyUnmarshaledObject_m2784831802
hPg:_ReadOnlyArrayListWrapper_Sort_m2577012511
r5:__ZL46__ManagedRegistrationHelperFunction_UnityEventPv
QUg:_CultureInfo_GetCultureInfo_m56098747
vSb:__Z20AddActiveLocalLightsR11CullResultsR27LocalLightCullingParametersPPK15SharedLightDataPK8Vector4fRK9IndexListPfRSA_R12ActiveLightsSG_P5RectTIfEP13TargetEyeMask
Os:__ZL53__ManagedRegistrationHelperFunction_AnimatorStateInfoPv
Q8g:_Convert_ToDecimal_m1284148187
p$h:_Collection_1__ctor_m3489157029_gshared
L4:__ZL52__ManagedRegistrationHelperFunction_AndroidJNIHelperPv
W5c:_cf2_getNormalizedVector
Se:_JS_Sound_Play
C8h:_ReadOnlyCollection_1_System_Collections_IList_set_Item_m1538987737_gshared
h$b:__ZN9ShaderLab16SerializedShader8TransferI14SafeBinaryReadEEvRT_
YLd:_GridLayoutGroup_set_constraint_m3308895167
S_d:_ConstructionCallDictionary_SetMethodProperty_m3145285304
Nvi:__Z243RuntimeInvoker_Void_t1185182177_Int16_t2552820387_RuntimeObject_Int32_t2950945753_Int32_t2950945753_Int32_t2950945753_SByte_t1669577662_SByte_t1669577662_SByte_t1669577662_SByte_t1669577662_Int16_t2552820387_SByte_t1669577662_SByte_t1669577662PFvvEPK10MethodInfoPvPS4_
S2e:_InternalEnumerator_1_System_Collections_IEnumerator_get_Current_m1503522504_gshared
Dkc:__ZN19ShaderPropertySheet16SetVectorIndexedEN9ShaderLab16FastPropertyNameEifRK8Vector4fNS_8SetFlagsE
dWh:_Type_get_IsAbstract_m1120089130
pJf:_Vector3_get_normalized_m2454957984_AdjustorThunk
mnj:_UriFormatException__ctor_m1115096473
l4j:__ZN15dense_hashtableINSt3__24pairIK10KeyWrapperINS1_IP11Il2CppClassjEEES4_EES6_N6il2cpp8metadata14ArrayClassHashEN14dense_hash_mapIS6_S4_SB_NS6_14EqualsComparerINSA_17ArrayClassCompareEEENS0_9allocatorIS8_EEE9SelectKeyESF_SH_E9copy_fromERKSK_j
fqj:_GUIUtility_IsExitGUIException_m3644066650
qM:__ZN11UnityEngine15CloudWebService14DataDispatcher4StopEv
MSc:__ZN12WheelJoint2D23VirtualRedirectTransferER19StreamedBinaryWriteILb0EE
vYg:_Int16_System_IConvertible_ToUInt64_m134975563
s0b:__ZNSt3__26vectorIN9ShaderLab20SerializedSubProgram12UAVParameterENS_9allocatorIS3_EEE8__appendEj
hwc:__ZN5IMGUI9GUIWindow5OnGUIER8GUIState
Onk:_GC_maybe_gc
qyg:_Single_System_IConvertible_ToDecimal_m325860800_AdjustorThunk
Erh:_Array_InternalArray__ICollection_CopyTo_TisSingle_t1397266774_m455540885_gshared
r4:__ZN17ScriptingGCHandle7AcquireE18ScriptingObjectPtr25ScriptingGCHandleWeakness
evi:__Z74RuntimeInvoker_RuntimeObject_RuntimeObject_Int64_t3736567304_RuntimeObjectPFvvEPK10MethodInfoPvPS4_
vzk:dynCall_iifiii
Zya:__Z21HasAlphaTextureFormat13TextureFormat
XG:__ZN12AudioManager6UpdateEv
Tya:__ZN14ImageReference9BlitImageERKS_NS_8BlitModeE
sdg:_X509Chain__ctor_m2674663382
dN:__GLOBAL__sub_I_Runtime_Core_Callbacks_0_cpp
E7h:_ReadOnlyCollection_1_System_Collections_Generic_IListU3CTU3E_Insert_m1121807192_gshared
Uqb:__ZN23CachedSerializationDataD2Ev
HUb:__ZNK25CameraStackRenderingState31CalculateStereoCameraTargetTypeEv
Ira:__ZN14RenderSettings23VirtualRedirectTransferER14SafeBinaryRead
tbf:_InternalEnumerator_1_get_Current_m114240259_gshared
INc:__ZNK13b2CircleShape5CloneEP16b2BlockAllocator
Ehk:__ZN6il2cpp2os10ThreadImpl15CurrentThreadIdEv
Gug:_SymmetricAlgorithm_get_Key_m3241860519
VXf:_U3CMouseDragOutsideRectU3Ec__Iterator1_Reset_m2233410497
ZM:__GLOBAL__sub_I_Runtime_Camera_5_cpp
lZc:__ZN10Collider2DC2E10MemLabelId18ObjectCreationMode
hed:_UNITY_tt_face_load_fpgm
xha:__Z17IsObjectAvailablei
JOa:__ZN12InputManagerD0Ev
NSh:_ExecutionContext_Capture_m681135907
_3e:_InternalEnumerator_1_System_Collections_IEnumerator_get_Current_m2889979481_AdjustorThunk
xwk:_posix_memalign
Awh:_ASN1_GetBytes_m3305539297
oU:__ZNK15MonoScriptCache7ReleaseEv
dJj:__ZN6il2cpp2vm5Class13HasReferencesEP11Il2CppClass
fg:_glBindTexture
Quk:_snprintf
KCi:__Z50RuntimeInvoker_RuntimeObject_Resources_t1597885468PFvvEPK10MethodInfoPvPS4_
REk:_emscripten_glVertexAttrib1fv__wrapper
puf:_InvokableCallList_RemoveListener_m1769379719
ckc:__ZN16LevelGameManagerC2E10MemLabelId18ObjectCreationMode
uvj:_AudioExtensionManager_RemoveExtensionFromManager_m442924172
_yf:_MonoBehaviour_Internal_IsInvokingAll_m2820042090
oDk:_emscripten_glGetProgramInfoLog__wrapper
fu:__ZN25AnimatedPropertyEvaluator29BindCurveToScriptingObjectPtrERKN13AnimationClip10FloatCurveEj18ScriptingObjectPtrb
gJa:__ZN13ScreenManager20SetScreenOrientationE17ScreenOrientation
qwg:_String_Equals_m1744302937
ttf:_Display__ctor_m501911701
Z3h:_ReadOnlyCollection_1_System_Collections_Generic_IListU3CTU3E_Insert_m1020890112_gshared
tRg:_Hashtable__cctor_m4112166779
UHd:_DefaultControls_SetDefaultTextValues_m1943359795
bNb:__Z19SetupMotionMatricesR6CameraR18RPDataMotionVector
iFj:__ZL7log2_64y
TLd:_GridLayoutGroup_get_cellSize_m2967185053
pch:_CurrentSystemTimeZone_GetUtcOffset_m340358963
vej:_PKCS12_Decrypt_m1280162536
h4e:_InternalEnumerator_1_get_Current_m3081223448_gshared
Knj:_Event_get_isMouse_m1058251071
Uoa:__ZN10VertexDataC2ERKS_17ShaderChannelMask10MemLabelId
qQg:_CaseInsensitiveHashCodeProvider_AreEqual_m1790260777
X8c:_otv_JSTF_validate
Cma:__ZN22CreateGpuProgramOutputC2Ev
Euf:_PersistentCallGroup_Initialize_m4253175514
HKg:_Boolean_System_IConvertible_ToChar_m4279513009_AdjustorThunk
mRg:_Hashtable__ctor_m1763145853
dUe:_NumberFormatter_ScaleOrder_m3813786990
Gyh:_PrivateKeyInfo_DecodeDSA_m771724585
qgg:_Interval_get_Size_m4163671410_AdjustorThunk
ohc:__ZN8GUILayer12CleanupClassEv
OYh:_UInt32_System_IConvertible_ToSByte_m1061556466
JMf:_WellKnownClientTypeEntry__ctor_m2471908952
cJj:__ZN6il2cpp2vm5Class4InitEP11Il2CppClass
ha:invoke_vidi
tVe:_NumberFormatter_FormatRoundtrip_m19342689
nMf:_RemotingServices_CreateClientProxyForContextBound_m783705199
Ioc:__ZNK15GUIEventManager15GetEventAtIndexEi
Kmd:__ZN2UI14CanvasRenderer17SyncDirtyElementsER8JobFence
jgf:_Enumerator_System_Collections_IEnumerator_get_Current_m3816090481_gshared
yjk:__ZN6il2cpp5utils11StringUtils15StringDuplicateEPKc
lEh:_DefaultComparer_Equals_m2480133610_gshared
Ula:__ZNK9ShaderLab21ShaderRasterStateDesc16ToGfxRasterStateEPK19ShaderPropertySheetS3_R14GfxRasterState
pQi:_Array_Sort_TisVector3_t3722313464_m1915176437_gshared
Xsk:__ZN6il2cpp2os9EventImplC2Ebb
U2f:_ScrollRect_OnInitializePotentialDrag_m3139711961
BYi:_List_1_get_Item_m2113769949_gshared
L_f:_MaskableGraphic_OnTransformParentChanged_m329502413
dHa:__ZNSt3__26vectorI13dynamic_arrayI8Vector2fLj0EENS_9allocatorIS3_EEE6assignINS_11__wrap_iterIPS3_EEEENS_9enable_ifIXaasr21__is_forward_iteratorIT_EE5valuesr16is_constructibleIS3_NS_15iterator_traitsISC_E9referenceEEE5valueEvE4typeESC_SC_
GQ:__Z20IsMatrixBuiltinParamPKcPi
_vg:_String_memcpy4_m979367827
LQh:_UnicodeEncoding_GetBytesInternal_m1902824297
fkc:__ZN8Renderer19PostInitializeClassEv
foh:_Array_FindIndex_TisRuntimeObject_m2504082708_gshared
Gmd:__ZNSt3__26__treeINS_12__value_typeINS_4pairIKiS3_EEN2UI14DepthSortLayerEEENS_19__map_value_compareIS4_S7_NS_4lessIS4_EELb1EEE13stl_allocatorIS7_L18MemLabelIdentifier1ELi16EEE25__emplace_unique_key_argsIS4_JRKNS_21piecewise_construct_tENS_5tupleIJOS4_EEENSK_IJEEEEEENS2_INS_15__tree_iteratorIS7_PNS_11__tree_nodeIS7_PvEEiEEbEERKT_DpOT0_
mgj:_X509Chain_FindCertificateRoot_m1937726457
e4g:_StreamAsyncResult_get_AsyncWaitHandle_m3390046559
vqd:__ZN11UnityEngine15PlatformWrapper21GetVRPlayAreaGeometryER13dynamic_arrayI8Vector3fLj0EE
jpk:__ZN6il2cpp6icalls8mscorlib6System8Delegate23CreateDelegate_internalEP20Il2CppReflectionTypeP12Il2CppObjectP22Il2CppReflectionMethodb
khf:_Enumerator_System_Collections_IEnumerator_get_Current_m921113401_AdjustorThunk
lqb:__ZN18DelayedCallManager18CancelCallDelayed2E4PPtrI6ObjectEPF15CallObjectStatePS1_PvES7_
Afa:__ZN25ThreadsafeLinearAllocator10ReallocateEPvji
K9a:__Z18Transfer_BlittableI14SafeBinaryReadLb1E11QuaternionfEvRK29SerializationCommandArgumentsR31RuntimeSerializationCommandInfo
F1:__ZN18SpriteAtlasManagerD0Ev
pHa:__ZN10Matrix4x4f8TransferI14SafeBinaryReadEEvRT_
oRf:_CryptographicUnexpectedOperationException__ctor_m2381988196
H_j:__ZN14dense_hash_mapI10KeyWrapperIPK22Il2CppGenericParameterEPK24MonoGenericParameterInfoN6il2cpp5utils11PointerHashIS2_EENS4_14EqualsComparerINSt3__28equal_toIS3_EEEENSD_9allocatorINSD_4pairIKS4_S7_EEEEE15set_deleted_keyERSJ_
M6e:_InternalEnumerator_1_System_Collections_IEnumerator_get_Current_m4213507601_gshared
UX:__Z6AppendRKN4core12basic_stringIcNS_20StringStorageDefaultIcEEEEPKc
_ck:__ZN6il2cpp2vm6Object12NullableInitEPhP12Il2CppObjectP11Il2CppClass
E7:__ZN9Scripting11UnityEngine16TrackedReference12CleanupProxyEv
c5c:__ZN20TextRenderingPrivate19NativeTextGeneratorC2ERK11UTF16StringPNS_8FontImplE11ColorRGBA32ifRK8Vector2fbifiibffbbP13dynamic_arrayIN2UI8UIVertexELj0EE
Zpj:_GUIUtility_RemoveCapture_m1294193818
lzb:__ZN7ApiGLES18ClearBufferSubDataEjN2gl12BufferTargetEll
Dbc:__Z37Camera_Get_Custom_PropAllCamerasCountv
aAa:__ZN14Texture2DArray8TransferI18StreamedBinaryReadILb0EEEEvRT_
Wwc:__Z38Register_UnityEngine_GUIStyle_get_namev
Lfd:_Split_Cubic
bb:invoke_fiiii
sXf:_InputField_OnSubmit_m3583210804
ymj:_Uri_CheckHostName_m2213216182
OEk:_emscripten_glBindRenderbuffer__wrapper
XRi:_Mesh_SetUvsImpl_TisVector2_t2156229523_m3009194955_gshared
jjg:_HMAC_set_Key_m3535779141
rQi:_Array_Sort_TisVector4_t3319028937_TisVector4_t3319028937_m4254533673_gshared
BOg:_ArrayListWrapper_Contains_m2641184447
wfd:_ft_black_render
msi:__Z177RuntimeInvoker_Int32_t2950945753_RuntimeObject_Int32_t2950945753_Int32_t2950945753_RuntimeObject_Int32_t2950945753_EncoderFallbackBufferU26_t2343550713_CharU5BU5DU26_t3299466565PFvvEPK10MethodInfoPvPS4_
KAk:dynCall_viiifi
_Bb:__ZN18GfxFramebufferGLES20ActiveContextChangedEPP17RenderSurfaceBaseS2_
t6a:__Z19PluginsRenderMarkeri
z0b:__ZNSt3__26vectorIN9ShaderLab20SerializedSubProgram15StructParameterENS_9allocatorIS3_EEE6assignINS_11__wrap_iterIPS3_EEEENS_9enable_ifIXaasr21__is_forward_iteratorIT_EE5valuesr16is_constructibleIS3_NS_15iterator_traitsISC_E9referenceEEE5valueEvE4typeESC_SC_
zbk:__ZNSt3__214__split_bufferIN6il2cpp2vm5Image20EmbeddedResourceDataERNS_9allocatorIS4_EEEC2EjjS7_
fAe:__ZL66SkeletonBone_t4134054672_CustomAttributesCacheGenerator_parentNameP21CustomAttributesCache
Cod:__Z69Register_UnityEngine_Analytics_UnityAnalyticsHandler_Internal_Destroyv
Ccg:_X509Certificate2Collection_Add_m3151757943
lff:_Comparer_1__cctor_m951016718_gshared
J1c:__ZN9Scripting11UnityEngine13CharacterInfo9InitProxyEv
fOc:__ZNSt3__227__insertion_sort_incompleteIR15DepthComparitorP8DepthHitEEbT0_S5_T_
uQg:_CaseInsensitiveHashCodeProvider_get_DefaultInvariant_m4264275163
Esi:__Z195RuntimeInvoker_Int32_t2950945753_RuntimeObject_Int32_t2950945753_Int32_t2950945753_Int32_t2950945753_RuntimeObject_DecoderFallbackBufferU26_t3866396827_ByteU5BU5DU26_t4057885439_SByte_t1669577662PFvvEPK10MethodInfoPvPS4_
UH:__ZN5physx14PxLightCpuTask12addReferenceEv
noa:__ZNK15InstancingProps35FillInstanceBufferDispatchConstantsIN10Instancing14RenderLoopArgsEEEvPPvjjRK19ShaderPropertySheetRKT_
BGi:__Z86RuntimeInvoker_Int32_t2950945753_Color32_t2600501292_Color32_t2600501292_RuntimeObjectPFvvEPK10MethodInfoPvPS4_
DGa:__ZN21EnlightenSceneMapping8TransferI19StreamedBinaryWriteILb0EEEEvRT_
Tdk:__ZN6il2cpp2gc16GarbageCollector19InitializeFinalizerEv
Gxc:__ZN10GUIManager10DoGUIEventER10InputEventb
XIc:__ZN16PhysicsManager2D25AddJointBreakLimitUpdatesEP7Joint2D
Dfb:__Z35Transfer_Blittable_FixedBufferFieldI24GenerateTypeTreeTransferxEvRK29SerializationCommandArgumentsR31RuntimeSerializationCommandInfo
L9c:_otv_LangSys_validate
hEf:_RectOffset_get_right_m2294081512
jzj:__ZL25UnresolvedVirtualCall_154P12Il2CppObjectfPK10MethodInfo
ANi:_Array_InternalArray__set_Item_TisLink_t544317964_m1234244240_gshared
ned:_UNITY_TT_Init_Glyph_Loading
Fnc:__Z20CalculateSqrDistanceRK8Vector3fRK4AABB
iPf:_SerializationInfo_GetBoolean_m1756153320
EC:__Z32AudioMixerDuckingProcessCallbackP21UnityAudioEffectStatePfS1_jii
Byf:_Mesh_get_uv2_m3615020997
djc:__ZN26CustomRenderTextureManagerD2Ev
gFh:_EqualityComparer_1_System_Collections_IEqualityComparer_Equals_m4172006498_gshared
Fy:__ZN12AudioManager8TransferI24GenerateTypeTreeTransferEEvRT_
Ixf:_Mathf_Round_m4098141538
gta:__Z25GetBytesFromTextureFormat13TextureFormat
y6j:__ZN6il2cpp6icalls8mscorlib6System9Threading6Thread20Thread_free_internalEP12Il2CppThreadi
Ytb:__ZNK11PreloadData18GetInstanceIDArrayER13dynamic_arrayIiLj0EE
_Aa:__ZN7Cubemap23VirtualRedirectTransferER19StreamedBinaryWriteILb0EE
p7f:__KeysEnumerator_get_Current_m2996478063
lV:__Z32scripting_class_get_assemblyname17ScriptingClassPtr
ENc:__ZN9b2Simplex9ReadCacheEPK14b2SimplexCachePK15b2DistanceProxyRK11b2TransformS5_S8_
xCi:__Z99RuntimeInvoker_Boolean_t97287965_Int32_t2950945753_PointerEventDataU26_t867828220_SByte_t1669577662PFvvEPK10MethodInfoPvPS4_
s5e:_InternalEnumerator_1_get_Current_m2128158355_AdjustorThunk
P3a:__ZN9GfxDevice21RegisterNativeTextureE9TextureIDi16TextureDimension
DKd:_GraphicRegistry__ctor_m1851575309
fIi:__Z52RuntimeInvoker_Void_t1185182177_Keyframe_t4206410242PFvvEPK10MethodInfoPvPS4_
HTc:__ZN13SliderJoint2D8TransferI14SafeBinaryReadEEvRT_
lqk:__ZN6il2cpp6icalls8mscorlib6System10Reflection4Emit11TypeBuilder20create_generic_classEP27Il2CppReflectionTypeBuilder
jCb:__ZNK16UniformCacheGLES6SubmitEjRK13dynamic_arrayIN20GpuProgramParameters14ValueParameterELj0EERKS0_IiLj0EE
Tlh:_PlayableHandle_IsPlayableOfType_TisAnimationLayerMixerPlayable_t3631223897_m201603007_gshared
EF:__Z60Register_UnityEngine_AudioListener_GetNumExtensionPropertiesv
_i:_emscripten_glUniformMatrix4fv
A4j:__ZN15dense_hashtableINSt3__24pairIK10KeyWrapperINS1_IP11Il2CppClassjEEES4_EES6_N6il2cpp8metadata14ArrayClassHashEN14dense_hash_mapIS6_S4_SB_NS6_14EqualsComparerINSA_17ArrayClassCompareEEENS0_9allocatorIS8_EEE9SelectKeyESF_SH_E13set_empty_keyERKS8_
vWa:__ZN12ScriptMapperD2Ev
AIk:b100
Eyf:_Mesh_get_colors32_m1253190811
xmk:_GC_stopped_mark
Gxd:__ZL59__ManagedRegistrationHelperFunction_SubsystemDescriptorBasePv
tpf:_AnimationCurve_Finalize_m2397002729
R5f:_Text_OnEnable_m616205807
EMi:__Z50RuntimeInvoker_RuntimeObject_ColorTween_t809614380PFvvEPK10MethodInfoPvPS4_
gXf:_InputField_OnFillVBO_m3649106646
POf:_SerializationCallbacks__cctor_m1674315180
IOj:__ZNK15dense_hashtableI10KeyWrapperIPK19Il2CppGenericMethodES4_N6il2cpp8metadata23Il2CppGenericMethodHashEN14dense_hash_setIS4_S7_NS4_14EqualsComparerINS6_26Il2CppGenericMethodCompareEEENSt3__29allocatorIS4_EEE8IdentityESB_SE_E23find_position_with_hashERKS4_j
mla:__ZNSt3__26vectorIN12FlareManager10FlareEntryENS_9allocatorIS2_EEE21__push_back_slow_pathIS2_EEvOT_
n3b:__ZN9ShaderLab20SerializedSubProgram16TextureParameter8TransferI19StreamedBinaryWriteILb0EEEEvRT_
Cea:__ZNK7Hash12812PackToUInt32Ev
CPg:_SynchronizedArrayListWrapper_IndexOf_m3642674350
yM:__ZN11UnityEngine15CloudWebService16SessionContainer8AddEventEPNS0_14CloudEventInfoE
U7a:__Z4TrimRKN4core12basic_stringIcNS_20StringStorageDefaultIcEEEES5_
G9f:_SPKey_Equals_m4205549017
lRi:_Dictionary_2_Do_ICollectionCopyTo_TisKeyValuePair_2_t3842366416_m1399105608_gshared
Obg:_X509Certificate2_Import_m4026562329
nif:_Enumerator_System_Collections_IEnumerator_get_Current_m2763095718_AdjustorThunk
WFk:_glGetStringi__wrapper
lHa:__ZN10VertexData8TransferI14SafeBinaryReadEEvRT_
a1:__ZN13RuntimeStaticI12AdsIdHandlerLb0EE16StaticInitializeEPv
lok:_GC_malloc_atomic
vWd:_ActivatedClientTypeEntry_ToString_m2494181680
fJh:_HashSet_1_GetEnumerator_m3346268098_gshared
_qk:__ZN6il2cpp5utils6Memory13AlignedMallocEjj
yXf:_Selectable_get_animator_m2899312855
oT:__ZL20SortItemByInstanceIDRKN18AwakeFromLoadQueue4ItemES2_
YIf:_Vector2_op_Multiply_m2347887432
H7f:_TypeConverterAttribute__ctor_m1774069684
etd:__ZN20UnityConnectSettings8TransferI24GenerateTypeTreeTransferEEvRT_
zic:__ZZN12MeshRenderer15InitializeClassEvEN29FunctorImpl_205kDidDeleteMesh4CallEPviR11MessageData
HFg:_Byte_ToString_m4063101981
ISe:_MonoType_GetConstructors_m2574682189
sQc:__ZN25b2SynchronizeFixturesTask7TaskJobEPS_j
FFf:_SceneManager_LoadSceneAsyncNameIndexInternal_m4031498323
l_:__ZL31InitializeRendererUpdateManagerPv
jTd:_ParameterInfo__ctor_m2779026345
rVf:_InputField_set_onValueChange_m1251390545
k7:__ZN9Scripting11UnityEngine18WaitForFixedUpdate12CleanupProxyEv
D6:__ZL46__ManagedRegistrationHelperFunction_RectOffsetPv
AUe:_NumberFormatter_get_IsZeroInteger_m2263284741
mya:__ZNSt3__26__treeINS_12__value_typeIiNS_4pairIP4ListI8ListNodeI9BehaviourEES8_EEEENS_19__map_value_compareIiSA_NS_4lessIiEELb1EEENS_9allocatorISA_EEE7destroyEPNS_11__tree_nodeISA_PvEE
rRj:_GameLoader_LoadCar_m3116504473
Lcj:_X509Certificate_PEM_m2020851166
osh:_Array_InternalArray__Insert_TisDateTime_t3738529785_m2308632330_gshared
HOa:__ZN11TimeManager8TransferI19StreamedBinaryWriteILb0EEEEvRT_
_pg:_TlsServerCertificateRequest_ProcessAsTls1_m3214041063
nEe:__ZL55WheelJoint2D_t1756757149_CustomAttributesCacheGeneratorP21CustomAttributesCache
fad:_compare_uni_maps
grd:__ZN11UnityEngine15PlatformWrapper27GetGraphicsCapsSupportFlagsEv
mRi:_Dictionary_2_Do_ICollectionCopyTo_TisRuntimeObject_m3695543300_gshared
jjb:__ZN12NativeBufferI16Converter_StringE15SetupForWritingER9ArrayInfo
cwh:_SequentialSearchPrimeGeneratorBase_GenerateSearchBase_m3595783982
Cw:__ZN13RuntimeStaticI18AssetBundleManagerLb1EE16StaticInitializeEPv
oCk:___cxa_end_catch__wrapper
Xwd:__GLOBAL__sub_I_artifacts_WebGL_codegenerator_0_cpp_7402
rNg:_Char_ToString_m278452217
l3h:_ReadOnlyCollection_1_System_Collections_IList_set_Item_m4047645019_gshared
Jxd:__ZL50__ManagedRegistrationHelperFunction_ReferencePointPv
Thg:_BigInteger_op_RightShift_m460065452
Yqb:__ZN13MonoBehaviour22DoScriptRebuildWarningEv
h7j:__ZN6il2cpp6icalls8mscorlib6System5Array13ClearInternalEP11Il2CppArrayii
N$f:_RectMask2D_get_rootCanvasRect_m2913509457
kgd:__Z38TextGenerator_Get_Custom_PropLineCountP12Il2CppObject
jyk:_llvm_cttz_i32
lBg:_Encoding_GetEncoding_m2801244948
eyc:__ZN11IMGUIModule25GetGUIStyleScriptingClassEv
Fcd:_tt_get_interface
_bj:_SslStreamBase_EndRead_m495357226
j6j:__ZN6il2cpp5utils9PathUtils7CombineIcEENSt3__212basic_stringIT_NS3_11char_traitsIS5_EENS3_9allocatorIS5_EEEERKSA_SC_
Yui:__Z64RuntimeInvoker_RuntimeObject_SByte_t1669577662_SByte_t1669577662PFvvEPK10MethodInfoPvPS4_
zpj:_GUIScrollGroup_CalcHeight_m3173593443
UZe:_EnumBuilder_GetConstructorImpl_m3068576149
oS:__Z18ConvertUTF16toUTF8PPKtS0_PPhS2_15ConversionFlags
gik:__ZN6il2cpp2os20PathErrnoToErrorCodeERKNSt3__212basic_stringIcNS1_11char_traitsIcEENS1_9allocatorIcEEEEi
fLe:__ZL68InputField_t3762917431_CustomAttributesCacheGenerator_m_KeyboardTypeP21CustomAttributesCache
qpc:__Z24GetActualTargetFrameRatev
XEj:__ZL16my_g_bit_nth_msfj
qug:_SHA512Managed_Sigma1_m922902398
n2i:_Enumerator_MoveNext_m3662315381_AdjustorThunk
Ipg:_TlsClientFinished_ProcessAsTls1_m2429863130
eKb:__Z23SetupStereoFlareElementP11FlareVertexRK8Vector2fS3_S3_RK11ColorRGBA32RK10Matrix4x4fRK8Vector3fb
qJj:__ZN6il2cpp2vm5Class15GetInstanceSizeEPK11Il2CppClass
ta:invoke_iiiifiiii
gOi:_Array_InternalArray__set_Item_TisPlayerLoopSystem_t105772105_m93492520_gshared
UIf:_Vector2_Equals_m832062989_AdjustorThunk
Ujf:_ShimEnumerator_MoveNext_m2406150314_gshared
DCb:__ZL19BlitFramebufferImplRN4gles23BlitFramebufferDrawQuadER9GfxDevice9TextureIDRK8Vector4f
BWj:__ZN15dense_hashtableINSt3__24pairIK10KeyWrapperIPK10Il2CppTypeEjEES6_N6il2cpp8metadata14Il2CppTypeHashEN14dense_hash_mapIS6_jSB_NS6_14EqualsComparerINSA_26Il2CppTypeEqualityComparerEEENS0_9allocatorIS8_EEE9SelectKeyESF_SH_E4findERS7_
tzk:dynCall_viiiiiiiiiiiiii
g4c:_UNITY_FT_List_Add
Djc:__ZN14Texture2DArray11InitTextureEiii13TextureFormatb
Hdj:_X509Extension__ctor_m1474351312
vfi:_InvokableCall_1_Invoke_m1524307439_gshared
u7:__ZN9Scripting11UnityEngine10Vector2Int12CleanupProxyEv
j0g:_Directory_CreateDirectoriesInternal_m3735342319
dsc:__Z41Camera_CUSTOM_WorldToScreenPoint_InjectedP12Il2CppObjectRK8Vector3fRS1_
IZf:_LayoutUtility_GetLayoutProperty_m3731360667
w$j:__ZN15dense_hashtableINSt3__24pairIK10KeyWrapperINS1_IPK11Il2CppImageP11Il2CppClassEEEjEES9_17ReflectionMapHashIS8_EN14dense_hash_mapIS9_jSD_NS9_14EqualsComparerINS0_8equal_toIS8_EEEENS0_9allocatorISB_EEE9SelectKeyESI_SK_E14squash_deletedEv
vug:_SHAConstants__cctor_m1699027474
BQc:__ZN39b2PrepareDiscreteIslandContactIndexTask7TaskJobEPS_j
zOb:__ZNK6Camera26GetStereoSingleCullEnabledEv
yRa:__Z14resize_trimmedINSt3__26vectorIN4core12basic_stringIcNS2_20StringStorageDefaultIcEEEE13stl_allocatorIS6_L18MemLabelIdentifier13ELi16EEEEEvRT_j
sab:__Z18Transfer_BlittableI14SafeBinaryReadLb0EaEvRK29SerializationCommandArgumentsR31RuntimeSerializationCommandInfo
vNg:_CharEnumerator_System_Collections_IEnumerator_get_Current_m1328529384
Aeh:_DBNull__ctor_m3431698857
aFa:__ZN4core8hash_setINS_4pairIKiiLb0EEENS_9hash_pairINS_4hashIiEES2_iEENS_10equal_pairINSt3__28equal_toIiEES2_iEEE6insertERKS3_
aEj:_AnimationLayerMixerPlayable__ctor_m860721801
xed:_UNITY_FT_List_Iterate
QMg:_Char_System_IConvertible_ToUInt64_m3536560782
CEh:_EqualityComparer_1__cctor_m3452395357_gshared
EIb:__Z20SyncFenceCullResultsR11CullResults
jEb:__ZN15TextureTFMethod20IsBoneCountSupportedEi
Zhh:_Double_ToString_m3828879243_AdjustorThunk
Oeb:__Z22TransferField_NonArrayI17RemapPPtrTransfer27Converter_SimpleNativeClassI8GUIStyleEEvRK23StaticTransferFieldInfoR31RuntimeSerializationCommandInfoRT0_
WPe:_TextReader_Synchronized_m3004980758
dwd:__ZNK20UnityWebRequestProtoI24UnityWebRequestTransport16AtomicRefCounter14RedirectHelper14ResponseHelper15DownloadHandler13UploadHandler18CertificateHandler12HeaderHelper14AsyncOperationE16GetUploadedBytesEv
Mdc:__ZNK17AnimationCurveTplIfE20EvaluateWithoutCacheEfRf
_yi:__Z67RuntimeInvoker_Boolean_t97287965_Rect_t2360479859_SByte_t1669577662PFvvEPK10MethodInfoPvPS4_
Lma:__ZN19ShaderPropertySheet10SetTextureERK23FastTexturePropertyNameP7Texture
GXe:_CustomAttributeData__ctor_m2966233049
LFd:_CanvasUpdateRegistry_PerformUpdate_m1793997159
ioc:__ZN4Mesh10SetNormalsEPK8Vector3fj
Yqj:_AesManaged_CreateDecryptor_m692040246
pjk:__ZNSt3__212basic_stringIDsNS_11char_traitsIDsEENS_9allocatorIDsEEE9__grow_byEjjjjjj
fv:__ZN17AnimationCurveTplIfE8TransferI14SafeBinaryReadEEvRT_
GNi:_Array_InternalArray__set_Item_TisInt16_t2552820387_m2544074754_gshared
THg:_ArithmeticException__ctor_m3551809662
cD:__ZNK11AudioSource9IsPlayingEv
JDa:__ZNSt3__26vectorIN15QualitySettings14QualitySettingENS_9allocatorIS2_EEE6assignIPS2_EENS_9enable_ifIXaasr21__is_forward_iteratorIT_EE5valuesr16is_constructibleIS2_NS_15iterator_traitsIS9_E9referenceEEE5valueEvE4typeES9_S9_
eFh:_EqualityComparer_1__cctor_m3995042002_gshared
F0c:__GLOBAL__sub_I_artifacts_WebGL_codegenerator_0_cpp_5479
wOh:_List_1_CheckCollection_m1671972112_gshared
Shf:_Enumerator_System_Collections_IEnumerator_get_Current_m1747693366_gshared
XQh:_UnicodeEncoding_GetPreamble_m3002287178
avj:_AudioSource_get_spatialize_m3609701298
nNe:__ZL56Toggle_t2735377061_CustomAttributesCacheGenerator_m_IsOnP21CustomAttributesCache
A7a:__ZN20GpuProgramParameters14AddVectorParamEPKcii15ShaderParamTypeiiiP16PropertyNamesSet
cvd:__ZN9Scripting19UnityEngineInternal15WebRequestUtils12CleanupProxyEv
zvd:__ZNK12HeaderHelper3GetERKN4core12basic_stringIcNS0_20StringStorageDefaultIcEEEE
_Oa:__ZN9InputAxis8TransferI14SafeBinaryReadEEvRT_
DT:__ZNK21ExecutionOrderManager30GetCustomAwakeFromLoadQueueForEPKN5Unity4TypeE
yud:__Z27RegisterModule_UnityConnectv
Wfc:__ZZL31RegisterRectTransformPropertiesR22GenericPropertyBindingEN32Wrapper_RectTransformSizeDeltax013GetFloatValueEPv
h3g:_MemoryStream_Expand_m3554752073
TZj:__ZN6il2cpp2vm10Reflection27GetCustomAttributesCacheForEP25Il2CppReflectionParameter
PFf:_ScriptableObject_CreateInstance_m2611081756
lpe:__ZL115TouchScreenKeyboard_t731888065_CustomAttributesCacheGenerator_TouchScreenKeyboard_Open_m3609399077____keyboardType1P21CustomAttributesCache
sbf:_InternalEnumerator_1_System_Collections_IEnumerator_get_Current_m1635397542_gshared
O3g:_Path__cctor_m3273994011
yrj:_AnalyticsEventTracker__ctor_m3064238498
Ixk:__ZNSt11logic_errorD2Ev
Vch:_DateTimeUtils_CountRepeat_m3396693018
qWc:__ZNK17Physics2DSettings22GetTypeVirtualInternalEv
bEk:_glBindRenderbuffer__wrapper
FB:__ZN10ObjectPoolIN4FMOD12ChannelGroupENS0_13ChannelGroupIEE7SetSizeEi
Jqj:_SymmetricTransform_FinalDecrypt_m764004682
vKc:__ZN12b2MouseJointC2EPK15b2MouseJointDef
XFc:__ZN9Scripting11UnityEngine26ParticleSystemVertexStream9InitProxyEv
tjj:_Parser_ParseGroupingConstruct_m263270497
wud:__ZN11UnityEngine9Analytics22EventLimitReachedEventC2EjyyRKN4core12basic_stringIcNS2_20StringStorageDefaultIcEEEEb
C$j:__ZN14dense_hash_mapI10KeyWrapperINSt3__24pairIPK9EventInfoP11Il2CppClassEEEj17ReflectionMapHashIS8_ENS9_14EqualsComparerINS1_8equal_toIS8_EEEENS1_9allocatorINS2_IKS9_jEEEEE15set_deleted_keyERSH_
ecb:__Z14resize_trimmedINSt3__26vectorI17AnimationCurveTplIfE13stl_allocatorIS3_L18MemLabelIdentifier1ELi16EEEEEvRT_j
fcc:__Z12GUIDToStringRK9UnityGUID
PJf:_Vector4_op_Division_m264790546
ZC:__ZN11SoundHandleC2ERKS_
tUf:_InputField_set_shouldHideMobileInput_m1650743574
MOj:__ZNK6il2cpp5utils11collections13ArrayValueMapIPK10Il2CppType17Il2CppInteropData26InteropDataToTypeConverterNS_8metadata14Il2CppTypeLessENS8_26Il2CppTypeEqualityComparerEE10find_firstERKS5_
OTc:__ZN16b2PrismaticJoint16SetMaxMotorForceEf
E1g:_FileStream_get_CanSeek_m331583577
Ir:__ZNSt3__26__sortIR23DependencySortPredicatePN4core4pairIiP9BehaviourLb0EEEEEvT0_S9_T_
rSf:_DSAParameters_t1885824122_marshal_pinvoke_back
Tvh:_Kernel_MultiplyByDword_m1266935086
mjk:__ZN4utf89unchecked8utf8to16INSt3__220back_insert_iteratorINS2_12basic_stringIDsNS2_11char_traitsIDsEENS2_9allocatorIDsEEEEEEPKcEET_T0_SE_SD_
qah:_Convert_ToInt64_m3916071102
voi:__Z158RuntimeInvoker_Boolean_t97287965_RuntimeObject_Int32U26_t1369213839_Int32_t2950945753_Int32_t2950945753_RuntimeObject_SByte_t1669577662_ContextU26_t3937453398PFvvEPK10MethodInfoPvPS4_
Wzg:_String_Trim_m3384720403
Mra:__ZN14RenderSettings18TransferDeprecatedI14SafeBinaryReadEEvRT_
Lsi:__Z93RuntimeInvoker_Single_t1397266774_SingleU26_t1922108698_Single_t1397266774_Single_t1397266774PFvvEPK10MethodInfoPvPS4_
C7j:__ZN6il2cpp2vm9Exception27RaiseNullReferenceExceptionERKNS_5utils10StringViewIDsEEP19Il2CppSequencePoint
znj:_Event__ctor_m526447123
Vvi:__Z88RuntimeInvoker_RuntimeObject_RuntimeObject_RuntimeObject_RuntimeObject_Int32_t2950945753PFvvEPK10MethodInfoPvPS4_
cXh:_Type_ToString_m3975981286
aP:__ZN12TLSAllocatorI14StackAllocatorE8AllocateEji
mwj:_ConsumeSampleFramesNativeFunction_BeginInvoke_m342678987
CU:__ZN16ScriptingManager18GetMonoScriptCacheEi
mGb:__ZN20ArchiveStorageHeader13GetDataOffsetERKNS_6HeaderE
Hjj:_ExpressionAssertion__ctor_m2554412824
ePi:_Array_Resize_TisCustomAttributeTypedArgument_t2723150157_m3021884250_gshared
PJh:_Enumerator_System_Collections_IEnumerator_get_Current_m2237476582_gshared
zab:__Z18Transfer_BlittableI14SafeBinaryReadLb1EyEvRK29SerializationCommandArgumentsR31RuntimeSerializationCommandInfo
o$h:_WeakReference_Finalize_m2841826116
QTe:_NullReferenceException__ctor_m3076065613
kzc:__ZN8JSONRead8TransferIfEEvRT_PKc17TransferMetaFlagsb
UYf:_LayoutGroup_OnDisable_m3483954898
_3b:__ZN9ShaderLab7Program22ComputeSupportsShadowsEv
Aag:_X509SubjectKeyIdentifierExtension_Decode_m1505409124
g4b:__ZL23AddGpuProgramParametersR20GpuProgramParametersRKNSt3__26vectorIN9ShaderLab20SerializedSubProgram15MatrixParameterENS1_9allocatorIS5_EEEERKNS2_INS4_15VectorParameterENS6_ISB_EEEEiiP16PropertyNamesSet
s2:__ZN6prcoreL17RemapGenericFloatI18TexFormatARGBFloat17TexFormatRGBAHalfEEvPKNS_9InnerInfoE
vrj:_AnalyticsEventParamListContainer__ctor_m1995104893
zzg:_String_System_IConvertible_ToUInt16_m2888090399
CWe:_Assembly_InternalGetType_m3065345470
PH:__ZN13Simd4iFactoryIN6detail9FourTupleEEC2Eiiii
PUd:_ResourceSet__ctor_m3356376607
Lae:__ZL56_ParameterInfo_t489405856_CustomAttributesCacheGeneratorP21CustomAttributesCache
dGa:__ZN15SerializeTraitsI33EnlightenTerrainChunksInformationE8TransferI14SafeBinaryReadEEvRS0_RT_
oLc:__ZN6b2Body12SetTransformERK6b2Vec2f
Akc:__ZNK32RendererMaterialAnimationBinding9BindValueER6ObjectRKN11UnityEngine9Animation14GenericBindingERNS3_10BoundCurveE
imf:_Transform_1_Invoke_m1731820209_gshared
JJj:__ZN6il2cpp2vm5Class11IsInterfaceEPK11Il2CppClass
tza:__ZL18stbir__support_onef
Syg:_Single_CompareTo_m189772128
ZAc:__Z26Transfer_UnityEngineObjectI9JSONWriteLb0EEvRK29SerializationCommandArgumentsR31RuntimeSerializationCommandInfo
Hdf:_DefaultComparer_Compare_m4042058291_gshared
AMd:_Image_set_overrideSprite_m3213596394
exa:__ZNSt3__26vectorIN4core12basic_stringIcNS1_20StringStorageDefaultIcEEEE13stl_allocatorIS5_L18MemLabelIdentifier1ELi16EEE6assignINS_11__wrap_iterIPS5_EEEENS_9enable_ifIXaasr21__is_forward_iteratorIT_EE5valuesr16is_constructibleIS5_NS_15iterator_traitsISF_E9referenceEEE5valueEvE4typeESF_SF_
Dmd:__ZNSt3__27__sort5IRNS_6__lessIN2UI14DepthSortEntryES3_EEPS3_EEjT0_S7_S7_S7_S7_T_
o1g:_FileLoadException_ToString_m2989457882
svj:_AudioListener_ClearExtensionProperties_m3849891634
N3c:_UNITY_FT_DivFix
xSi:_Array_InternalArray__get_Item_TisDecimal_t2948259380_m3511003792_gshared
yx:__ZL45__ManagedRegistrationHelperFunction_AudioClipPv
cXc:__ZN17PolygonCollider2D12SetPolygon2DEP9Polygon2D
kwg:_SecurityElement_IsValidAttributeValue_m948345692
Pjc:__ZN14Texture2DArrayC2E10MemLabelId18ObjectCreationMode
Ca:invoke_vdd
Dn:FUNCTION_TABLE_fiii
fQe:_TextWriter_Write_m2252948084
_mc:__Z19RegisterModule_Corev
Ygc:__ZNK30SpriteRendererAnimationBinding12GetPPtrValueERKN11UnityEngine9Animation10BoundCurveE
Tgd:__ZZ29InitializeTextRenderingModulevEN27cleanupAfterLoadRegistrator7ForwardEv
WSg:_CCFixed_FromDateTime_m3894190577
uUb:__Z29PluginsIssueRenderingExtEvent26UnityRenderingExtEventTypePv
Lni:__Z116RuntimeInvoker_RuntimeObject_RuntimeObject_Int32_t2950945753_RuntimeObject_RuntimeObject_RuntimeObject_RuntimeObjectPFvvEPK10MethodInfoPvPS4_
yNf:_MessageFormatter_ReadMethodCall_m2327590823
rjc:__Z14RandomRotationP9Texture2DPhiiii
Cqh:_Array_InternalArray__ICollection_Add_TisUInt16_t2177724958_m3981262878_gshared
Efh:_Decimal_GetBits_m453754410
cJh:_HashSet_1_Contains_m3173358704_gshared
ptj:_ToggleEvent__ctor_m834619998
dkg:_PKCS1_Encode_v15_m2077073129
I8a:__ZN10Instancing11DrawAPIArgsC2ERK19ShaderPropertySheetPK8Vector4fS6_S6_i
gEf:_RectOffset_get_left_m1232181034
k5j:__ZNSt3__214__split_bufferIN6il2cpp8metadata18GenericArrayMethodERNS_9allocatorIS3_EEED2Ev
o7a:__ZN4gles14UseGLSLProgramER15DeviceStateGLESjbij
HHk:_glDeleteProgram__wrapper
Fza:__ZN6prcoreL18BlitFloatToIntegerERK14ImageReferenceRS0_
Peh:_DBNull_System_IConvertible_ToUInt32_m3784627971
bog:_ClientSessionCache_Add_m964342678
wpc:__ZN23TransformChangeDispatch46GetAndClearChangedTransformsForMultipleSystemsEyR13dynamic_arrayI23TransformAccessReadOnlyLj0EERS0_IyLj0EEPN9profiling6MarkerE
jKb:__Z13GetIPhysics2Dv
VL:__ZN11UnityEngine15CloudWebService14RestDownloader17OnCompleteContentEv
sVj:__ZN15dense_hashtableINSt3__24pairIK10KeyWrapperINS1_IPK14Il2CppAssemblyP11Il2CppClassEEEjEES9_17ReflectionMapHashIS8_EN14dense_hash_mapIS9_jSD_NS9_14EqualsComparerINS0_8equal_toIS8_EEEENS0_9allocatorISB_EEE9SelectKeyESI_SK_E15insert_noresizeERKSB_
G8a:__ZN10Instancing11DrawAPIArgsC2Ev
SHf:_Transform_get_localScale_m129152068
Ufh:_DivideByZeroException__ctor_m3496959969
Pa:invoke_viffi
fek:__ZN6il2cpp2gcL10CleanupCCWEPvS1_
Sa:invoke_vifff
sGk:_glGetVertexAttribiv__wrapper
Re:_emscripten_request_fullscreen
Adi:_Predicate_1_Invoke_m851618236_gshared
Mrb:__ZN20LocalFileSystemWebGL6DeleteER13FileEntryDatab
Te:_emscripten_glDisableVertexAttribArray
nlh:_Array_InternalArray__ICollection_Remove_TisSingle_t1397266774_m3361324455_gshared
an:FUNCTION_TABLE_iiiifiiii
lc:invoke_fifffi
t$h:_Collection_1_System_Collections_IList_Add_m2969482770_gshared
Fwh:_BitConverterLE_GetBytes_m4130646282
TAb:__ZN4gles23ClearCurrentFramebufferEP7ApiGLESbbbRK10ColorRGBAffi
rhi:_UnityEvent_1_Invoke_m3604335408_gshared
cf:_emscripten_glDeleteObjectARB
Qzd:_EventSystem_RaycastComparer_m3685368675
Zf:_IMG_Load
yXc:__ZN14SafeBinaryRead21TransferSTLStyleArrayI13dynamic_arrayIS1_I8Vector2fLj0EELj0EEEEvRT_17TransferMetaFlags
txh:_DSAManaged_CreateSignature_m2233977444
bFg:_PKCS12_RemoveCertificate_m1421555398
X4f:_Slider_FindSelectableOnLeft_m1667068522
L2:__ZN6prcoreL17RemapGenericFloatI17TexFormatRGBAHalf18TexFormatARGBFloatEEvPKNS_9InnerInfoE
sOc:__ZNSt3__27__sort4IRN18Overlap2DQueryBase29ColliderHitsByDepthComparitorEPP10Collider2DEEjT0_S7_S7_S7_T_
hxc:__Z14GetBuiltinSkini
F$d:_MethodDictionary_get_Item_m1201458851
qH:___cxx_global_var_init_13
FH:___cxx_global_var_init_10
GH:___cxx_global_var_init_11
ol:_JS_SystemInfo_GetBrowserVersionString
aXa:__ZN2UI13RectTransform23VirtualRedirectTransferER14SafeBinaryRead
M1b:__ZNSt3__26vectorIN9ShaderLab20SerializedSubProgramENS_9allocatorIS2_EEE6assignIPS2_EENS_9enable_ifIXaasr21__is_forward_iteratorIT_EE5valuesr16is_constructibleIS2_NS_15iterator_traitsIS9_E9referenceEEE5valueEvE4typeES9_S9_
kDc:__Z18Transfer_BlittableI8JSONReadLb0E8BitFieldEvRK29SerializationCommandArgumentsR31RuntimeSerializationCommandInfo
Mvg:_SecurityPermission_set_Flags_m1503445204
YIh:_HashSet_1_CopyTo_m2849056227_gshared
Dkb:__ZL17Transfer_GUIStyleI18StreamedBinaryReadILb1EELb0EEvRK29SerializationCommandArgumentsR31RuntimeSerializationCommandInfo
Luc:__ZN9Scripting11UnityEngine15ScrollViewState9InitProxyEv
Bvh:_ModulusRing_Multiply_m343333088
Wze:__ZL76AnimatorTransitionInfo_t2534804151_CustomAttributesCacheGenerator_m_AnyStateP21CustomAttributesCache
G$b:__ZN9ShaderLab14SerializedPass8TransferI14SafeBinaryReadEEvRT_
Ewc:__Z71Register_UnityEngine_GUILayoutUtility_INTERNAL_CALL_Internal_MoveWindowv
aF:__ZN12AudioManager16SetListenerPauseEb
fXc:__ZThn160_N17PolygonCollider2DD0Ev
QUc:__ZNSt3__26__sortIRN10ClipperLib12LocMinSorterEPNS1_12LocalMinimumEEEvT0_S6_T_
oHc:__ZL50__ManagedRegistrationHelperFunction_ContactPoint2DPv
ea:invoke_viiiiiiiiiii
Dtk:___syscall_ret
yej:_DeriveBytes_set_Salt_m1400945044
ZBd:_PointerEventData_set_worldNormal_m1888481930
pkj:_AnchorInfo__ctor_m46784903
Jmg:_CipherSuiteCollection_get_Item_m4188309062
cbj:_SslHandshakeHash_HashFinal_m2573455475
HZd:_SynchronizationAttribute_ReleaseLock_m1030353464
nlc:__ZN14qsort_internal30FindAndMovePivotToLastPositionIP8Vector2fi26PointDistanceSortPredicateEEvT_S4_T0_T1_
Wod:__Z56Register_UnityEngine_Analytics_CustomEventData_AddDoublev
fIa:__ZN11ChannelInfo8TransferI19StreamedBinaryWriteILb0EEEEvRT_
sjk:__ZN4utf88internal13validate_nextIPKcEENS0_9utf_errorERT_S5_Rj
SSc:__ZN12WheelJoint2D8TransferI14SafeBinaryReadEEvRT_
oNe:__ZL53ToggleGroup_t123837990_CustomAttributesCacheGeneratorP21CustomAttributesCache
Mae:__ZL59_PropertyBuilder_t1366136710_CustomAttributesCacheGeneratorP21CustomAttributesCache
jXf:_InputField_CreateCursorVerts_m3585916868
h9b:__Z34Register_UnityEngine_Gradient_Initv
TYd:_Context_ToString_m1073616138
hJa:__ZN13ScreenManager23SetIsOrientationEnabledE18EnabledOrientationb
nUf:_InputField_EnforceTextHOverflow_m3400115777
Tzk:dynCall_viffffii
g1c:__ZN9Scripting11UnityEngine12TreeInstance9InitProxyEv
B_c:__Z22RecreatePhysicsWorld2Dv
cPa:__ZN9InputAxis8TransferI19StreamedBinaryWriteILb0EEEEvRT_
TYg:__Z33il2cpp_codegen_check_sub_overflowxx
gVf:_InputField_get_caretColor_m2973283772
wQc:__ZN14qsort_internal5QSortIPN25b2SynchronizeFixturesTask14b2DeferredMoveEiPFbRKS2_S5_EEEvT_S8_T0_T1_
H$f:_RectMask2D_get_Canvas_m9990042
yhh:_Double_System_IConvertible_ToInt16_m3591921965_AdjustorThunk
gbi:_Comparison_1_Invoke_m2925518770_gshared
dha:__ZN10GameObject23VirtualRedirectTransferER18StreamedBinaryReadILb0EE
sqj:_SymmetricTransform__ctor_m2693628991
wPe:_ObjectDisposedException__ctor_m1034312941
ug:_glFrontFace
J_f:_MaskUtilities_IsDescendantOrSelf_m2247511982
qia:__ZN12BaseRenderer21SetGlobalLayeringDataE18GlobalLayeringDataj
ygd:__Z51Register_UnityEngine_TextGenerator_GetLinesInternalv
Jmf:_Enumerator_get_Current_m2250080680_AdjustorThunk
drj:_AesManaged_set_Key_m767972181
WXg:_Int16_System_IConvertible_ToBoolean_m1656400658_AdjustorThunk
KLg:_Byte_System_IConvertible_ToInt64_m285584218
a2:__ZN6prcoreL17RemapGenericFloatI17TexFormatRGBFloat18TexFormatRGBAFloatEEvPKNS_9InnerInfoE
Xph:_Array_InternalArray__ICollection_Add_TisDictionaryEntry_t3123975638_m665385049_gshared
joe:__ZL57BootConfigData_t3818279794_CustomAttributesCacheGeneratorP21CustomAttributesCache
BRe:_MissingMemberException__ctor_m2707802176
akc:__ZN28ReflectionProbeAnchorManager10InitializeEv
xCj:_Canvas_get_renderMode_m841659411
r_c:__ZN16PhysicsManager2D12BeginContactEP9b2Contact
ePf:_SerializationInfo_GetValue_m42271953
ID:__ZN9AudioClip11CreateSoundEv
Q$j:__ZN14dense_hash_mapI10KeyWrapperINSt3__24pairIPK9FieldInfoP11Il2CppClassEEEj17ReflectionMapHashIS8_ENS9_14EqualsComparerINS1_8equal_toIS8_EEEENS1_9allocatorINS2_IKS9_jEEEEEC2EjRKSB_RKSF_
Nzf:_PlayerConnection_GetConnectionNativeApi_m3116196780
nXj:__ZNK15dense_hashtableINSt3__24pairIK10KeyWrapperINS1_IPK10MethodInfoP11Il2CppClassEEEjEES9_17ReflectionMapHashIS8_EN14dense_hash_mapIS9_jSD_NS9_14EqualsComparerINS0_8equal_toIS8_EEEENS0_9allocatorISB_EEE9SelectKeyESI_SK_E13find_positionERSA_
Y6b:__Z10tesvertLeqP10TESSvertexS0_
Mtd:__ZN11UnityEngine7Connect16PersistentValues13RestoreValuesER8JSONRead
phd:__ZN9Scripting11UnityEngine8Tilemaps8TileData9InitProxyEv
JXg:_Guid_BaseToString_m3600006650
L$a:__ZN20ArchiveStorageReader31TryToReadDirectoryFromBlockDataEyPKvj
bak:__ZN6il2cpp2vmL11GetIdentityEP14Il2CppIUnknown
ank:_GC_push_gc_structures
Spg:_TlsServerCertificate_ProcessAsTls1_m819212276
BRi:_Dictionary_2_Do_ICollectionCopyTo_TisRuntimeObject_m3942192587_gshared
cUj:__ZN6il2cpp6icalls8mscorlib6SystemL8IsPublicEPK9EventInfo
rig:_PrimalityTests_RabinMillerTest_m2544317101
sPc:__ZN27b2UpdateTriggerContactsTask7TaskJobEPS_j
whg:_Kernel_DwordDivMod_m1540317819
i2i:_Enumerator_System_Collections_IEnumerator_get_Current_m1399273671_gshared
ROd:_TypeBuilder_GetPropertyImpl_m3104345782
zIa:__ZNSt3__213__stable_sortIRNS_4lessI4PPtrI11SpriteAtlasEEENS_11__wrap_iterIPS4_EEEEvT0_SA_T_NS_15iterator_traitsISA_E15difference_typeEPNSD_10value_typeEi
Z_g:_Int64_ToString_m2085073918_AdjustorThunk
dlf:_Transform_1_Invoke_m4084479750_gshared
IPd:_FieldInfo_GetFieldOffset_m1356898082
urf:_Camera_RaycastTry_m3913529496
M_b:__ZN10BootConfig4Data14InitFromStringEPPKcjS2_
gQ:__ZN8keywords6CreateEPKc
jFj:__ZL7log2_32j
tCf:_Quaternion_Inverse_Injected_m4070500351
S:Math_imul
_2f:_ScrollRect_LateUpdate_m1215231183
fba:__ZN9Scripting11UnityEngine11ContextMenu9InitProxyEv
tLa:__ZN14SpriteRenderer15SetupPropertiesEv
lqg:_TlsServerKeyExchange_Update_m453798279
XDa:__ZN11PlayerPrefs6GetIntERKN4core12basic_stringIcNS0_20StringStorageDefaultIcEEEEi
Qmg:_CipherSuiteCollection_System_Collections_IList_IndexOf_m1361500977
Q5f:_Text_set_fontStyle_m648756124
ggd:__Z45TextGenerator_CUSTOM_INTERNAL_get_rectExtentsP12Il2CppObjectP5RectTIfE
Iw:__ZN9Scripting11UnityEngine18AssetBundleRequest12CleanupProxyEv
uch:_DateTime__ctor_m2135476686_AdjustorThunk
ZDc:__ZN13GUIStyleState8TransferI8JSONReadEEvRT_
TEf:_RectTransform_GetLocalCorners_m823861473
KPg:_SynchronizedArrayListWrapper_GetEnumerator_m1579424644
P0f:_Scrollbar_get_value_m760470106
dS:__ZN18ScriptingArguments9AddObjectE18ScriptingObjectPtr
hkd:__Z39CanvasGroup_Get_Custom_PropInteractableP12Il2CppObject
ZTc:__ZN16CircleCollider2D23VirtualRedirectTransferER18StreamedBinaryReadILb0EE
nsd:__ZL38InitializeUnityConnectScriptingClassesv
cVb:__ZN13ProbeRenderer8ConvolveEbijjb
iqj:_GUIUtility_set_systemCopyBuffer_m608712289
nBb:__ZN17GenericDynamicVBOC2ER9GfxDevice13GfxBufferModejj
IOc:__Z28GetPhysics2DScriptingClassesv
Bxc:__ZZN10GUIManager14InitGUIManagerEvEN41PreUpdateIMGUISendQueuedEventsRegistrator7ForwardEv
D9f:_ServicePointManager_get_SecurityProtocol_m966397919
fTg:_CCGregorianCalendar_day_from_fixed_m1674702403
UJ:__ZN11UnityEngine15CloudWebService17SessionEventQueue10PurgeItemsEj
HVb:__ZN6Camera16StandaloneRenderENS_10RenderFlagEP6ShaderRKN4core12basic_stringIcNS3_20StringStorageDefaultIcEEEE
ecg:_X509Chain_PrepareForNextCertificate_m3691934993
Tga:__ZN16LevelGameManager23VirtualRedirectTransferER24GenerateTypeTreeTransfer
Xjb:__Z18Transfer_BlittableI18StreamedBinaryReadILb1EELb1EtEvRK29SerializationCommandArgumentsR31RuntimeSerializationCommandInfo
DBe:__ZL58EventType_t3528516131_CustomAttributesCacheGenerator_keyUpP21CustomAttributesCache
Tce:__ZL57X509Certificate_t713131622_CustomAttributesCacheGeneratorP21CustomAttributesCache
eIa:__ZN12BoneWeights48TransferI19StreamedBinaryWriteILb0EEEEvRT_
C3a:__ZN9GfxDevice20DeallocRenderSurfaceEP17RenderSurfaceBase
G7a:__ZN20GpuProgramParameters36UpdatePrepareValuesMaximumBufferSizeEv
sth:_SimpleCollator_GetContraction_m2205549079
$ig:_ARC4Managed_GenerateKey_m1607343060
krh:_Array_InternalArray__ICollection_CopyTo_TisDecimal_t2948259380_m2749946216_gshared
cRa:__ZN30RuntimeInitializeOnLoadManager23VirtualRedirectTransferER14SafeBinaryRead
y2c:__ZN20TextRenderingPrivate8FontImpl13CharacterInfo8TransferI18StreamedBinaryReadILb0EEEEvRT_
ghb:__Z29Transfer_Blittable_ArrayFieldI24GenerateTypeTreeTransferfEvRT_R9ArrayInfoRK23StaticTransferFieldInfo
Ouf:_UnityEvent_FindMethod_Impl_m2312362624
iXb:__ZN19CustomRenderTexture9AddParentE4PPtrIS_E
Xbb:__ZN8Gradient8TransferI14SafeBinaryReadEEvRT_
yqf:_Vector3_GetHashCode_m2879461828
rjj:_Parser_ParseSpecial_m1961501104
Kyg:_Single_System_IConvertible_ToUInt64_m3299129161_AdjustorThunk
dxa:__ZNSt3__26vectorIN4core12basic_stringIcNS1_20StringStorageDefaultIcEEEE13stl_allocatorIS5_L18MemLabelIdentifier1ELi16EEE7reserveEj
O3c:__ZN20TextRenderingPrivate15DynamicFontData36GetFaceForCharacterIfAvailableInFontERKNS_7FontRefERK13dynamic_arrayI4PPtrIN13TextRendering4FontEELj0EEj
i9f:_IPv6Address_AsIPv4Int_m844941024
Mqg:_RecordProtocol__cctor_m1280873827
cyf:_Matrix4x4_MultiplyPoint_m1575665487_AdjustorThunk
ZVd:_Marshal__cctor_m4007734770
Wlk:_GC_new_free_list_inner
mzh:_SymmetricTransform_Random_m2004892672
Blk:_GC_err_printf
rxd:__ZN9Scripting11UnityEngine2XR13InputTracking12CleanupProxyEv
Lkg:_RSAManaged_DecryptValue_m1804388365
A2e:_InternalEnumerator_1_System_Collections_IEnumerator_get_Current_m2980550840_AdjustorThunk
_Dc:__ZN8JSONRead8TransferI10RectOffsetEEvRT_PKc17TransferMetaFlagsb
DJ:__ZN9JSONWrite8TransferIN11UnityEngine15CloudWebService14DataErrorEvent15FileErrorDetailEEEvRT_PKc17TransferMetaFlags
PZg:_Int32_Parse_m2087562008
GSd:_MonoProperty_GetAccessors_m412928203
Uii:_TweenRunner_1_Start_m3757154622_gshared
kA:__ZN12SoundManager20RegisterModifiedClipEP10SampleClip
gLf:_RemotingServices_GetClientChannelSinkChain_m1499550585
DWe:_Assembly_FillName_m1660001542
Aae:__ZL56_EventBuilder_t2558055199_CustomAttributesCacheGeneratorP21CustomAttributesCache
Xtg:_SHA384Managed_processBlock_m1272529332
RSh:_Interlocked_CompareExchange_m3023855514
sNg:_Char_ToString_m278452217_AdjustorThunk
pMj:__ZN15dense_hashtableI10KeyWrapperIPK17Il2CppGenericInstES4_N6il2cpp8metadata21Il2CppGenericInstHashEN14dense_hash_setIS4_S7_NS4_14EqualsComparerINS6_24Il2CppGenericInstCompareEEENSt3__29allocatorIS4_EEE8IdentityESB_SE_E13set_empty_keyERKS4_
lli:__Z63RuntimeInvoker_Char_t3634460470_Int16_t2552820387_RuntimeObjectPFvvEPK10MethodInfoPvPS4_
m9g:_Convert_ToDouble_m2924063577
XX:__Z17GetCoreModuleSpecv
bMh:_Enumerator_System_Collections_IEnumerator_get_Current_m3594024719_gshared
$Aa:__ZN7Cubemap23VirtualRedirectTransferER18StreamedBinaryReadILb0EE
Qdc:__ZNSt3__27__sort4IRNS_6__lessI11KeyframeTplIfES3_EEPS3_EEjT0_S7_S7_S7_T_
jdd:_Read_CVT
Y$a:__ZN12FileAccessor4SeekEx10FileOrigin
nt:__ZN9Scripting11UnityEngine25RuntimeAnimatorController12CleanupProxyEv
Vfb:__ZL26Transfer_SimpleNativeClassI24GenerateTypeTreeTransfer17AnimationCurveTplIfELb0EEvRK29SerializationCommandArgumentsR31RuntimeSerializationCommandInfo
D8g:_Convert_ToDecimal_m1783778724
Qjf:_ShimEnumerator_get_Value_m153531060_gshared
ATg:_DateTimeFormatInfo__ctor_m3106345035
Gng:_TlsServerKeyExchange_verifySignature_m3412856769
tEh:_EqualityComparer_1_System_Collections_IEqualityComparer_GetHashCode_m4137147946_gshared
u7i:_Collection_1_System_Collections_ICollection_CopyTo_m5285659_gshared
AZ:__ZN16LightmapSettings20DidChangeActiveSceneEP10UnitySceneS1_
iPe:__ZL59g_AssemblyU2DCSharp_Assembly_CustomAttributesCacheGeneratorP21CustomAttributesCache
qUj:__ZN6il2cpp5utils9PathUtils8BasenameIcEENSt3__212basic_stringIT_NS3_11char_traitsIS5_EENS3_9allocatorIS5_EEEERKSA_
kC:__ZN10AudioMixer11SetupGroupsEv
St:__ZN9Scripting11UnityEngine10Animations21AnimationClipPlayable9InitProxyEv
Evc:__Z35Register_UnityEngine_Event_get_typev
c8:__ZN9Scripting11UnityEngine9Rendering18GraphicsDeviceType12CleanupProxyEv
J7j:__ZN6il2cpp2vm9Exception23GetInvalidCastExceptionERKNS_5utils10StringViewIDsEE
GBk:_emscripten_glDepthRange__wrapper
dT:__Z63ThreadAndSerializationSafeCheckGetMonoBehaviourBeingTransferredv
h9:__ZN9Scripting11UnityEngine12LightmapData9InitProxyEv
OVi:_List_1_set_Item_m4224739467_gshared
NYe:_ConstructorBuilder_get_Name_m2426555260
vec:__Z37Register_UnityEngine_Input_GetAxisRawv
eaa:__ZN9Scripting11UnityEngine12Experimental10PlayerLoop6Update12CleanupProxyEv
sjj:_Parser_ParseCharacterClass_m4285351396
Gah:_Convert_ToSByte_m2653418303
U4g:_SyncHashtable__ctor_m2449935938
htg:_RSAPKCS1SignatureFormatter_SetKey_m2935054088
sKb:__ZN12ImageFilters27SetSurfaceUseResolvedBufferEP13RenderTextureb
MSf:_HashAlgorithm_TransformBlock_m4006041779
uIb:__ZN25CameraStackRenderingState16SetCurrentCameraEP6Camera
Fya:__ZN14Texture2DArray23VirtualRedirectTransferER18StreamedBinaryReadILb0EE
KRh:_UTF7Encoding_GetByteCount_m209415911
TWa:__ZN2UI13RectTransform13AwakeFromLoadE17AwakeFromLoadMode
_lj:_RegularExpression_Compile_m2385682508
OPb:__ZN14qsort_internal30FindAndMovePivotToLastPositionIP20ShadowCasterSortDatai26ShadowCasterSortDataSorterEEvT_S4_T0_T1_
q9a:__Z18Transfer_BlittableI14SafeBinaryReadLb1EiEvRK29SerializationCommandArgumentsR31RuntimeSerializationCommandInfo
kcg:_X509ExtensionEnumerator_get_Current_m256207749
jWf:_InputField_MoveTextStart_m1087475594
oSg:_EventArgs__cctor_m1889823314
yJg:_Array_Sort_m182264525
BYf:_LayoutGroup_set_padding_m282562135
vXe:_Default_IsArrayAssignable_m953489228
pYh:_UInt16_ToString_m355311020_AdjustorThunk
WTf:_RC2__ctor_m1146135664
Lk:_glGetStringi
rCg:_DecoderExceptionFallback_CreateFallbackBuffer_m1133375601
ock:__ZNK15dense_hashtableI10KeyWrapperIP18Il2CppGenericClassES3_N6il2cpp8metadata22Il2CppGenericClassHashEN14dense_hash_setIS3_S6_NS3_14EqualsComparerINS5_25Il2CppGenericClassCompareEEENSt3__29allocatorIS3_EEE8IdentityESA_SD_E10test_emptyERK30dense_hashtable_const_iteratorIS3_S3_S6_SF_SA_SD_E
Tgf:_Enumerator_get_CurrentKey_m889650866_gshared
HGf:_StackTraceUtility_PostprocessStacktrace_m1043256299
Zja:__ZN9Coroutine16SetCurrentMethodE18ScriptingMethodPtr
kgf:_Enumerator_VerifyCurrent_m829026141_gshared
pnc:__ZN16PropertyAccessorC2Ev
l5i:_Collection_1_ConvertItem_m1743542180_gshared
ngd:__Z38Register_UnityEngine_Font_HasCharacterv
bUb:__Z35IntersectSpherePlaneBoundsOptimizedRKN4math7_float4EPS1_i
osg:_RNGCryptoServiceProvider__cctor_m3587754670
zX:__ZN17TransformInternal21DetachTransformThreadER18TransformHierarchyjj
Nek:__ZN6il2cpp2os5posix15PosixWaitObject13InterruptWaitEv
fZ:__Z22CleanupLODGroupManagerPv
Avc:__Z21Event_CUSTOM_PopEventP12Il2CppObject
Jck:__ZN6il2cpp8metadata15GenericMetadata20RegisterGenericClassEP18Il2CppGenericClass
ul:_glUniform3fv
Trk:__ZNK6il2cpp8metadata24Il2CppGenericInstCompareclERK10KeyWrapperIPK17Il2CppGenericInstES8_
Fcg:_X509ChainElement_Set_m655180762
GGj:_CustomEventData_AddInt32_m548429697
qOb:__ZNK16LightmapSettings31GetRealtimeLightmapDecodeValuesEv
VB:__ZN5audio5mixer12SetSuspendedERNS0_16AudioMixerMemoryEb
bWa:__ZN17PersistentManager21UnloadNonDirtyStreamsEv
osi:__Z96RuntimeInvoker_Int32_t2950945753_RuntimeObject_Int32_t2950945753_RuntimeObject_Int32_t2950945753PFvvEPK10MethodInfoPvPS4_
Srj:_AnalyticsEventTracker_OnEnable_m1121905268
zmj:_Uri_get_Parser_m3737125102
GCj:_Canvas_get_overrideSorting_m2740418462
_sf:_Debug_LogFormat_m309087137
HLg:_Byte_System_IConvertible_ToInt16_m4136764794_AdjustorThunk
VJa:__ZN12ImageFilters4BlitER17ShaderPassContextP7TextureP13RenderTextureiPK18SharedMaterialDataPKcP6ShaderiNS_9BlitFlagsE11CubemapFaceRK8Vector2fSH_
xAg:_String_LastIndexOf_m3451222878
phj:_Mark_get_Index_m3048692661
ANe:__ZL69CanvasScaler_t2767979955_CustomAttributesCacheGenerator_m_ScaleFactorP21CustomAttributesCache
cK:__ZN11UnityEngine15CloudWebService10RestClientINS0_23WebRequestRestHeaderMapEED2Ev
Rl:_emscripten_glDepthMask
lMf:_RemotingServices_CreateClientProxy_m3886727610
lCa:__ZN4crnd25static_huffman_data_model22prepare_decoder_tablesEv
Rqg:_RecordProtocol_GetMessage_m2086135164
FZ:__Znaj
fIk:_emscripten_glEnableClientState__wrapper
xvd:__ZN20UnityWebRequestProtoI24UnityWebRequestTransport16AtomicRefCounter14RedirectHelper14ResponseHelper15DownloadHandler13UploadHandler18CertificateHandler12HeaderHelper14AsyncOperationE26Job_ExecuteUnityWebRequestEPS9_
kP:__ZN17MessageIdentifierC2EPKcNS_7OptionsEPKN5Unity4TypeES1_
Tyf:_Mesh_SetTriangles_m1523451247
zyg:_Single_System_IConvertible_ToSByte_m1208276900
tOi:_Array_InternalArray__set_Item_TisVector4_t3319028937_m757305038_gshared
ngc:__ZNSt3__26__treeIPc15compare_tstringIPKcENS_9allocatorIS1_EEE25__emplace_unique_key_argsIS1_JS1_EEENS_4pairINS_15__tree_iteratorIS1_PNS_11__tree_nodeIS1_PvEEiEEbEERKT_DpOT0_
ATc:__ZN13SliderJoint2D23VirtualRedirectTransferER18StreamedBinaryReadILb0EE
Hqi:__Z105RuntimeInvoker_Void_t1185182177_RuntimeObject_RuntimeObject_RuntimeObject_RuntimeObject_Int32_t2950945753PFvvEPK10MethodInfoPvPS4_
qnf:_ValueCollection_System_Collections_Generic_ICollectionU3CTValueU3E_Add_m3298059628_gshared
Jli:__Z64RuntimeInvoker_RuntimeObject_Int16_t2552820387_Int16_t2552820387PFvvEPK10MethodInfoPvPS4_
LF:__Z55Register_UnityEngine_AudioSource_get_spatializeInternalv
Lw:__ZN14SafeBinaryRead8TransferI14ConstantStringEEvRT_PKc17TransferMetaFlags
vIb:__ZNK6Camera16GetStereoEnabledEv
qvi:__Z72RuntimeInvoker_Int32_t2950945753_TimeSpan_t881159249_TimeSpan_t881159249PFvvEPK10MethodInfoPvPS4_
qrg:_SendRecordAsyncResult_SetComplete_m153213906
MFa:__ZN16LightmapSettings23VirtualRedirectTransferER19StreamedBinaryWriteILb0EE
Sjc:__ZN12LightManager15InitializeClassEv
yUh:_WaitHandle__cctor_m4242752477
Qva:__ZN9ShaderLab11shaderprops16GetComputeBufferEPK19ShaderPropertySheetS3_NS_16FastPropertyNameE
Ujk:__ZN6il2cpp6icalls8mscorlib6System10Reflection10MethodBase31GetMethodFromHandleInternalTypeEii
_U:__ZN23ManagedAttributeManager35CallManagedGetDefaultExecutionOrderE17ScriptingClassPtr
rS:__ZN18ScriptingArgumentsC2Ev
Uqf:_Vector3_op_Equality_m4231250055
BDk:_emscripten_glBlendFuncSeparate__wrapper
gGa:__ZN15SerializeTraitsI13dynamic_arrayI7Hash128Lj0EEE19ResizeSTLStyleArrayERS2_i
T0g:_FileSystemInfo__ctor_m3769019897
fTi:_Array_InternalArray__get_Item_TisContentType_t1787303396_m421427711_gshared
UJb:__ZNK25CameraStackRenderingState27GetStereoImageEffectTextureEb
oTf:_HMACSHA384__ctor_m1677515580
_aj:_RIPEMD160Managed_J_m1336489154
juc:__ZL52__ManagedRegistrationHelperFunction_PlayableDirectorPv
TQj:__ZN6il2cpp6icalls6System6System3Net7Sockets6Socket7ReceiveEiP11Il2CppArrayiiNS4_11SocketFlagsEPi
C8b:__ZN13BuildSettings13GetSceneIndexERKN4core12basic_stringIcNS0_20StringStorageDefaultIcEEEE
Do:FUNCTION_TABLE_ii
rga:__ZN10TagManager8TransferI18StreamedBinaryReadILb0EEEEvRT_
zAc:__Z18Transfer_BlittableI9JSONWriteLb0E8BitFieldEvRK29SerializationCommandArgumentsR31RuntimeSerializationCommandInfo
Z2g:_MemoryStream_set_Capacity_m1773624579
s4j:__ZNK15dense_hashtableINSt3__24pairIK10KeyWrapperINS1_IP11Il2CppClassjEEES4_EES6_N6il2cpp8metadata14ArrayClassHashEN14dense_hash_mapIS6_S4_SB_NS6_14EqualsComparerINSA_17ArrayClassCompareEEENS0_9allocatorIS8_EEE9SelectKeyESF_SH_E10test_emptyEj
A0b:__ZNSt3__26vectorIN9ShaderLab20SerializedSubProgram15StructParameterENS_9allocatorIS3_EEE8__appendEj
tb:invoke_diiii
hCk:b47
ws:__ZL57__ManagedRegistrationHelperFunction_AnimationClipPlayablePv
vxi:__Z95RuntimeInvoker_Void_t1185182177_RuntimeObject_RuntimeObject_SByte_t1669577662_SByte_t1669577662PFvvEPK10MethodInfoPvPS4_
LZb:__Z24CreateDirectoryRecursiveRKN4core12basic_stringIcNS_20StringStorageDefaultIcEEEE
VBk:b41
O2b:__ZN9ShaderLab20SerializedSubProgram8TransferI18StreamedBinaryReadILb0EEEEvRT_
UBk:b40
ZBk:b43
OQ:__ZN13RuntimeStaticI21ScalableBufferManagerLb0EE13StaticDestroyEPv
Did:__ZN2UI13CanvasManager9AddCanvasEPNS_6CanvasE
LJa:__ZN9Texture3D8TransferI19StreamedBinaryWriteILb0EEEEvRT_
aLb:__ZNK6Camera22CalculateRenderingPathEv
WBk:b42
UBc:__ZN9JSONWrite8TransferI5RectTIfEEEvRT_PKc17TransferMetaFlags
SCb:__Z13ConvertMipmap14GraphicsFormatPKvS_Pviiii
kGa:__ZN28EnlightenRendererInformation8TransferI14SafeBinaryReadEEvRT_
sw:__ZN9Scripting11UnityEngine2XR5Tango24MeshReconstructionServer9InitProxyEv
Beb:__ZL12InvokeMethodI17RemapPPtrTransferEvRK29SerializationCommandArgumentsR31RuntimeSerializationCommandInfo
g8f:_RemoteCertificateValidationCallback_Invoke_m3086073466
OBg:_StringComparer_Compare_m991165676
Xad:_tt_sbit_decoder_load_image
vua:__Z14IsHalfRTFormat19RenderTextureFormat
LXg:_Guid_ToString_m3279186591
Gii:_U3CStartU3Ec__Iterator0_Dispose_m261027331_gshared
Lxc:__ZNSt3__24listIN10GUIManager12SortedScriptE11memory_poolIS2_EE6__sortI13OldSortScriptEENS_15__list_iteratorIS2_PvEESA_SA_jRT_
f8i:_Collection_1_System_Collections_IList_Add_m3364892189_gshared
iWi:_List_1_AddEnumerable_m3500350831_gshared
qkg:_PrivateKeyInfo_get_PrivateKey_m3647771102
x6j:__ZN6il2cpp6icalls8mscorlib6System9ThreadingL11ThreadStartEPv
W$:__ZN15DirectorManager12OnSampleTimeEv
wOd:_TypeBuilder_check_not_created_m3652863637
rDd:_StandaloneInputModule_UpdateModule_m450861257
A9h:_ReadOnlyCollection_1_System_Collections_IList_Insert_m2928873627_gshared
XFh:_EqualityComparer_1__cctor_m314889309_gshared
Hda:__ZN12CachedReader10Align4ReadEv
PLc:__ZN15b2WorldManifold10InitializeEPK10b2ManifoldRK11b2TransformfS5_f
kfj:_X501__cctor_m2428304915
FCj:_Canvas_get_renderOrder_m1489855841
gmi:__Z50RuntimeInvoker_Void_t1185182177_Single_t1397266774PFvvEPK10MethodInfoPvPS4_
qEg:_X501_ToString_m4186311521
Pnj:_Event_ToString_m1688862299
qea:__ZNK9Behaviour22GetTypeVirtualInternalEv
tIb:__ZN13RendererScene17BeginCameraRenderEv
eTg:_CCGregorianCalendar_month_from_fixed_m4268992710
Unh:_Array_compare_TisUICharInfo_t75501106_m1310495481_gshared
W1c:__ZN20TextRenderingPrivate8FontImpl8TransferI14SafeBinaryReadEEvRT_
_5:__ZL51__ManagedRegistrationHelperFunction_HideInInspectorPv
Vze:__ZL82AnimatorTransitionInfo_t2534804151_CustomAttributesCacheGenerator_m_NormalizedTimeP21CustomAttributesCache
N7h:_ReadOnlyCollection_1_System_Collections_IList_Clear_m4022532825_gshared
nBg:_Encoding_get_ASCII_m3595602635
m4a:__ZN9GfxDevice17ImmediateTexCoordEifff
tVc:__ZN10ClipperLib7Clipper13AppendPolygonEPNS_5TEdgeES2_
HZe:_DerivedType_GetCustomAttributes_m3536779709
Lfe:__ZL93Interlocked_t2273387594_CustomAttributesCacheGenerator_Interlocked_CompareExchange_m388540288P21CustomAttributesCache
EOd:_MethodBase_get_IsAbstract_m428833029
Zr:__ZN13ConstraintJob23ConstraintComponentDataC2ERK18PositionConstraint
wBk:_emscripten_glUniform4f__wrapper
sMh:_Enumerator_MoveNext_m2595190390_AdjustorThunk
dNb:__ZNK6Camera16GetProjectionFarEv
sr:__Z24InverseTransformRotationRK23TransformAccessReadOnlyRKN4math7_float4E
TGc:__ZN11UnityEngine9Analytics16StartupTimeEvent23SetSplashScreenTimeInfoEyyy
kgj:_X509Chain_Build_m2469702749
Oud:__Z31GetPerformanceReportingSettingsv
s7d:__ZL64Path_t1605229823_CustomAttributesCacheGenerator_InvalidPathCharsP21CustomAttributesCache
mAa:__ZN7Texture34CreateFileTextureUploadInstructionE18TextureUploadFlagsj
AZd:__ZN25GenericVirtActionInvoker06InvokeEPK10MethodInfoP12Il2CppObject
$0d:__ZL64SerializableAttribute_t1992588303_CustomAttributesCacheGeneratorP21CustomAttributesCache
F0a:__ZN25SingleBlockMemoryFileDataC2E10MemLabelIdPvjb
HMc:__ZNK14b2CapsuleShape5CloneEP16b2BlockAllocator
SG:__ZN16BaseVideoTexture19UpdateVideoTexturesEv
FRd:_MonoField_GetValue_m3124733531
CUa:__ZNK16LightmapSettings23HasLightProbeTetrahedraEv
QGa:__ZN6Sprite23VirtualRedirectTransferER19StreamedBinaryWriteILb0EE
L8b:__ZN2UI13RectTransform12SetAnchorMaxERK8Vector2f
E4j:__ZN14dense_hash_mapI10KeyWrapperIP11Il2CppClassES2_N6il2cpp8metadata16SZArrayClassHashENS3_14EqualsComparerINS5_19SZArrayClassCompareEEENSt3__29allocatorINSA_4pairIKS3_S2_EEEEE13set_empty_keyERSD_
eAd:_EventTrigger_Execute_m2453060771
Pai:_Comparison_1_Invoke_m517083441_gshared
pWj:__ZNK15dense_hashtableINSt3__24pairIK10KeyWrapperINS1_IPK9FieldInfoP11Il2CppClassEEEjEES9_17ReflectionMapHashIS8_EN14dense_hash_mapIS9_jSD_NS9_14EqualsComparerINS0_8equal_toIS8_EEEENS0_9allocatorISB_EEE9SelectKeyESI_SK_E5beginEv
ehk:__ZN6il2cpp2os6Thread15CurrentThreadIdEv
PEi:__Z82RuntimeInvoker_Boolean_t97287965_Int32_t2950945753_Int32_t2950945753_RuntimeObjectPFvvEPK10MethodInfoPvPS4_
zAb:__ZN14DataBufferGLES11CopySubDataEPKS_jjj
je:_emscripten_glVertexPointer
DUj:__ZN6il2cpp2vm7Runtime47RaiseExecutionEngineExceptionIfMethodIsNotFoundEPK10MethodInfo
Xhj:_PatternCompiler_GetMachineFactory_m3758869886
tQb:__Z17GetFrustumPortionPK8Vector3fffPS_
y9j:__ZN15dense_hashtableINSt3__24pairIK10KeyWrapperIP14Il2CppIUnknownEjEES5_N6il2cpp5utils11PointerHashIS3_EEN14dense_hash_mapIS5_jSB_NS5_14EqualsComparerINS0_8equal_toIS4_EEEENS0_9allocatorIS7_EEE9SelectKeyESG_SI_E14squash_deletedEv
vAd:_EventTrigger_OnCancel_m585099428
dpj:_GUILayoutEntry_ApplyOptions_m1741659338
UPf:_RuntimeTypeHandle_Equals_m2857439487_AdjustorThunk
J2a:__ZNK9GfxDevice27GetPlatformAdjustedViewportEv
h2f:_ScrollRect_get_rectTransform_m2442061719
H4h:_ReadOnlyCollection_1_System_Collections_Generic_IListU3CTU3E_set_Item_m88350439_gshared
IV:__ZNSt3__26vectorINS_4pairIiiEE13stl_allocatorIS2_L18MemLabelIdentifier38ELi16EEE6insertENS_11__wrap_iterIPKS2_EEOS2_
H$:__ZNSt3__26__treeINS_12__value_typeIPvsEENS_19__map_value_compareIS2_S3_NS_4lessIS2_EELb1EEE13stl_allocatorIS3_L18MemLabelIdentifier86ELi16EEE25__emplace_unique_key_argsIS2_JNS_4pairIS2_sEEEEENSD_INS_15__tree_iteratorIS3_PNS_11__tree_nodeIS3_S2_EEiEEbEERKT_DpOT0_
Psj:_StandardEventPayload_IsRequiredDataValid_m361738930
Fkj:_Reference_Compile_m4195878675
e7h:_ReadOnlyCollection_1_System_Collections_ICollection_CopyTo_m2672196987_gshared
snc:__ZN16StreamedResource8TransferI24GenerateTypeTreeTransferEEvRT_
sEf:_RectTransform_get_anchorMin_m2928307238
DNg:_ArrayList__ctor_m3828927650
Yna:__ZN10Matrix3x3f15InvertTransposeEv
ppj:_GUILayoutGroup_SetHorizontal_m996475327
gpj:_GUILayoutEntry__cctor_m663865902
QHb:__Z11IsBatchmodev
XKh:_Enumerator_System_Collections_IEnumerator_get_Current_m713684915_gshared
bdb:__Z29Transfer_Blittable_ArrayFieldI14SafeBinaryRead8Vector3fEvRT_R9ArrayInfoRK23StaticTransferFieldInfo
L2c:__ZN20TextRenderingPrivate8FontImpl18ResetCachedTextureEv
fTj:__ZN6il2cpp6icalls8mscorlib6SystemL16GetFieldFromTypeINS_5utils10functional6FilterINSt3__212basic_stringIcNS7_11char_traitsIcEENS7_9allocatorIcEEEENS4_13VmStringUtils21CaseSensitiveComparerEEEEEP21Il2CppReflectionFieldP11Il2CppClassSK_iRKT_
Dag:_X509KeyUsageExtension_Decode_m3150759625
Emk:_GC_print_finalization_stats
PJc:__ZNK12b2WheelJoint10GetAnchorBEv
Wpj:_GUITargetAttribute_GetGUITargetAttrValue_m2954410352
o9b:__Z53Register_UnityEngine_Behaviour_get_isActiveAndEnabledv
GJg:_SimpleEnumerator_get_Current_m72361444
Tq:__ZNSt3__26vectorIN4core12basic_stringIcNS1_20StringStorageDefaultIcEEEENS_9allocatorIS5_EEE8__appendEj
y2j:_il2cpp_gc_collect
OPa:__ZN26PlayerSettingsSplashScreen8TransferI17RemapPPtrTransferEEvRT_
xwh:_ASN1_set_Value_m2803403806
mTj:__ZN6il2cpp6icalls8mscorlib6SystemL17CollectTypeFieldsINS_5utils10functional10TrueFilterEEEvP11Il2CppClassPKS7_iRNSt3__26vectorIP9FieldInfoNSB_9allocatorISE_EEEERKT_
jac:__Z13GetTagManagerv
iHg:_Hashtable__ctor_m1815022027
hSh:_UTF8Encoding_GetChars_m1433288684
$Fj:_Physics2D_GetRayIntersectionNonAlloc_Internal_m177321563
aFj:__ZL10roundUp128PyS_
yI:__ZN11UnityEngine15CloudWebService17CloudJobSchedulerD0Ev
J1e:_ArrayReadOnlyList_1_Contains_m381552673_gshared
nGc:__ZN11UnityEngine9Analytics26PerformanceReportingConfig13ConfigChangedERKN4core12basic_stringIcNS2_20StringStorageDefaultIcEEEER8JSONRead
UVh:_TimeZone_ToUniversalTime_m2789507578
cmi:__Z96RuntimeInvoker_Boolean_t97287965_RuntimeObject_RuntimeObject_Int32_t2950945753_Int32_t2950945753PFvvEPK10MethodInfoPvPS4_
voh:_Array_IndexOf_TisUICharInfo_t75501106_m3198896198_gshared
gpg:_Context_get_Current_m2853615040
rVc:__ZN10ClipperLib7Clipper14IntersectEdgesEPNS_5TEdgeES2_RNS_8IntPointE
Wxc:__Z21CleanupGlobalGUIStatev
ZWh:_Type_IsContextfulImpl_m3693603908
PLh:_Enumerator_VerifyState_m2873941769_gshared
ymb:__Z18Transfer_BlittableI18StreamedBinaryReadILb0EELb1EN4math12int3_storageEEvRK29SerializationCommandArgumentsR31RuntimeSerializationCommandInfo
gFb:__ZN22VertexDeclarationCache5ClearEv
zRf:_CspParameters__ctor_m3852972821
$Xb:__ZN17PersistentManager12SetPathRemapERKN4core12basic_stringIcNS0_20StringStorageDefaultIcEEEES6_
_Rb:__ZN6Camera24PrepareCullingParametersERK23CameraCullingParameters13RenderingPathR11CullResults
jSb:__Z20CullReflectionProbesR8JobFenceRK22SceneCullingParametersRK23ReflectionProbesContextPKjjPjS9_
qTa:__ZN19RuntimeSceneManager22EndIntegrateMainThreadEP10UnitySceneNS_11LoadingModeE
dQi:_Array_Sort_TisUICharInfo_t75501106_m3474449559_gshared
cEg:_Buffer_BlockCopy_m2884209081
Uij:_QuickSearch_GetShiftDistance_m2542665852
FSi:_Array_InternalArray__get_Item_TisCustomAttributeTypedArgument_t2723150157_m2639399822_gshared
Luh:_BigInteger_GenerateRandom_m3141592944
Zgb:__Z29Transfer_Blittable_ArrayFieldI24GenerateTypeTreeTransfer4AABBEvRT_R9ArrayInfoRK23StaticTransferFieldInfo
Iuc:__ZN9Scripting11UnityEngine12StylePainter12CleanupProxyEv
tgg:_Interval_Contains_m1454846757
EKd:_Graphic_CacheCanvas_m1120385152
Muc:__ZN9Scripting11UnityEngine15ScrollViewState12CleanupProxyEv
cKc:__ZN13b2PulleyJoint24SolveVelocityConstraintsERK12b2SolverData
IIc:__ZNK7Joint2D22GetTypeVirtualInternalEv
Da:invoke_fiiifii
Wsa:__ZN20SphericalHarmonicsL219AddDirectionalLightERKN4math7_float3ERKNS0_7_float4E
N$:__Z26ScheduleJobForEachInternalR8JobFencePFvPvjES1_iPFvS1_E11JobPriority
mHb:__ZZ23InitPlayerLoopCallbacksvEN41PostLateUpdateProfilerEndFrameRegistrator7ForwardEv
Z4b:__ZN9Scripting18RaiseMonoExceptionEPKcz
Lmc:__ZN10GameObject17WillHandleMessageERK17MessageIdentifier
swg:_StrongNamePublicKeyBlob_Equals_m3655422942
pxg:_SecurityContext__ctor_m1730177197
KDj:_RectTransformUtility_GetTransposed_m3952754222
Bkc:__ZN9ShaderLab16FastPropertyName15InitBy28BitHashEj
iVi:_List_1_System_Collections_IList_set_Item_m4182383657_gshared
kpi:__Z96RuntimeInvoker_Void_t1185182177_Int32_t2950945753_Single_t1397266774_RuntimeObject_RuntimeObjectPFvvEPK10MethodInfoPvPS4_
Uff:_Enumerator_System_Collections_IDictionaryEnumerator_get_Key_m195047678_AdjustorThunk
ECj:_Canvas_get_pixelPerfect_m333060872
QMa:__ZN17PackedFloatVector12UnpackFloatsEPfiiii
F6j:__ZN6il2cpp6icalls8mscorlib6System9Threading6Thread25SetCachedCurrentUICultureEP12Il2CppThreadP12Il2CppObject
gyb:__ZN13GfxDeviceGLES21DestroyComputeProgramER12ObjectHandleI18ComputeProgram_TagPvE
tKa:__ZN17GenericDynamicVBOD2Ev
rij:_PatternCompiler_EmitIfDefined_m2075050865
tfh:_Decimal_System_IConvertible_ToInt64_m1446427516_AdjustorThunk
jZ:__ZN17UniqueIDGenerator16DestroyPureIndexEj
LTe:_NotImplementedException__ctor_m3095902440
mV:__ZL21AppendNestedClassName17ScriptingClassPtrRN4core17string_with_labelILi1EEE
h0b:__ZN14SafeBinaryRead21TransferSTLStyleArrayINSt3__26vectorIN9ShaderLab20SerializedSubProgram12UAVParameterENS1_9allocatorIS5_EEEEEEvRT_17TransferMetaFlags
a5j:__ZN6il2cpp8metadata13ArrayMetadata20SetupArrayInterfacesEP11Il2CppClassRKNS_2os12FastAutoLockE
zBj:_FontTextureRebuildCallback_Invoke_m3604797831
vJ:__ZN24TextDOMTransferWriteBaseI9JSONWriteE12PushMetaFlagEi
OCc:__Z18Transfer_BlittableI8JSONReadLb1E10ColorRGBAfEvRK29SerializationCommandArgumentsR31RuntimeSerializationCommandInfo
W2:__ZN6prcoreL26RemapGenericIntegerToFloatI17TexFormatARGB888815TexFormatRFloatEEvPKNS_9InnerInfoE
GSj:__ZN6il2cpp2vm10ThreadPool10InitializeEv
EYi:_List_1__ctor_m808270210_gshared
E0j:__ZN6il2cpp2vm17TypeNameParseInfoD2Ev
LIh:_PrimeHelper_ToPrime_m3704362632_gshared
Gz:__ZN4FMOD7Channel7setModeEj
bfh:_Decimal_System_IConvertible_ToType_m2919262279
cJf:_Vector2_get_right_m1027081661
JEa:__ZNK8Renderer8GetLayerEv
W3g:_Stream_Close_m771352034
Qdf:__ZN21InterfaceFuncInvoker1Ii19TimeSpan_t881159249E6InvokeEjP11Il2CppClassP12Il2CppObjectS0_
rsa:__ZN12FlareManager11DeleteFlareEi
mMb:__ZNK6Camera20GetReplacementShaderEv
B$i:_List_1_System_Collections_IList_Remove_m4226673807_gshared
Xqk:__ZNSt3__26__treeINS_12__value_typeINS_12basic_stringIcNS_11char_traitsIcEENS_9allocatorIcEEEEPFvvEEENS_19__map_value_compareIS7_SA_NS_4lessIS7_EELb1EEENS5_ISA_EEE4findIS7_EENS_15__tree_iteratorISA_PNS_11__tree_nodeISA_PvEEiEERKT_
jza:__ZL23stbir__calculate_memoryP11stbir__info
Dfg:_Interpreter_Close_m126356671
l0c:__ZN9Scripting11UnityEngine14SphereCollider12CleanupProxyEv
SPh:_Latin1Encoding_GetMaxCharCount_m1720752733
Fck:__ZN6il2cpp8metadata15GenericMetadata7InflateEPK19Il2CppGenericMethodPK20Il2CppGenericContext
$Fc:__ZN9Scripting11UnityEngine22ParticleCollisionEvent9InitProxyEv
vIa:__ZN13sorted_vectorIN4core12basic_stringIcNS0_20StringStorageDefaultIcEEEENSt3__24lessIS4_EE13stl_allocatorIS4_L18MemLabelIdentifier81ELi16EEE4findIS4_EENS5_11__wrap_iterIPS4_EERKT_
Ilc:__Z13RegisterClassI30RuntimeInitializeOnLoadManagerEvPKc
jjj:_Parser_HandleExplicitNumericGroups_m1412234891
dTi:_Array_InternalArray__get_Item_TisRaycastHit2D_t2279581989_m2440275162_gshared
VXe:_CustomAttributeNamedArgument_Equals_m1414002036
tDc:__ZL26Transfer_SimpleNativeClassI8JSONRead10RectOffsetLb1EEvRK29SerializationCommandArgumentsR31RuntimeSerializationCommandInfo
pkd:__Z44CanvasRenderer_CUSTOM_INTERNAL_CALL_SetColorP12Il2CppObjectRK10ColorRGBAf
eoa:__Z26TransformVerticesInnerLoopILb1ELb1ELb1EEvPhRK10Matrix4x4fRK10Matrix3x3fjPKhiS8_ii25GfxTransformVerticesFlagsj
kKh:_Enumerator_System_Collections_IEnumerator_Reset_m959124362_AdjustorThunk
NUc:__ZN10ClipperLib11ClipperBaseD0Ev
tLb:__ZNK20DynamicPropertySheet18FindQueuedPropertyEN9ShaderLab16FastPropertyNameEN19ShaderPropertySheet12PropertyTypeE
Nih:_Enum_ToObject_m121831801
UMd:_Image_get_hasBorder_m3423344180
jVc:__ZN10ClipperLib8JoinHorzEPNS_5OutPtES1_S1_S1_NS_8IntPointEb
zod:__Z48UnityAnalyticsHandler_CUSTOM_SendCustomEventNameP12Il2CppObjectP12Il2CppString
Tcc:__ZN9Transform16SetLocalRotationERK11Quaternionf
G6:__ZL49__ManagedRegistrationHelperFunction_CommandBufferPv
mIb:__ZN13RenderManager37RenderCamerasWithScriptableRenderLoopEi
KUh:_TimeSpan__ctor_m3689759052
i8h:_ReadOnlyCollection_1_System_Collections_Generic_IListU3CTU3E_Insert_m447088589_gshared
VLi:__Z37RuntimeInvoker_Enumerator_t3123848928PFvvEPK10MethodInfoPvPS4_
kdk:__ZN6il2cpp2os19ReleaseSocketHandleEj
gG:__ZN11AudioModule16GetDSPSampleRateEv
WUf:_InputField_get_characterValidation_m4196664041
aWh:_Type_get_Attributes_m58528356
Ovf:_SpriteBone_t303320096_marshal_pinvoke
vEg:_Array_GetUpperBound_m4018715963
Tgj:_X509Store__ctor_m2736551756
jfc:__Z13RegisterClassI9TextAssetEvPKc
Gek:__ZN6il2cpp2os5posix15PosixWaitObjectC2ENS2_4TypeE
rKb:__ZN6Camera21PostMultiCustomRenderENS_10RenderFlagEb
LMi:_Array_InternalArray__Insert_TisMonoResource_t4103430009_m1997865927_gshared
nug:_SHA512Managed_HashFinal_m2173184560
IDb:__ZN12_GLOBAL__N_112UploadImagesEP7ApiGLESjji14GraphicsFormatPKhjS2_iiii16TextureUsageModePh
wub:__ZN23ShaderVariantCollection13WarmupShadersEv
pgc:__ZN13ProduceHelperI9TransformLb0EE7ProduceE10MemLabelId18ObjectCreationMode
VU:__Z25GetCommonScriptingClassesv
_Ta:__Z27scripting_gc_collect_unsafei
Sjg:_MD5SHA1_HashFinal_m4115488658
lG:__ZN11AudioModule20SuspendVideoTexturesEv
Zph:_Array_InternalArray__ICollection_Add_TisKeyValuePair_2_t71524366_m3468275433_gshared
Ghd:__ZN9Scripting11UnityEngine9CSSLayout6Native9InitProxyEv
CF:__Z59Register_UnityEngine_AudioExtensionManager_GetAudioListenerv
pgb:__Z26Transfer_UnityEngineObjectI24GenerateTypeTreeTransferLb0EEvRK29SerializationCommandArgumentsR31RuntimeSerializationCommandInfo
k9g:_Convert_ToDouble_m278900635
R7c:_UNITY_FT_GlyphLoader_CheckPoints
rtf:_DebugLogHandler_LogException_m302830419
SWf:_InputField_LineDownCharacterPosition_m2798128425
Xgf:_Enumerator_System_Collections_IDictionaryEnumerator_get_Value_m684446183_AdjustorThunk
zsa:__ZN15SharedLightData7PrecalcEv
Cia:__ZN10Matrix4x4fmLERKS_
eDf:_Vector2__ctor_m3970636864
Zha:__ZN17TransformInternal12InitLocalTRSE15TransformAccessRKN4math7_float3ERKNS1_7_float4ES4_
Sjb:__Z35Transfer_Blittable_FixedBufferFieldI18StreamedBinaryReadILb1EEsEvRK29SerializationCommandArgumentsR31RuntimeSerializationCommandInfo
ijh:_Environment_InternalGetFolderPath_m468390978
mrd:__ZN11UnityEngine15PlatformWrapper18GetOperatingSystemEv
_xg:_SecurityFrame_ToString_m339310712
iKd:_FontUpdateTracker_RebuildForFont_m3134452007
UDd:_TouchInputModule_ProcessTouchPress_m3504077560
W3f:_Selectable_IsInteractable_m2611421038
v7c:_FT_MSB
HFk:_emscripten_glReadPixels__wrapper
jrk:__ZN6il2cpp6icalls8mscorlib4Mono8Security12Cryptography18KeyPairPersistence10_CanSecureEP12Il2CppString
ckh:_Array_InternalArray__ICollection_Contains_TisParameterModifier_t1461694466_m1000453323_gshared
UAh:_Dictionary_2_System_Collections_ICollection_CopyTo_m4047192178_gshared
_Uj:__ZN6il2cpp2os4File11GetFileStatERKNSt3__212basic_stringIcNS2_11char_traitsIcEENS2_9allocatorIcEEEEPNS0_8FileStatEPi
$nd:__ZN14UnityAnalytics22HandleCustomEventLimitERN11UnityEngine9Analytics15UserCustomEventE
ogc:__ZN9TransformC2E10MemLabelId18ObjectCreationMode
mwb:__ZN13GfxDeviceGLES14SetRasterStateEPK17DeviceRasterState
IWe:_Assembly_ToString_m2053237013
_xf:_Vector4_Equals_m1779210055
G9c:_otv_Coverage_get_count
BTd:_ParameterModifier_t1461694466_marshal_pinvoke_back
Xca:__ZN14SafeBinaryRead11EndTransferEv
gHh:_EqualityComparer_1__cctor_m2741186979_gshared
$ab:__ZN14SafeBinaryRead8TransferI8MonoPPtrEEvRT_PKc17TransferMetaFlags
Dih:_Enum_System_IConvertible_ToUInt16_m4216751959
oEb:__ZN21UniformBufferTFMethod13MapBoneBufferEj
ssh:_Array_InternalArray__Insert_TisInt32_t2950945753_m4073217122_gshared
rsg:_RNGCryptoServiceProvider_RngClose_m3915778345
I5g:_SortedList_Remove_m2784369438
XBa:__ZN4crnd12crn_unpacker10unpack_dxnEPPhjjj
GV:__ZN14SerializedFileD2Ev
tvc:__Z30Event_Get_Custom_PropModifiersP12Il2CppObject
OFj:_Physics2D_Raycast_m2858866636
Ngk:__GLOBAL__sub_I_Thread_cpp_43403
x$f:_RawImage_get_mainTexture_m2396337033
kVj:__ZN6il2cpp2vm10Reflection17GetAssemblyObjectEPK14Il2CppAssembly
Mob:__ZNSt3__218__stable_sort_moveIRN10vector_mapI17ScriptingClassPtrPKN5Unity4TypeENS_4lessIS2_EENS_9allocatorINS_4pairIS2_S6_EEEEE13value_compareENS_11__wrap_iterIPSB_EEEEvT0_SJ_T_NS_15iterator_traitsISJ_E15difference_typeEPNSM_10value_typeE
Y_b:__ZN6Shader21AwakeFromLoadThreadedEv
e2:__ZN6prcoreL17RemapGenericFloatI17TexFormatRGBFloat17TexFormatRGBAHalfEEvPKNS_9InnerInfoE
Guh:_BigInteger__ctor_m3991350270
$bc:__Z58Register_UnityEngine_PlayerConnectionInternal_PollInternalv
SIf:_Vector2_GetHashCode_m3916089713_AdjustorThunk
ysk:__ZN6il2cpp2os9SemaphoreC2Eii
bbb:__ZNSt3__26vectorI8MonoPPtr13stl_allocatorIS1_L18MemLabelIdentifier1ELi16EEE8__appendEj
UKb:__ZN14qsort_internal30FindAndMovePivotToLastPositionIP17RODataReplacementi19ROSorterReplacementEEvT_S4_T0_T1_
zEb:__ZN15UniformTFMethod20IsBoneCountSupportedEi
q_h:_UnauthorizedAccessException__ctor_m246605039
zjc:__Z12BuildTextureIA4_tPFvP9Texture2DPS0_iiiiEES2_PKcii13TextureFormatRKT0_17TextureColorSpaceb
Pzk:dynCall_viidi
wif:_KeyCollection__ctor_m1356492051_gshared
CS:__ZN24ScriptingMethodFiltering17FilterOnSignatureENS_18MethodSearchFilterE
Vnd:__ZNSt3__26__treeINS_12__value_typeIN4core12basic_stringIcNS2_20StringStorageDefaultIcEEEEN11UnityEngine9Analytics15UserCustomEvent11CustomValueEEENS_19__map_value_compareIS6_SB_NS_4lessIS6_EELb1EEE13stl_allocatorISB_L18MemLabelIdentifier6ELi16EEE7destroyEPNS_11__tree_nodeISB_PvEE
T6c:_cf2_arrstack_finalize
Ifj:_X509Certificate_VerifySignature_m3538124832
_3g:_StreamAsyncResult_SetComplete_m1102187093
iic:__ZN13MonoBehaviour19HandleNotificationsEPviR11MessageData
bEf:_RectOffset_Init_m2028508611
Zsk:__ZN6il2cpp2os9EventImpl5ResetEv
hlg:_Alert__ctor_m3135936936
n_g:_Int64_System_IConvertible_ToInt32_m772105781
Ccj:_TlsClientSettings__ctor_m3220697265
lZj:__ZNK15dense_hashtableINSt3__24pairIK10KeyWrapperINS1_IPK9EventInfoP11Il2CppClassEEEjEES9_17ReflectionMapHashIS8_EN14dense_hash_mapIS9_jSD_NS9_14EqualsComparerINS0_8equal_toIS8_EEEENS0_9allocatorISB_EEE9SelectKeyESI_SK_E23find_position_with_hashERSA_j
Iuk:_copysignl
Fxd:__ZL45__ManagedRegistrationHelperFunction_SubsystemPv
iAh:_Dictionary_2_make_pair_m2250450206_gshared
HPh:_ForwardingDecoder_GetChars_m4228908854
Yfg:_InterpreterFactory_get_GroupCount_m2226373271
zCk:b53
uCk:b50
vCk:b51
CCk:b56
DCk:b57
ACk:b54
BCk:b55
Ss:__ZL45__ManagedRegistrationHelperFunction_HumanBonePv
Ath:_SimpleCollator_IsSafe_m310268646
pFg:_X509Certificate_get_RawData_m2387471414
iEk:_glDetachShader__wrapper
NJg:_ArrayTypeMismatchException__ctor_m3375008173
dkf:_Transform_1_BeginInvoke_m1757796657_gshared
y9:__ZN9Scripting11UnityEngine7Hash12812CleanupProxyEv
L2a:__ZN9GfxDevice25SetShaderPropertiesSharedERK19ShaderPropertySheet
jud:__ZN11UnityEngine7Connect20RemoteConfigSettingsC2ERKN4core12basic_stringIcNS2_20StringStorageDefaultIcEEEEPFvPS1_E18ScriptingObjectPtr
GEd:_BaseMeshEffect_get_graphic_m1852367505
vQg:_CaseInsensitiveHashCodeProvider_GetHashCode_m2168170016
J7b:__ZN19SpriteMeshGenerator4path9clip_edgeEi
Eaa:__ZN9Scripting11UnityEngine12Experimental18GlobalIllumination11LightDataGI12CleanupProxyEv
dic:__ZL25InitializeDefaultMaterialv
gld:__Z53Register_UnityEngine_CanvasRenderer_get_materialCountv
INd:_PropertyBuilder_GetCustomAttributes_m3798356764
FTd:_PropertyInfo_get_MemberType_m2794839864
Esj:_EventTrigger_RemoveRule_m1596811726
Qef:_Comparer_1_System_Collections_IComparer_Compare_m4179495191_gshared
jVa:__ZN17PersistentManager12UnloadStreamERKN4core12basic_stringIcNS0_20StringStorageDefaultIcEEEEb
w0a:__ZN10MemoryFile4ReadEyyPvPy
iNi:_Array_InternalArray__Insert_TisUICharInfo_t75501106_m2924156520_gshared
kXc:__ZN19CompositeCollider2D22SimplifyCompositePathsERKNSt3__26vectorINS1_IN10ClipperLib8IntPointENS0_9allocatorIS3_EEEENS4_IS6_EEEERS8_
Pph:_MonoProperty_GetterAdapterFrame_TisRuntimeObject_TisRuntimeObject_m458718082_gshared
APi:_Array_Sort_TisInt32_t2950945753_TisInt32_t2950945753_m3955828611_gshared
oRj:_CarController_Update_m1265157759
J2j:_il2cpp_unity_liveness_calculation_from_statics
wFi:__Z70RuntimeInvoker_Boolean_t97287965_CharU26_t1697032762_Int16_t2552820387PFvvEPK10MethodInfoPvPS4_
ecf:_InternalEnumerator_1_System_Collections_IEnumerator_get_Current_m2649471526_gshared
vFa:__ZN8Renderer8TransferI17RemapPPtrTransferEEvRT_
Gza:__ZN6prcore16BlitFuncInfoSIMD19BlitFuncExecuteSIMDEPKNS_9InnerInfoEPKv
Evd:__ZN20UnityWebRequestProtoI24UnityWebRequestTransport16AtomicRefCounter14RedirectHelper14ResponseHelper15DownloadHandler13UploadHandler18CertificateHandler12HeaderHelper14AsyncOperationE9DoRequestEv
Qff:_Enumerator_System_Collections_IDictionaryEnumerator_get_Entry_m522483686_gshared
Dyh:_PrivateKeyInfo_RemoveLeadingZero_m3921889925
rTh:_Thread_get_CurrentContext_m1695017876
nQc:__ZN7b2World20ClearIslandFlagsTaskEv
Ydc:__Z22Input_CUSTOM_GetKeyInti
QKc:__ZN16PhysicsManager2D19AddRigidbodyUpdatesEP11Rigidbody2D
uVb:__Z24LookRotationToQuaternionRK8Vector3fS1_P11Quaternionf
sVb:__ZN16ReflectionProbes9GetCameraEv
eQb:__Z23CalculateLightOcclusionRK17LightProbeContextRK29LightProbeSamplingCoordinatesi
b4b:__ZL18IsGpuProgramUsable20ShaderGpuProgramTypePK6Shader
ejd:__ZN2UI6Canvas17SetSortingLayerIDEi
Dek:__ZN6il2cpp2vm11MethodStack23CleanupForCurrentThreadEv
Vbh:_Convert_ToUInt64_m388601487
Fqa:__ZN20TierGraphicsSettings8TransferI24GenerateTypeTreeTransferEEvRT_
SNj:__ZN15dense_hashtableINSt3__24pairIK10KeyWrapperIN6il2cpp5utils13dynamic_arrayIPK10Il2CppTypeLj4EEEEPFvvEEESA_NS3_8metadata19Il2CppSignatureHashEN14dense_hash_mapISA_SD_SG_NSA_14EqualsComparerINSF_22Il2CppSignatureCompareEEENS0_9allocatorISE_EEE9SelectKeyESK_SM_E16reset_thresholdsEv
lHf:_TouchScreenKeyboard_get_text_m1797464608
Bxa:__ZN18UnityPropertySheet8TransferI19StreamedBinaryWriteILb0EEEEvRT_
ot:__ZN9Scripting11UnityEngine27AnimatorControllerParameter9InitProxyEv
L0:__ZNSt3__26__treeINS_12__value_typeIiN11TypeManager18TypeCallbackStructEEENS_19__map_value_compareIiS4_NS_4lessIiEELb1EEENS_9allocatorIS4_EEE7destroyEPNS_11__tree_nodeIS4_PvEE
fma:__ZN9ShaderLab32FindBestMatchingShaderKeywordSetERK16ShaderKeywordSetRK13dynamic_arrayIS0_Lj0EEPS5_
TVc:__ZN16PhysicsManager2D42RegisterTransformChangeInterestForColliderEP10Collider2D
hqd:__ZN11UnityEngine7Connect17XRDeviceInfoEventD0Ev
Rbe:__ZL60SoapTypeAttribute_t1750930817_CustomAttributesCacheGeneratorP21CustomAttributesCache
fIc:__ZN15AnchoredJoint2D8TransferI14SafeBinaryReadEEvRT_
nXe:_Binder_ConvertArgs_m2124461494
z_b:__ZN21UnityDefaultAllocatorI17LowLevelAllocatorE10DeallocateEPv
dGk:b86
yla:__ZN20IntermediateRenderer15AddAsRenderNodeER15RenderNodeQueueRK20DeprecatedSourceData
lv:__ZN15PackedIntVector8TransferI14SafeBinaryReadEEvRT_
eJf:_Vector3__ctor_m3353183577_AdjustorThunk
K4e:_InternalEnumerator_1_System_Collections_IEnumerator_get_Current_m1514266661_gshared
Rjg:_MD5SHA1_Initialize_m675470944
Kqh:_Array_InternalArray__ICollection_Add_TisKeyframe_t4206410242_m442111799_gshared
eZi:_List_1_CheckMatch_m3263549496_gshared
fCf:_PropertyNameUtils_PropertyNameFromString_Injected_m1259736140
nE:__ZN13AudioListener8DoUpdateEv
W9b:__ZL34GetComponentsImplementationRecurseILb0ELi0ELi0EEbR10GameObjectbRK17CompareParametersRK39GetComponentsImplementation_ReturnValue
iRe:__Z13bankers_roundd
DPa:__ZN14SafeBinaryRead8TransferI5RectTIfEEEvRT_PKc17TransferMetaFlags
vi:_emscripten_glGenFramebuffers
G0:__ZN17BaseObjectManager16StaticInitializeEPv
y8:__ZN9Scripting11UnityEngine9Profiling8Profiler12CleanupProxyEv
PAc:__Z18Transfer_BlittableI9JSONWriteLb0EyEvRK29SerializationCommandArgumentsR31RuntimeSerializationCommandInfo
$ua:__ZN13RenderTexture15ThreadedCleanupEv
pbg:_X509BasicConstraintsExtension__ctor_m3721156175
CAa:__ZN12CubemapArray23VirtualRedirectTransferER14SafeBinaryRead
t0g:_Path_GetFileName_m1354558116
Rwh:_BitConverterLE_ToDouble_m1601000678
fDk:_emscripten_glUniform3i__wrapper
Xth:_SimpleCollator_IsPrefix_m3581642267
LDf:_Rect_Contains_m1232228501_AdjustorThunk
P8b:__Z43RectTransform_CUSTOM_INTERNAL_set_sizeDeltaP12Il2CppObjectRK13Vector2fIcall
w_g:_Int64_System_IConvertible_ToType_m3223988955_AdjustorThunk
tak:__ZN15dense_hashtableINSt3__24pairIK10KeyWrapperINS1_IPKcS4_EEEiEES6_24NamespaceAndNamePairHashN14dense_hash_mapIS6_iS9_NS6_14EqualsComparerI26NamespaceAndNamePairEqualsEENS0_9allocatorIS8_EEE9SelectKeyESD_SF_E6insertERKS8_
Lea:__ZN24GenerateTypeTreeTransfer18BeginArrayTransferEPKcS1_Ri17TransferMetaFlags
bTi:_Array_InternalArray__get_Item_TisPlayableBinding_t354260709_m3837494573_gshared
vm:___syscall51
fBg:_String_CreateString_m4016935005
Ghj:_MatchCollection_get_FullList_m1829231879
zm:___syscall54
DIg:_Array_GetValue_m2528415604
bIf:_Transform_INTERNAL_CALL_TransformPoint_m4261269221
HXg:_Guid_AppendShort_m791023083
AZi:_List_1__ctor_m4212503576_gshared
gQg:_BitArrayEnumerator_MoveNext_m3806676766
S7c:_cff_builder_add_point1
Cbk:__ZN6il2cpp2vm5Image21GetCachedResourceDataEPK11Il2CppImageRKNSt3__212basic_stringIcNS5_11char_traitsIcEENS5_9allocatorIcEEEE
L9a:__Z18Transfer_BlittableI14SafeBinaryReadLb0E10ColorRGBAfEvRK29SerializationCommandArgumentsR31RuntimeSerializationCommandInfo
Aa:invoke_iiiiiiiiii
rF:__ZN11AudioSource25GetNumExtensionPropertiesEv
Wrh:_Array_InternalArray__ICollection_CopyTo_TisUILineInfo_t4195266810_m104406798_gshared
Sfc:__ZZL31RegisterRectTransformPropertiesR22GenericPropertyBindingEN32Wrapper_RectTransformAnchorMaxx013GetFloatValueEPv
etf:_Debug_LogErrorFormat_m3558239521
AKd:_Graphic_get_canvas_m3320066409
pWf:_InputField_ActivateInputFieldInternal_m3360893886
laj:_RijndaelManagedTransform__ctor_m1033522223
HZb:__ZN10FileSystem19SetCurrentDirectoryERKN4core12basic_stringIcNS0_20StringStorageDefaultIcEEEE
psf:_Component_get_gameObject_m442555142
lRe:_Math_Log_m2526073084
ugc:__ZN23TransformChangeDispatch24RemovePermanentInterestsE15TransformAccessPKN5Unity4TypeE
Src:__Z47Register_UnityEngine_Coroutine_ReleaseCoroutinev
dy:__ZN15AudioReverbZone13SetFMODValuesEv
NT:__ZN14SafeBinaryRead4InitERK16TypeTreeIteratorxx24TransferInstructionFlags10MemLabelId
ee:_glRenderbufferStorageMultisample
UYc:__Z13RegisterClassI16CircleCollider2DEvPKc
MWj:__ZNK15dense_hashtableINSt3__24pairIK10KeyWrapperIPK10Il2CppTypeEjEES6_N6il2cpp8metadata14Il2CppTypeHashEN14dense_hash_mapIS6_jSB_NS6_14EqualsComparerINSA_26Il2CppTypeEqualityComparerEEENS0_9allocatorIS8_EEE9SelectKeyESF_SH_E10test_emptyEj
wNb:__ZN22MotionVectorRenderLoopD2Ev
vpf:_Debug_LogException_m2207318968
jSc:__ZNK6b2Body13ShouldCollideEPKS_
Qze:__ZL76AnimatorTransitionInfo_t2534804151_CustomAttributesCacheGenerator_m_FullPathP21CustomAttributesCache
Tph:_Array_InternalArray__ICollection_Add_TisClientCertificateType_t1004704908_m2622721177_gshared
FSc:__ZNK21b2FindNewContactsTask13GetRangeCountEv
uv:__ZN17PackedFloatVector8TransferI18StreamedBinaryReadILb0EEEEvRT_
aBa:__ZN7Cubemap23VirtualRedirectTransferER17RemapPPtrTransfer
Ytc:__Z37Register_UnityEngine_Screen_get_widthv
DGj:_UnityAnalyticsHandler_SendCustomEvent_m1223269116
Vmj:_Uri_get_Authority_m3816772302
T5b:__ZN22BlockMemoryCacheWriter11GetPathNameEv
Rhg:_BigInteger_op_Division_m3713793389
eHf:_Touch_get_position_m3109777936
JSd:_ParameterInfo__ctor_m3269320476
qeg:_X509SubjectKeyIdentifierExtension_FromHexChars_m3244835916
Lyg:_Single_CompareTo_m2785801815
EZh:_UInt64_System_IConvertible_ToInt32_m949522652_AdjustorThunk
rej:_PKCS12_MAC_m3355614022
hp:stackAlloc
I0a:__ZN25SingleBlockMemoryFileData4LockEPPv
MGk:_glProgramParameteri__wrapper
Sac:__Z32RectOffset_Get_Custom_PropBottomP12Il2CppObject
atf:_Debug_LogError_m2850623458
Qxj:__ZL24UnresolvedVirtualCall_79P12Il2CppObjectPK10MethodInfo
l$b:__ZNSt3__26__treeINS_12__value_typeIN4core12basic_stringIcNS2_20StringStorageDefaultIcEEEE4PPtrI7TextureEEENS_19__map_value_compareIS6_SA_NS_4lessIS6_EELb1EEENS_9allocatorISA_EEE7destroyEPNS_11__tree_nodeISA_PvEE
Uui:__Z69RuntimeInvoker_UInt64_t4134040092_Int32_t2950945753_SByte_t1669577662PFvvEPK10MethodInfoPvPS4_
cvk:_stat
mma:__ZN9ShaderLab10SubProgram7CompileEv
BNd:_PropertyBuilder_get_CanRead_m3783190070
MV:__ZN14SerializedFile14SerializedTypeD2Ev
raa:__ZN9Scripting11UnityEngine12Experimental9Playables21TexturePlayableOutput9InitProxyEv
Img:_CipherSuiteCollection_System_Collections_IList_get_Item_m2175128671
LKc:__ZN15b2DistanceJoint23InitVelocityConstraintsERK12b2SolverData
Xia:__ZN6CameraD2Ev
psc:__Z50Register_UnityEngine_Camera_get_pixelRect_Injectedv
ma:invoke_iiiiiiiiiiii
Ych:_DateTime_System_IConvertible_ToType_m1242864300_AdjustorThunk
obf:_InternalEnumerator_1_get_Current_m2446410893_AdjustorThunk
Qna:__Z29CalculateDefaultChannelsToAdd17ShaderChannelMaskS_
uJg:_Array_Sort_m870838517
mFb:__ZNSt3__26__treeI20DeviceBlendStateGLES14MemoryCompLessI16DeviceBlendStateENS_9allocatorIS1_EEE7destroyEPNS_11__tree_nodeIS1_PvEE
oDj:_CanvasRenderer_SetMaterial_m633746949
nC:__ZN10AudioMixer12RebindOutputEv
Q4j:__ZNK15dense_hashtableINSt3__24pairIK10KeyWrapperIP11Il2CppClassES4_EES5_N6il2cpp8metadata16SZArrayClassHashEN14dense_hash_mapIS5_S4_SA_NS5_14EqualsComparerINS9_19SZArrayClassCompareEEENS0_9allocatorIS7_EEE9SelectKeyESE_SG_E5beginEv
tZf:_LayoutRebuilder_PerformLayoutControl_m4241054021
XIj:__ZN6il2cpp2vm17SetupFieldsLockedEP11Il2CppClassRKNS_2os12FastAutoLockE
opf:_AnimationCurve__ctor_m1565662948
Gyg:_Single_System_IConvertible_ToUInt16_m1263555070_AdjustorThunk
iCb:__ZN18GlslGpuProgramGLES13SwitchProgramEj
YFb:__ZN20ArchiveStorageReaderC2E10MemLabelId
Cli:__Z132RuntimeInvoker_Int32_t2950945753_RuntimeObject_Int32_t2950945753_Int32_t2950945753_RuntimeObject_Int32_t2950945753_Int32_t2950945753PFvvEPK10MethodInfoPvPS4_
q1a:__ZN16MemoryFileSystem4NameEv
Iqc:__Z13SetCopyBufferRKN4core12basic_stringIcNS_20StringStorageDefaultIcEEEE
Vcj:_TlsException__ctor_m818940807
zFg:_X509CertificateEnumerator_System_Collections_IEnumerator_get_Current_m418791713
lnd:__ZN14UnityAnalyticsD2Ev
I9b:__Z42ScriptingGetComponentsOfTypeFromGameObjectRK26ScriptingGetComponentsArgs
Zte:__ZL73ArgumentCache_t2187958399_CustomAttributesCacheGenerator_m_ObjectArgumentP21CustomAttributesCache
IQi:_Array_swap_TisRaycastResult_t3360306849_TisRaycastResult_t3360306849_m3400922624_gshared
s0c:__ZN9Scripting11UnityEngine21ControllerColliderHit9InitProxyEv
yRf:_CspParameters__ctor_m2741097571
Yxa:__ZNSt3__27__sort4IRPFbRKNS_4pairIN9ShaderLab16FastPropertyNameEN18UnityPropertySheet11UnityTexEnvEEES8_EPS6_EEjT0_SD_SD_SD_T_
R6c:_cf2_hintmap_build
OGf:_Texture_get_width_m888163864
w9b:__Z11StringToIntRKN4core16basic_string_refIcEE
Ofd:_Line_Up
le:_emscripten_glBufferSubData
IAg:_String_ReplaceUnchecked_m1381393810
Vdf:_DefaultComparer_Compare_m3278268937_gshared
bq:__Z17CalculateGlobalRS23TransformAccessReadOnly
wgd:__Z56Register_UnityEngine_TextGenerator_GetCharactersInternalv
Ipk:__ZNSt3__210__list_impIPN6il2cpp5utils10MemoryPool6RegionENS_9allocatorIS5_EEE5clearEv
srb:__ZNK25PathNamePersistentManager24PathIDToPathNameInternalEi
lZa:__ZNK12HandlerChain7ToLocalERK13FileEntryDataRN4core12basic_stringIcNS3_20StringStorageDefaultIcEEEERyS9_
fWa:__ZN22MemoryCacherReadBlocks14LockCacheBlockEjPPhS1_
s0j:__ZN6il2cpp2vm14TypeNameParser17ParseAssemblyNameEv
aKa:__ZNK9GfxDevice26GetSinglePassStereoEyeMaskEv
otf:_DebugLogHandler_Internal_Log_m4175774469
xjk:__ZN4utf88internal15increase_safelyIPKcEENS0_9utf_errorERT_S5_
wNg:_CharEnumerator_get_Current_m525608209
xzd:__Z21ArrayElementTypeCheckP11Il2CppArrayPv
RFk:_emscripten_glTexSubImage2D__wrapper
BGa:__ZN18StreamedBinaryReadILb0EE21TransferSTLStyleArrayI13dynamic_arrayI33EnlightenTerrainChunksInformationLj0EEEEvRT_17TransferMetaFlags
HWc:__ZN17PhysicsMaterial2D16CheckConsistencyEv
p6d:__ZL69DebuggerBrowsableAttribute_t1026244177_CustomAttributesCacheGeneratorP21CustomAttributesCache
e6:__ZL48__ManagedRegistrationHelperFunction_LightmapDataPv
Uwk:__ZNSt3__212basic_stringIcNS_11char_traitsIcEENS_9allocatorIcEEE6appendEjc
Cob:__Z13TransferFieldI18StreamedBinaryReadILb0EELb0E16Converter_StringEvRK23StaticTransferFieldInfoR31RuntimeSerializationCommandInfoRT1_
_jd:__Z42Register_UnityEngine_Canvas_get_rootCanvasv
_ab:__Z14resize_trimmedINSt3__26vectorI8MonoPPtr13stl_allocatorIS2_L18MemLabelIdentifier1ELi16EEEEEvRT_j
Ue:_TTF_RenderText_Solid
LOh:_List_1__ctor_m3947764094_gshared
O2c:__ZN20TextRenderingPrivate21TextMeshGeneratorImpl5FlushEv
h$c:__Z56Register_UnityEngine_Physics2D_Raycast_Internal_Injectedv
Mlj:_Parser_IsIgnorePatternWhitespace_m2107132682
Ynd:__ZN14UnityAnalytics15Internal_CreateE18ScriptingObjectPtr
o8f:_HttpRequestCreator_Create_m400548686
kud:__ZN11UnityEngine7Connect16PersistentValuesC2Ev
Y8h:_ReadOnlyCollection_1_System_Collections_IList_Insert_m134149130_gshared
tAc:__Z18Transfer_BlittableI9JSONWriteLb0E5RectTIiEEvRK29SerializationCommandArgumentsR31RuntimeSerializationCommandInfo
Kuh:_BigInteger_get_Rng_m4216817480
Ukh:_Array_InternalArray__ICollection_Remove_TisDateTime_t3738529785_m2250893026_gshared
Yvb:__Z15IsIEEE754Format14GraphicsFormat
hW:__ZL12CreateStringPjR13dynamic_arrayIcLj0EEPKc
Ieb:__Z19TransferField_ArrayI17RemapPPtrTransfer27Converter_UnityEngineObjectEvRK23StaticTransferFieldInfoR31RuntimeSerializationCommandInfoRT0_
fRg:_KeyNotFoundException__ctor_m541499307
qmh:_SetPropertyUtility_SetStruct_TisSpriteState_t1362986479_m665096788_gshared
Yli:__Z61RuntimeInvoker_Single_t1397266774_RuntimeObject_RuntimeObjectPFvvEPK10MethodInfoPvPS4_
_kh:_Array_InternalArray__ICollection_Remove_TisIntPtr_t_m3807208150_gshared
Jxi:__Z71RuntimeInvoker_Void_t1185182177_Vector3_t3722313464_Vector3_t3722313464PFvvEPK10MethodInfoPvPS4_
O7e:_InternalEnumerator_1_get_Current_m2316281569_AdjustorThunk
h8g:_DateTime__ctor_m1095105629
nxb:__ZN13GfxDeviceGLES15UploadTexture2DE9TextureID16TextureDimensionPKhiii14GraphicsFormati18TextureUploadFlags16TextureUsageMode
Bnj:_Event_Cleanup_m2477919477
eB:__ZN4FMOD6System9createDSPEP20FMOD_DSP_DESCRIPTIONPPNS_3DSPE
age:__ZL87Thread_t2300836069_CustomAttributesCacheGenerator_Thread_GetCompressedStack_m2923422412P21CustomAttributesCache
Trg:_SslClientStream_get_ClientCertificates_m998716871
oz:__ZN4FMOD8ChannelI11EndCallbackEv
Rwc:__ZN8GUIStyle14SetDefaultFontEPN13TextRendering4FontE
DDa:__ZN15QualitySettings23VirtualRedirectTransferER24GenerateTypeTreeTransfer
VNf:_ObjectReader_ReadValue_m3145979203
Jw:__ZN9Scripting11UnityEngine24AssetBundleCreateRequest9InitProxyEv
vFd:_CanvasScaler_OnDisable_m3424669401
Erc:__Z59Register_UnityEngine_MonoBehaviour_Internal_CancelInvokeAllv
fMe:__ZL68Scrollbar_t1494447233_CustomAttributesCacheGenerator_m_NumberOfStepsP21CustomAttributesCache
fMj:__ZN30dense_hashtable_const_iteratorINSt3__24pairIK10KeyWrapperIPK19Il2CppGenericMethodEPK26Il2CppGenericMethodIndicesEES6_N6il2cpp8metadata23Il2CppGenericMethodHashEN14dense_hash_mapIS6_SA_SE_NS6_14EqualsComparerINSD_26Il2CppGenericMethodCompareEEENS0_9allocatorISB_EEE9SelectKeyESI_SK_EppEv
M3c:_UNITY_FT_Request_Metrics
m9j:__ZN6il2cpp6icalls8mscorlib6System10Reflection10MonoMethod29get_IsGenericMethodDefinitionEP22Il2CppReflectionMethod
V3j:__ZN6il2cpp2vm6Thread21AllocThreadStaticDataEi
Woa:__ZL12CopyChannelsj17ShaderChannelMaskRA4_K10StreamInfoRA12_K11ChannelInfoPKhS3_S7_Ph
pXe:_Default_SelectMethod_m469311730
ywf:_Input_get_mousePosition_m1616496925
Fik:__ZN30dense_hashtable_const_iteratorINSt3__24pairIK10KeyWrapperIPK19Il2CppGenericMethodEP10MethodInfoEES6_N6il2cpp8metadata23Il2CppGenericMethodHashEN14dense_hash_mapIS6_S9_SD_NS6_14EqualsComparerINSC_26Il2CppGenericMethodCompareEEENS0_9allocatorISA_EEE9SelectKeyESH_SJ_EppEv
nZh:_UInt32_ToString_m2066897296_AdjustorThunk
MWa:__ZN24GenerateTypeTreeTransfer19TransferSTLStyleMapINSt3__23mapI4PPtrI6ShaderEN4core12basic_stringIcNS6_20StringStorageDefaultIcEEEENS1_4lessIS5_EENS1_9allocatorINS1_4pairIKS5_SA_EEEEEEEEvRT_17TransferMetaFlags
fSc:__ZN26b2ClearBodyIslandFlagsTask7ExecuteEv
wRg:_Enumerator_Reset_m4274366540
Szc:__Z18Transfer_BlittableI9JSONWriteLb0E8Vector3fEvRK29SerializationCommandArgumentsR31RuntimeSerializationCommandInfo
Tf:_emscripten_glUniform4i
_zf:_PlayerConnection_RegisterDisconnection_m2618599213
df:_emscripten_glUniform4f
Bj:___unlock
vcj:_TlsCipherSuite_ComputeServerRecordMAC_m3941098609
Q8c:_otv_validate
bYb:__ZN13sorted_vectorINSt3__24pairIN4core12basic_stringIcNS2_20StringStorageDefaultIcEEEES6_EEN10vector_mapIS6_S6_27compare_tstring_insensitiveIS6_E13stl_allocatorIS7_L18MemLabelIdentifier38ELi16EEE13value_compareESD_E9erase_oneIS6_EEjRKT_
Ivg:_X509Certificate_Equals_m3784196370
k1i:_List_1__ctor_m3376067838_gshared
VLh:_Enumerator_MoveNext_m1446151600_gshared
wtg:_SHA1Internal_ProcessFinalBlock_m1403775421
M2i:_Queue_1_System_Collections_ICollection_CopyTo_m3452613063_gshared
Gdc:__Z40Register_UnityEngine_Transform_IsChildOfv
fLf:_RemotingServices_GetOrCreateClientIdentity_m648299611
qdf:_InternalEnumerator_1_get_Current_m2356858238_AdjustorThunk
Mbc:__Z45Register_UnityEngine_Display_GetSystemExtImplv
Tyh:_RSAManaged_ImportParameters_m1844641996
Xff:_Enumerator_System_Collections_IDictionaryEnumerator_get_Value_m3325938730_AdjustorThunk
$pa:__ZN14SafeBinaryRead21TransferSTLStyleArrayI13dynamic_arrayI21PlatformShaderDefinesLj0EEEEvRT_17TransferMetaFlags
t$c:__GLOBAL__sub_I_Runtime_Dynamics_0_cpp
Nnf:_ValueCollection_System_Collections_ICollection_get_SyncRoot_m1114275063_gshared
gFj:__ZL17log2withScale_128yyi
xXg:_Guid_Equals_m1866984197
snd:__ZN14UnityAnalytics19ConfigChangedStaticEPS_RKN4core12basic_stringIcNS1_20StringStorageDefaultIcEEEER8JSONReadb
gWe:_PlatformNotSupportedException__ctor_m1787918017
w_:__ZN13RuntimeStaticI15DirectorManagerLb0EE16StaticInitializeEPv
U5h:_ReadOnlyCollection_1_System_Collections_ICollection_CopyTo_m2643246984_gshared
DOa:__ZN11TimeManager6UpdateEv
LMh:_Enumerator_System_Collections_IEnumerator_get_Current_m209407522_gshared
oFd:_CanvasScaler_get_fallbackScreenDPI_m2811935689
Qr:__ZNK16ParentConstraint18GetTranslationAxisEv
BTg:_DateTimeFormatInfo_ReadOnly_m890935083
nYf:_LayoutElement_set_preferredHeight_m1999633022
jvk:_fflush
tUa:__ZN17LightProbeContext4InitERK16LightmapSettingsRK14RenderSettings
oZc:__ZZN17PolygonCollider2D15InitializeClassEvEN41FunctorImpl_46kSpriteTilingPropertyChange4CallEPviR11MessageData
IFf:_SceneManager_Internal_ActiveSceneChanged_m3676176255
xhh:_Double_System_IConvertible_ToInt16_m3591921965
kJa:__ZN9Texture3DD2Ev
V$h:_Collection_1_set_Item_m4280581817_gshared
x7g:_Convert_ToChar_m2796006345
hNi:_Array_InternalArray__Insert_TisContentType_t1787303396_m3566390691_gshared
HY:__ZN5CacheD2Ev
MOg:_ArrayListWrapper_GetEnumerator_m2336495952
ATb:__Z34ProcessIndexListIsNodeVisibleStep2RK22SceneCullingParametersPK9SceneNodePK4AABBR9IndexList
kpb:__ZN10MonoScriptD2Ev
Y8:__ZN9Scripting11UnityEngine10Networking16PlayerConnection16PlayerConnection12CleanupProxyEv
SEb:__ZN19ConstantBuffersGLES8UpdateCBE5CbKeyPKvj
Puj:_AudioSource_get_spatializeInternal_m2117549793
fec:__Z39Input_CUSTOM_INTERNAL_get_mousePositionP8Vector3f
oOf:_SerializationCallbacks_GetMethodsByAttribute_m2095490433
ubd:_tt_cmap13_char_next
nHe:__ZL117EventSystem_t1003666588_CustomAttributesCacheGenerator_EventSystem_t1003666588____lastSelectedGameObject_PropertyInfoP21CustomAttributesCache
IHb:__ZN9ShaderLab4Pass16SetupPassOptionsEv
hh:_JS_Sound_ReleaseInstance
l3j:_il2cpp_type_equals
$Wg:_Guid_CheckArray_m921056615
SXd:_ConfigHandler_ReadLifetine_m208994800
phf:_Enumerator_System_Collections_IDictionaryEnumerator_get_Entry_m3417028588_AdjustorThunk
N5j:__ZN6il2cpp6icalls8mscorlib6System7Runtime15InteropServices7Marshal19copy_from_unmanagedEiiP11Il2CppArrayi
CXh:_UInt16_System_IConvertible_ToByte_m3185614807_AdjustorThunk
pDf:_Rect_get_max_m350137314_AdjustorThunk
Km:FUNCTION_TABLE_diddi
k7j:__ZN6il2cpp6icalls8mscorlib6System5Array8FastCopyEP11Il2CppArrayiS5_ii
Xhd:__ZNK2UI14CanvasRenderer22GetTypeVirtualInternalEv
fbc:__Z42Register_UnityEngine_RectOffset_get_bottomv
Ouk:_newlocale
Pcb:__ZN9BoundsInt8TransferI14SafeBinaryReadEEvRT_
NMb:__Z20DoDeferredRenderLoopRK17RenderLoopContextR13dynamic_arrayI16RenderObjectDataLj0EES5_RK11CullResultsRP13RenderTextureSB_Pb
VDk:_emscripten_glUniform1f__wrapper
Tyk:dynCall_di
ATa:__ZN21EnlightenSceneMapping6AppendEiRKS_
$tf:_BaseInvokableCall_AllowInvoke_m878393606
Azc:__Z28RegisterModule_JSONSerializev
Jpd:__ZThn1168_N18UnityConnectClientD1Ev
mHc:__ZL57__ManagedRegistrationHelperFunction_CachedContactPoints2DPv
gXa:__ZN2UI13RectTransform8TransferI14SafeBinaryReadEEvRT_
LAc:__Z35Transfer_Blittable_FixedBufferFieldI9JSONWriteaEvRK29SerializationCommandArgumentsR31RuntimeSerializationCommandInfo
pqf:_Behaviour_get_enabled_m753527255
hcc:__Z20IsHumanControllingUsv
cO:__ZNK20DynamicHeapAllocatorI17LowLevelAllocatorE10GetPtrSizeEPKv
S6d:__ZL51TextInfo_t3810425522_CustomAttributesCacheGeneratorP21CustomAttributesCache
r9b:__ZN10systeminfo21GetPersistentDataPathEv
Ipd:__ZThn1168_N18UnityConnectClient18OnAdsIdRequestDoneERKN4core12basic_stringIcNS0_20StringStorageDefaultIcEEEEbS6_
Mwb:__ZN13GfxDeviceGLES17DestroyGpuProgramEPK10GpuProgram
fOi:_Array_InternalArray__set_Item_TisRaycastResult_t3360306849_m730888808_gshared
i9a:__Z44InitializeTransferFunctionScriptingTraitsForI18StreamedBinaryReadILb0EEEvR31TransferFunctionScriptingTraits
fPb:__ZNSt3__218__insertion_sort_3IR23CompareReflectionProbesP31RuntimeReflectionProbeBlendInfoEEvT0_S5_T_
Seb:__ZN12NativeBufferI27Converter_SimpleNativeClassI8GradientEE15SetupForWritingER9ArrayInfo
qvh:_Kernel_RightShift_m2207393597
q1:__ZNSt3__213__stable_sortIRNS_4lessIN4core12basic_stringIcNS2_20StringStorageDefaultIcEEEEEENS_11__wrap_iterIPS6_EEEEvT0_SC_T_NS_15iterator_traitsISC_E15difference_typeEPNSF_10value_typeEi
dPe:__ZL48Shadow_t773074319_CustomAttributesCacheGeneratorP21CustomAttributesCache
uP:__ZN12_GLOBAL__N_113StaticDestroyEPv
kwc:__ZNK8GUIStyle4DrawER8GUIStateRK5RectTIfER10GUIContentbbbb
GIk:_glUnmapBuffer__wrapper
sEc:__ZN8JSONRead21TransferSTLStyleArrayINSt3__26vectorI8Gradient13stl_allocatorIS3_L18MemLabelIdentifier1ELi16EEEEEEvRT_17TransferMetaFlags
EQa:__ZNSt3__218__insertion_sort_3IRNS_6__lessINS_4pairIPKN5Unity4TypeE7Hash128EES8_EEPS8_EEvT0_SC_T_
sVf:_InputField_set_onValueChanged_m3658917578
Agb:__ZN10RectOffset8TransferI24GenerateTypeTreeTransferEEvRT_
G$g:_BinaryReader__ctor_m2266204403
Laa:__ZN9Scripting11UnityEngine6Events14UnityEventBase9InitProxyEv
x_c:__ZNK10Collider2D15GetAttachedBodyEv
CKh:_Enumerator_VerifyState_m3047769867_AdjustorThunk
Mfb:__Z18Transfer_BlittableI24GenerateTypeTreeTransferLb1E5RectTIiEEvRK29SerializationCommandArgumentsR31RuntimeSerializationCommandInfo
Ohj:_Enumerator_System_Collections_IEnumerator_Reset_m24787251
gid:__ZN2UI13CanvasManager19RemoveDirtyRendererEPNS_6CanvasEPNS_14CanvasRendererE
Qtk:_isspace
cMf:_BinaryFormatter__ctor_m2620705134
_qd:__ZN11UnityEngine15PlatformWrapper25GetGraphicsRendererStringEv
ARh:_UTF7Encoding_InternalGetBytes_m797138468
Nfc:__ZZL31RegisterRectTransformPropertiesR22GenericPropertyBindingEN39Wrapper_RectTransformAnchoredPositiony113SetFloatValueEPvf
GM:__ZN11UnityEngine15CloudWebService17WebFileDownloaderINS0_20WebRequestRestClientENS0_23WebRequestRestHeaderMapEED2Ev
Rb:invoke_vi
Iy:__ZN12AudioManager8InitFMODE15FMOD_OUTPUTTYPE
JVc:__ZNSt3__26vectorINS0_IN10ClipperLib8IntPointENS_9allocatorIS2_EEEENS3_IS5_EEE7reserveEj
Pb:invoke_vd
rja:__ZNK6Camera19GetStereoViewMatrixE15StereoscopicEye
Chj:_Regex_get_RightToLeft_m2317867572
hX:__ZNK10GameObject8IsActiveEv
Ptc:__Z34Component_Get_Custom_PropTransformP12Il2CppObject
oEe:__ZL67g_UnityEngine_PhysicsModule_Assembly_CustomAttributesCacheGeneratorP21CustomAttributesCache
$Bb:__ZN18GfxFramebufferGLES23SetupDefaultFramebufferEPP17RenderSurfaceBaseS2_N2gl6HandleILNS3_10ObjectTypeE9EEE
KQc:__ZN22b2IslandDiscreteSolverC2EiiiPP6b2BodyPP9b2ContactPP7b2JointP10b2VelocityP10b2PositionRK10b2TimeStepR7b2World
fId:_DefaultControls_CreateDropdown_m3286664171
eJa:__ZN13ScreenManager18RequestOrientationE17ScreenOrientation
uJj:__ZN6il2cpp2vm5Class12SetupMethodsEP11Il2CppClass
ypc:__Z39DeleteLastPathNameComponentWithAnySlashRKN4core12basic_stringIcNS_20StringStorageDefaultIcEEEE
zxc:__ZN10GUIManager14InitGUIManagerEv
cYh:_UInt16_Equals_m642257745
dIg:_Array_System_Collections_IList_IndexOf_m3301661616
SWe:_AssemblyFileVersionAttribute__ctor_m3720707642
dVd:_RuntimeResourceSet_CloneDisposableObjectIfPossible_m2725520898
Vwc:__Z37Register_UnityEngine_GUIStyle_Cleanupv
Ma:invoke_iiifii
zsc:__Z26Mesh_CUSTOM_SetIndicesImplP12Il2CppObjecti16GfxPrimitiveTypeP11Il2CppArrayihi
k4f:_SliderEvent__ctor_m3149452941
hFg:_DeriveBytes__cctor_m1212925033
QKd:_Graphic_OnDisable_m1097930217
YTj:__ZN6il2cpp6icalls8mscorlib6System8MonoType13IsPointerImplEP20Il2CppReflectionType
Ui:_emscripten_glFramebufferRenderbuffer
bSb:__ZN19CullingGroupManager17CullAndSendEventsERK22SceneCullingParametersiRK13CullingOutputRK8JobFence
Kha:__ZN9Transform30EnsureTransformHierarchyExistsEv
ZVh:_Type_FilterName_impl_m2651733559
zG:__ZN11AudioModule26SetDefaultMicrophoneDriverEPv
wcc:__Z46Register_UnityEngine_Application_get_isPlayingv
uqc:__ZN13MonoBehaviour13StopCoroutineEPKc
PXb:__ZNSt3__26vectorINS_4pairIN4core12basic_stringIcNS2_20StringStorageDefaultIcEEEEPK17MessageIdentifierEENS_9allocatorISA_EEE12__move_rangeEPSA_SE_SE_
VKb:__ZN14qsort_internal17MedianOfThreeSwapIP17RODataReplacement19ROSorterReplacementEEvT_S4_S4_T0_
Kzg:_String_Split_m3646115398
fEf:_RectOffset_ToString_m2007443979
kIj:__ZNK15dense_hashtableINSt3__24pairIK10KeyWrapperIPK22Il2CppGenericParameterEP11Il2CppClassEES6_N6il2cpp5utils11PointerHashIS4_EEN14dense_hash_mapIS6_S9_SE_NS6_14EqualsComparerINS0_8equal_toIS5_EEEENS0_9allocatorISA_EEE9SelectKeyESJ_SL_E3endEv
Ogb:__Z29Transfer_Blittable_ArrayFieldI24GenerateTypeTreeTransfer11ColorRGBA32EvRT_R9ArrayInfoRK23StaticTransferFieldInfo
R_a:__ZN17ArchiveFileSystem10ToAbsoluteEPKc
Elc:__Z13RegisterClassI11PreloadDataEvPKc
lEe:__ZL50Joint2D_t4180440564_CustomAttributesCacheGeneratorP21CustomAttributesCache
hsc:__Z35Camera_CUSTOM_RaycastTry2D_InjectedP12Il2CppObjectRK3Rayfi
Krd:__ZN19UnityConnectService15GetPlayerUserIdEv
gph:_Array_InternalArray__IndexOf_TisSByte_t1669577662_m4156538463_gshared
kbc:__ZL12SetPrefValueRKN4core12basic_stringIcNS_20StringStorageDefaultIcEEEERK9PrefValue
rXb:__Z21GetBackgroundJobQueuev
djk:__ZN6il2cpp5utils11StringUtils6PrintfEPKcz
fya:__ZN15NameToObjectMapI6ShaderNSt3__23mapI4PPtrIS0_EN4core12basic_stringIcNS5_20StringStorageDefaultIcEEEENS1_4lessIS4_EENS1_9allocatorINS1_4pairIKS4_S9_EEEEEENS1_8multimapIS9_S4_NSA_IS9_EENSC_INSD_IKS9_S4_EEEEEEE4FindERSK_
Zza:__ZN24GenerateTypeTreeTransfer21TransferResourceImageE19ActiveResourceImagePKcR13StreamingInfoPvjiPKN5Unity4TypeE
qQi:_Array_Sort_TisVector3_t3722313464_m1030213405_gshared
Rck:__ZN6il2cpp2vm6Object5CloneEP12Il2CppObject
hrk:__ZN6il2cpp6icalls8mscorlib6System9Threading5Mutex20CreateMutex_internalEbP12Il2CppStringPb
Cte:__ZL47Time_t2420636075_CustomAttributesCacheGeneratorP21CustomAttributesCache
Csf:_Coroutine_Finalize_m1957108547
qqj:_KeyBuilder_Key_m2503211157
lra:__ZNSt3__212__deque_baseI18ReflectionProbeJobNS_9allocatorIS1_EEED2Ev
Z$b:__ZN15dense_hashtableINSt3__24pairIKiN4core17string_with_labelILi1EEEEEi18SInt32HashFunctionN14dense_hash_mapIiS5_S7_NS0_8equal_toIiEE13stl_allocatorIS6_L18MemLabelIdentifier1ELi16EEE9SelectKeyESA_SD_E13set_empty_keyERKS6_
ssf:_Component_GetComponentInChildren_m388868270
lIh:_GenericEqualityComparer_1_Equals_m1705889345_gshared
e8f:_FtpWebRequest__cctor_m699542155
vLg:_Byte_System_IConvertible_ToBoolean_m2888023769
Wbk:__GLOBAL__sub_I_GenericMetadata_cpp
d7f:_NameObjectCollectionBase_GetEnumerator_m3677320185
_Sb:__Z24CalculateSpotLightBoundsffRK10Matrix4x4fR15SpotLightBounds
Nia:__Z20InvertMatrix4x4_FullPKfPf
nI:__ZN23CloudWebServicesManager23VirtualRedirectTransferER14SafeBinaryRead
fFg:_PKCS12_AddCertificate_m3857004455
MMf:_WellKnownClientTypeEntry_ToString_m1119458503
zqb:__Z19ShouldTransferFieldR32SerializationCommandQueueBuilder17ScriptingClassPtriR18TransferField_InfoRK20CoreScriptingClasses
Grc:__Z48Register_UnityEngine_MonoBehaviour_InvokeDelayedv
$wg:_SecurityElement_IsValidText_m1346599242
v8a:__ZN26SinglePassStereoSupportExt21SetStereoMatrixCommonE21MonoOrStereoscopicEye24BuiltinShaderMatrixParamRK10Matrix4x4f
QB:__ZN5audio5mixer22UpdateAudioMixerMemoryERKNS0_18AudioMixerConstantERNS0_16AudioMixerMemoryEfPN4FMOD6SystemEf
L0c:__ZL21InitializeCachedStripPv
Uzh:_Dictionary_2_System_Collections_Generic_ICollectionU3CSystem_Collections_Generic_KeyValuePairU3CTKeyU2CTValueU3EU3E_Add_m3652125112_gshared
JWb:__ZN19CustomRenderTexture16GetRenderTextureEv
A6j:__ZN6il2cpp6icalls8mscorlib6System9Threading6Thread23GetCachedCurrentCultureEP12Il2CppThread
tia:__ZNK6Camera22GetWorldToCameraMatrixEv
tek:__ZN6il2cpp2vm12GenericClass11IsValueTypeEP18Il2CppGenericClass
N_b:__ZN13ScreenManager24SetIsFullscreenImmediateEb
Lpb:__ZN13MonoBehaviour7SetNameEPKc
E$d:_MethodDictionary_IsOverridenKey_m946843558
T1g:_FileStream_BeginRead_m2419864669
Jii:_U3CStartU3Ec__Iterator0_MoveNext_m4270440387_gshared
BNj:__ZN10KeyWrapperIN6il2cpp5utils13dynamic_arrayIPK10Il2CppTypeLj4EEEEC2ERKS7_
Lub:__ZN17InstancingBatcher22FindCBUpperBoundKonstsEv
tnd:__ZN11UnityEngine9Analytics15AnalyticsConfig13ConfigChangedERKN4core12basic_stringIcNS2_20StringStorageDefaultIcEEEER8JSONRead
tTa:__ZN18AwakeFromLoadQueue5ClearEv
o2g:_FileStream_SetLength_m99749826
uRb:__ZNSt3__27__sort5IR15ReflProbeSorterPP15ReflectionProbeEEjT0_S6_S6_S6_S6_T_
l$:__ZN8Playable10DisconnectEPS_i
Bk:_glGenTransformFeedbacks
FSa:__ZN13LoadOperationD2Ev
pYg:_Int16_System_IConvertible_ToType_m3672347013
DGg:_AttrListImpl_GetValue_m3657391095
Ctb:__Z21PlayerStartFirstSceneb
R1i:_List_1_CheckIndex_m3933537097_gshared
Zxa:__ZNSt3__27__sort5IRPFbRKNS_4pairIN9ShaderLab16FastPropertyNameEN18UnityPropertySheet11UnityTexEnvEEES8_EPS6_EEjT0_SD_SD_SD_SD_T_
dAb:__ZNK7ApiGLES18GetExtensionStringEv
r1i:_List_1_System_Collections_IList_IndexOf_m2444653486_gshared
WDk:_emscripten_glVertexAttrib1f__wrapper
NYa:__ZNK12HandlerChain4SizeERK13FileEntryData
fp:FUNCTION_TABLE_iiiiiiiii
u6h:_ReadOnlyCollection_1_System_Collections_Generic_ICollectionU3CTU3E_Remove_m4177779688_gshared
Xba:__ZN9Scripting11UnityEngine14AnimationCurve9InitProxyEv
TIc:__Z22GetPhysicsGroundBody2Dv
aNg:_Char_IsLetter_m3996985877
H2i:_Queue_1_Peek_m2302800625_gshared
dmk:_GC_allochblk
LTa:__Z15UnloadGameScenev
Prh:_Array_InternalArray__ICollection_CopyTo_TisKeyframe_t4206410242_m2132255743_gshared
BIk:_glCheckFramebufferStatus__wrapper
xMd:_Image__ctor_m2551076292
Gof:_Dictionary_2_System_Collections_ICollection_CopyTo_m3143696177_gshared
Xni:__Z103RuntimeInvoker_Void_t1185182177_Int32_t2950945753_Int32_t2950945753_Int32_t2950945753_SByte_t1669577662PFvvEPK10MethodInfoPvPS4_
auc:__Z36Renderer_Get_Custom_PropSortingOrderP12Il2CppObject
HWj:__ZNK15dense_hashtableINSt3__24pairIK10KeyWrapperIPK10Il2CppTypeEjEES6_N6il2cpp8metadata14Il2CppTypeHashEN14dense_hash_mapIS6_jSB_NS6_14EqualsComparerINSA_26Il2CppTypeEqualityComparerEEENS0_9allocatorIS8_EEE9SelectKeyESF_SH_E13find_positionERS7_
Tta:__ZN7Texture5ResetEv
EMc:__ZNK14b2CapsuleShape7RayCastEP15b2RayCastOutputRK14b2RayCastInputRK11b2Transformi
MYd:_Context_get_HasDynamicSinks_m3952434387
KPh:_Latin1Encoding_GetByteCount_m1145650505
bfb:__Z18Transfer_BlittableI24GenerateTypeTreeTransferLb1EhEvRK29SerializationCommandArgumentsR31RuntimeSerializationCommandInfo
P_e:_GenericTypeParameterBuilder_GetPropertyImpl_m2584778600
cmb:__Z13TransferFieldI18StreamedBinaryReadILb1EELb0E16Converter_StringEvRK23StaticTransferFieldInfoR31RuntimeSerializationCommandInfoRT1_
lzk:dynCall_iiifii
XZ:__ZnwjRKSt9nothrow_t
zHg:_ApplicationException__ctor_m2557611022
Gwa:__ZN14SafeBinaryRead19TransferSTLStyleMapINSt3__23mapI39DeprecatedFastPropertyNameSerializationN18UnityPropertySheet11UnityTexEnvENS1_4lessIS3_EENS1_9allocatorINS1_4pairIKS3_S5_EEEEEEEEvRT_17TransferMetaFlags
Irc:__Z45Register_UnityEngine_MonoBehaviour_IsInvokingv
Y_i:_List_1_CheckMatch_m579516778_gshared
fib:__ZL26Transfer_SimpleNativeClassI19StreamedBinaryWriteILb0EE17AnimationCurveTplIfELb0EEvRK29SerializationCommandArgumentsR31RuntimeSerializationCommandInfo
Vtb:__Z43GiveManagedDebuggerChanceToAttachIfRequiredv
rLg:_Buffer_ByteLengthInternal_m1388208719
orh:_Array_InternalArray__ICollection_CopyTo_TisInt64_t3736567304_m2845057751_gshared
Bqc:__Z35UnregisterSerializationCacheBuilderPFv17ScriptingClassPtrR23CachedSerializationDataRbE
OU:__ZNSt3__26__treeINS_12__value_typeIPKc18ScriptingMethodPtrEENS_19__map_value_compareIS3_S5_14CStringCompareLb1EEE13stl_allocatorIS5_L18MemLabelIdentifier1ELi16EEE25__emplace_unique_key_argsIS3_JRKNS_21piecewise_construct_tENS_5tupleIJOS3_EEENSH_IJEEEEEENS_4pairINS_15__tree_iteratorIS5_PNS_11__tree_nodeIS5_PvEEiEEbEERKT_DpOT0_
A_g:_Int64_System_IConvertible_ToUInt32_m109903525_AdjustorThunk
Wla:__Z30GetBuiltinVectorParamArraySize24BuiltinShaderVectorParam
oR:__ZNSt3__25stackIPN9ShaderLab21SerializedShaderStateENS_5dequeIS3_NS_9allocatorIS3_EEEEED2Ev
T5:__ZL46__ManagedRegistrationHelperFunction_SpriteBonePv
bsc:__Z36Camera_CUSTOM_get_pixelRect_InjectedP12Il2CppObjectR5RectTIfE
Mta:__ZN13RenderTextureC2E10MemLabelId18ObjectCreationMode
FYg:_Int32_GetFormatException_m519586683
hfe:__ZL46StringBuilder_t_CustomAttributesCacheGeneratorP21CustomAttributesCache
z_c:__ZN16b2ContactManagerC2Ev
ptc:__Z60Register_UnityEngine_ScriptableObject_CreateScriptableObjectv
kTi:_Array_InternalArray__get_Item_TisVector2_t2156229523_m2502961026_gshared
$Ea:__ZN21RendererUpdateManager11AddRendererER8Renderer
T9a:__Z35Transfer_Blittable_FixedBufferFieldI14SafeBinaryReadsEvRK29SerializationCommandArgumentsR31RuntimeSerializationCommandInfo
C7g:_Convert_ToDateTime_m3802186295
ejk:__ZN6il2cpp5utils11StringUtils11Utf16ToUtf8EPKDs
CSa:__ZN18StreamedBinaryReadILb0EE21TransferSTLStyleArrayINSt3__26vectorIN15ResourceManager10DependencyE13stl_allocatorIS5_L18MemLabelIdentifier52ELi16EEEEEEvRT_17TransferMetaFlags
XZh:_UInt64_CompareTo_m1614517204_AdjustorThunk
nrd:__ZN11UnityEngine15PlatformWrapper20IsRootedOrJailbrokenEv
uHb:__ZZ23InitPlayerLoopCallbacksvEN52PreLateUpdateScriptRunBehaviourLateUpdateRegistrator7ForwardEv
BTb:__Z33IntersectAABBPlaneBoundsOptimizedRK4AABBPKN4math7_float4Ei
_2a:__ZN9GfxDevice19EndGeometryJobFrameEv
loj:_GUILayoutUtility_Layout_m1159951704
vUf:_InputField_get_shouldActivateOnSelect_m3055465770
Xeb:__ZN27Converter_SimpleNativeClassI17AnimationCurveTplIfEE17ScriptingToNativeER18ScriptingObjectPtrPS1_
YVh:_Type__cctor_m2371893800
Urk:__ZN6il2cpp8metadata24Il2CppGenericInstCompare7CompareERK10KeyWrapperIPK17Il2CppGenericInstES8_
cMj:__ZNK15dense_hashtableINSt3__24pairIK10KeyWrapperIPK19Il2CppGenericMethodEPK26Il2CppGenericMethodIndicesEES6_N6il2cpp8metadata23Il2CppGenericMethodHashEN14dense_hash_mapIS6_SA_SE_NS6_14EqualsComparerINSD_26Il2CppGenericMethodCompareEEENS0_9allocatorISB_EEE9SelectKeyESI_SK_E5beginEv
AAd:_ExecuteEvents_Execute_m3049310229
Nte:__ZL84Object_t631007953_CustomAttributesCacheGenerator_Object_DestroyImmediate_m2288369078P21CustomAttributesCache
i9:__ZN9Scripting11UnityEngine12LightmapData12CleanupProxyEv
Jdc:__ZNK17AnimationCurveTplIfE8EvaluateEfPNS0_5CacheE
zGb:__Z31ManagerContextInitializeClassesv
D6h:_ReadOnlyCollection_1_System_Collections_IList_Contains_m2650112051_gshared
yjh:_Array_get_swapper_TisVector3_t3722313464_m1221246401_gshared
o4c:_UNITY_FT_List_Finalize
fMb:__Z20LightAttenuateApproxRKfS0_
nU:__ZN9Scripting30SetCachedPtrOnScriptingWrapperE18ScriptingObjectPtrP6Object
Lfg:_RepeatContext_get_IsMinimum_m3640286252
IOf:_ObjectRecord_ChainFixup_m1889316362
Gsa:__ZN18BlockRangeInternal16PopLastNodeIndexEP10BlockRangeji
Tkk:__ZN6il2cpp2vm13CachedCCWBaseINS0_13ManagedObjectEE6AddRefEv
NDd:_TouchInputModule_UpdateModule_m2582897964
qMa:__ZN4MeshD0Ev
jxd:__ZL42RequestRecreateEyeTexturesBeforeNextUpdatev
dla:__ZNK6Camera20IsCurrentlyRenderingEv
Gkd:__Z36CanvasRenderer_CUSTOM_SetPopMaterialP12Il2CppObjectS0_i
SAc:__Z18Transfer_BlittableI9JSONWriteLb0EdEvRK29SerializationCommandArgumentsR31RuntimeSerializationCommandInfo
z9c:_otv_u_O_O_u_O_O
Dja:__ZN6Camera8TransferI19StreamedBinaryWriteILb0EEEEvRT_
Leh:_DBNull_System_IConvertible_ToSByte_m3533624679
npa:__ZThn252_N31CanvasBatchIntermediateRenderer14OnAssetDeletedEv
juk:_wctomb
SMg:_Char_CompareTo_m42489266
zIi:__Z67RuntimeInvoker_Void_t1185182177_Int32_t2950945753_Double_t594665363PFvvEPK10MethodInfoPvPS4_
Ebc:__Z27Camera_CUSTOM_GetAllCamerasP11Il2CppArray
Zc:___cxa_rethrow
uTd:_ParameterInfo_GetCustomAttributes_m2376494592
wCc:__Z18Transfer_BlittableI8JSONReadLb1EhEvRK29SerializationCommandArgumentsR31RuntimeSerializationCommandInfo
IKd:_Graphic_get_canvasRenderer_m315509948
x7i:_Collection_1_System_Collections_IList_Contains_m3397768605_gshared
MUg:_CultureInfo_construct_internal_locale_from_name_m3254739477
wrg:_RSASslSignatureDeformatter_VerifySignature_m1061897602
dWb:__ZN13MonoBehaviour8SetClassE17ScriptingClassPtr18ScriptingObjectPtr
X2a:__ZN9GfxDevice33ScheduleComputeBufferJobsInternalEPFvP20ComputeBufferJobDataEPFvRK8JobFenceEPK27ComputeBufferJobInstructionj
JMi:_Array_InternalArray__Insert_TisLabelFixup_t858502054_m171542753_gshared
Kcf:_InternalEnumerator_1_System_Collections_IEnumerator_get_Current_m3539708496_AdjustorThunk
tZa:__ZN20LocalFileSystemPosix4ReadER13FileEntryDatayyPvPy
WPb:__ZNSt3__211__sift_downIRN23ForwardShaderRenderLoop18RenderObjectSorterILb0EEEP21ForwardRenderPassDataEEvT0_S7_T_NS_15iterator_traitsIS7_E15difference_typeES7_
Lvg:_SecurityPermission__ctor_m1462427327
xPi:_Array_Sort_TisBoolean_t97287965_TisBoolean_t97287965_m2753381653_gshared
zAk:dynCall_iiiiiiffiiiiiiiiiffffiiii
$pb:__ZN13MonoBehaviour5DoGUIENS_13GUILayoutTypeEii
UWd:_ChannelData_get_ClientProviders_m594662942
Tij:_QuickSearch_GetChar_m1297698557
mfa:__ZNK12TLSAllocatorI14StackAllocatorE8ContainsEPKv
GOa:__ZN11TimeManager8TransferI18StreamedBinaryReadILb0EEEEvRT_
VLb:__ZL8AddLightRK12ActiveLightsRK8Vector3fiR13dynamic_arrayI11CulledLightLj0EE
P7g:_DateTime__ParseEnum_m253019513
Dbh:_Convert_ToUInt32_m2194577773
DMa:__ZN14BlendShapeData8TransferI14SafeBinaryReadEEvRT_
PRg:_Hashtable_Remove_m4032631466
kxh:_DSAManaged_GenerateKeyPair_m2236915969
Iza:__ZN7Texture25ReloadFromStorageIfNeededEPvb
Doh:_Array_InternalArray__IndexOf_TisBoolean_t97287965_m1161209222_gshared
GLj:__ZNK15dense_hashtableINSt3__24pairIK10KeyWrapperIP9FieldInfoEiEES5_N6il2cpp5utils11PointerHashIS3_EEN14dense_hash_mapIS5_iSB_NS5_14EqualsComparerINS0_8equal_toIS4_EEEENS0_9allocatorIS7_EEE9SelectKeyESG_SI_E3endEv
Nqk:__ZN6il2cpp2os12Cryptography24OpenCryptographyProviderEv
bba:__ZN9Scripting11UnityEngine12CullingGroup9InitProxyEv
yPg:_SynchronizedArrayListWrapper_Clear_m2191301493
Udd:_Update_Max
t7j:__ZN6il2cpp6icalls8mscorlib6SystemL15ThrowNoWideningEv
_cc:__ZNK23TransformChangeDispatch24GetChangeMaskForInterestENS_12InterestTypeE
fdc:__Z45Transform_CUSTOM_INTERNAL_CALL_TransformPointP12Il2CppObjectRK8Vector3fRS1_
Y_e:_GenericTypeParameterBuilder_InvokeMember_m1647304778
uMd:_HorizontalOrVerticalLayoutGroup_set_childControlWidth_m3261460516
Ywa:__ZNSt3__26__treeINS_12__value_typeI39DeprecatedFastPropertyNameSerializationfEENS_19__map_value_compareIS2_S3_NS_4lessIS2_EELb1EEENS_9allocatorIS3_EEE7destroyEPNS_11__tree_nodeIS3_PvEE
Ubd:_tt_cmap4_char_index
g2i:_Enumerator_System_Collections_IEnumerator_Reset_m1487823313_gshared
XYa:__ZNK12HandlerChain8IsHiddenERK13FileEntryData
V1a:__ZNSt3__26__treeINS_12__value_typeIN4core12basic_stringIcNS2_20StringStorageDefaultIcEEEEPN16MemoryFileSystem4NodeEEENS_19__map_value_compareIS6_SA_NS_4lessIS6_EELb1EEE13stl_allocatorISA_L18MemLabelIdentifier55ELi16EEE25__emplace_unique_key_argsIS6_JNS_4pairIKS6_S9_EEEEENSK_INS_15__tree_iteratorISA_PNS_11__tree_nodeISA_PvEEiEEbEERKT_DpOT0_
leb:__ZL26Transfer_SimpleNativeClassI17RemapPPtrTransfer10RectOffsetLb0EEvRK29SerializationCommandArgumentsR31RuntimeSerializationCommandInfo
ZZg:_Int32_ToString_m2507389746_AdjustorThunk
lah:_Decimal_op_Explicit_m438967917
wEj:_AnimatorControllerPlayable_SetHandle_m2260644454_AdjustorThunk
gVc:__ZN10ClipperLib14PointInPolygonERKNS_8IntPointEPNS_5OutPtE
mVf:_InputField_set_selectionColor_m2084640295
Sla:__ZNK9ShaderLab20ShaderBlendStateDesc15ToGfxBlendStateEPK19ShaderPropertySheetS3_R13GfxBlendState
Thf:_Enumerator_System_Collections_IEnumerator_get_Current_m1747693366_AdjustorThunk
Bdd:_Compute_Point_Displacement
U4b:__ZN9ShaderLab9IntShaderC2Ev
dUj:__ZN6il2cpp6icalls8mscorlib6SystemL9IsPrivateEPK9EventInfo
oqk:__ZN6il2cpp6icalls8mscorlib6System10Reflection4Emit11TypeBuilder20setup_internal_classEP27Il2CppReflectionTypeBuilderS7_
$oh:_Array_InternalArray__IndexOf_TisILTokenInfo_t2325775114_m2602704009_gshared
DAd:_ExecuteEvents_Execute_m3613826831
zQh:_StringBuilder_AppendFormat_m3255666490
dWe:_OverflowException__ctor_m4029085969
Pxc:__ZN13GUIStateScope3EndER16GUIKeyboardStateR8GUIStatePN5IMGUI19NamedKeyControlListE
fPd:_TypeBuilder_GetGenericArguments_m2872156836
WHj:__ZN13Il2CppHashMapIPK22Il2CppGenericParameterP11Il2CppClassN6il2cpp5utils11PointerHashIS1_EENSt3__28equal_toIS2_EENS9_9allocatorINS9_4pairIK10KeyWrapperIS2_ES4_EEEEEC2EjRKS8_RKSB_
ODc:__ZN8JSONRead21TransferSTLStyleArrayI31ArrayOfManagedObjectsTransfererEEvRT_17TransferMetaFlags
f_a:__Z15CreateDirectoryRKN4core12basic_stringIcNS_20StringStorageDefaultIcEEEE
WNa:__Z21CalculateGlobalMatrix23TransformAccessReadOnly
gPd:_TypeBuilder_GetGenericTypeDefinition_m1632720438
Mjh:_Array_InternalArray__ICollection_Contains_TisLink_t544317964_m163190451_gshared
ieh:_DateTimeOffset_System_IComparable_CompareTo_m176229495_AdjustorThunk
hxf:_ManagedStreamHelpers_ValidateLoadFromStream_m580138133
oQa:__ZNK13BuildSettings22GetTypeVirtualInternalEv
X5b:__ZN13MonoBehaviour20SetScriptingDataFromERKS_
A:tempBigIntD
Z$i:_List_1_CheckIndex_m2250397830_gshared
yAg:_String_LastIndexOf_m578673845
Xzf:_PlayerEditorConnectionEvents_UnregisterManagedCallback_m400366024
G4b:__ZN9ShaderLab20SerializedSubProgram14ConstantBufferC2EOS1_
z:tempBigIntI
igg:_Interval_get_Empty_m3617514670
EWe:_Assembly_GetName_m981771927
rek:__ZN6il2cpp2vm12GenericClass8GetClassEP18Il2CppGenericClass
u3a:__ZNK9GfxDevice27GetActiveRenderSurfaceWidthEv
bJe:__ZL114StandaloneInputModule_t2760469101_CustomAttributesCacheGenerator_StandaloneInputModule_ForceAutoSelect_m2837047882P21CustomAttributesCache
ard:__ZN11UnityEngine15PlatformWrapper28GetCleanGraphicsFixedVersionEv
O_f:_MaskableGraphic_RecalculateClipping_m1772937317
V7b:__ZN4core8hash_mapI12TriangleEdgei16TriangleEdgeHashNSt3__28equal_toIS1_EEEixERKS1_
LQe:_UnmanagedMemoryStream_SetLength_m3752964620
Cbj:_SslStreamBase_RaiseLocalPrivateKeySelection_m4112368540
d1j:__ZN6il2cpp2vm4Type7GetTypeEPK10Il2CppType
LWc:__ZN17PhysicsMaterial2D23VirtualRedirectTransferER18StreamedBinaryReadILb0EE
e8b:__ZN16SpriteRenderData28PrepareRenderingDataIfNeededEv
a4c:_open_face_PS_from_sfnt_stream
nRh:_UTF32Encoding_GetByteCount_m3610769032
bG:__ZN11AudioModule16SetListenerPauseEb
ILg:_Byte_System_IConvertible_ToInt32_m3495522413
nIb:__Z16FindCameraStacksRKNSt3__24listI4PPtrI6CameraENS_9allocatorIS3_EEEERNS_6vectorI11CameraStackNS4_ISA_EEEE
Lhj:_MatchCollection_CopyTo_m3807326147
VFa:__ZN10GISettings8TransferI14SafeBinaryReadEEvRT_
An:FUNCTION_TABLE_vifff
JTf:_MD5CryptoServiceProvider__ctor_m3271163125
eXb:__ZN19CustomRenderTexture12ClearGPUDataEv
AXg:_Guid_Equals_m3683678873
aua:__ZN13RenderTexture13ApplySettingsEv
FNf:_ObjectReader_RegisterObject_m1853376334
r0e:_ModuleBuilderTokenGenerator_GetToken_m2588853565
LKg:_Boolean_System_IConvertible_ToDecimal_m3176932461_AdjustorThunk
APb:__ZNSt3__26__treeINS_12__value_typeIi17ShadowCachingDataEENS_19__map_value_compareIiS3_NS_4lessIiEELb1EEE13stl_allocatorIS3_L18MemLabelIdentifier66ELi16EEE25__emplace_unique_key_argsIiJNS_4pairIiS2_EEEEENSD_INS_15__tree_iteratorIS3_PNS_11__tree_nodeIS3_PvEEiEEbEERKT_DpOT0_
Ye:_JS_Sound_SetListenerPosition
tn:FUNCTION_TABLE_fiffi
okd:__Z55Register_UnityEngine_CanvasGroup_get_ignoreParentGroupsv
x6h:_ReadOnlyCollection_1_System_Collections_Generic_IListU3CTU3E_set_Item_m711370667_gshared
AXe:_Default_check_arguments_with_score_m3467814020
ZVa:__ZNK8Material16MarkDependenciesER27GarbageCollectorThreadState
r4f:_Slider_set_handleRect_m1101657556
veh:_DateTimeOffset_ToString_m3985341516_AdjustorThunk
VAc:__ZL17Transfer_GUIStyleI9JSONWriteLb0EEvRK29SerializationCommandArgumentsR31RuntimeSerializationCommandInfo
aNb:__Z28GetHaloVertexPositionsStereoP8Vector3fRKS_S2_f
U2:__ZN6prcoreL27StretchGenericFloatBilinearI15TexFormatRGHalfEEvPKNS_9InnerInfoE
YMb:__ZN9DepthPass7PrepareER6CameraRK13dynamic_arrayI16RenderObjectDataLj0EERK15RenderNodeQueueRK17ShaderReplaceDatab
H9:__ZN9Scripting11UnityEngine12Experimental3U2D10SpriteBone9InitProxyEv
NWg:_SortKey_GetHashCode_m3547067087
$G:__Z13RegisterClassI12AudioManagerEvPKc
Kmb:__Z18Transfer_BlittableI18StreamedBinaryReadILb0EELb1E9BoundsIntEvRK29SerializationCommandArgumentsR31RuntimeSerializationCommandInfo
gNe:__ZL71SpriteState_t1362986479_CustomAttributesCacheGenerator_m_DisabledSpriteP21CustomAttributesCache
Jsd:__ZN22BaseUnityConnectClient28UpdateConfigFromServerStaticEPv
dbg:_PublicKey_DecodeDSA_m3490622362
Icc:__Z49Register_UnityEngine_Resources_GetBuiltinResourcev
PWh:_Type_GetMethod_m1479779718
Hbd:_tt_cmap10_char_index
acj:_TlsException__ctor_m3242533711
g2b:__ZN15SerializeTraitsINSt3__24pairIN4core12basic_stringIcNS2_20StringStorageDefaultIcEEEE4PPtrI7TextureEEEE8TransferI24GenerateTypeTreeTransferEEvRSA_RT_
n5g:_SortedList__ctor_m3676552745
yIj:__ZN15dense_hashtableINSt3__24pairIK10KeyWrapperIPK22Il2CppGenericParameterEP11Il2CppClassEES6_N6il2cpp5utils11PointerHashIS4_EEN14dense_hash_mapIS6_S9_SE_NS6_14EqualsComparerINS0_8equal_toIS5_EEEENS0_9allocatorISA_EEE9SelectKeyESJ_SL_E3endEv
zF:__ZN11AudioSource24ClearExtensionPropertiesE12PropertyName
k3b:__ZN9ShaderLab22SerializedBindChannels8TransferI19StreamedBinaryWriteILb0EEEEvRT_
ycb:__ZN15SerializeTraitsI5RectTIiEE8TransferI14SafeBinaryReadEEvRS1_RT_
Cwc:__ZN5IMGUI20MoveWindowFromLayoutER8GUIStateiRK5RectTIfE
F4c:_UNITY_FT_Stream_ReadUShort
Fwa:__ZNSt3__26__treeINS_12__value_typeIN4core12basic_stringIcNS2_20StringStorageDefaultIcEEEES6_EENS_19__map_value_compareIS6_S7_NS_4lessIS6_EELb1EEE13stl_allocatorIS7_L18MemLabelIdentifier1ELi16EEE7destroyEPNS_11__tree_nodeIS7_PvEE
XAb:__Z13IsDepthFormat14GraphicsFormat
JPa:__ZN12AspectRatios8TransferI24GenerateTypeTreeTransferEEvRT_
NSe:_MonoType_GetFields_m4176012508
pyi:__Z73RuntimeInvoker_Single_t1397266774_Vector3_t3722313464_Vector3_t3722313464PFvvEPK10MethodInfoPvPS4_
mch:_CurrentSystemTimeZone_GetTimeZoneData_m2641861607
Of:_emscripten_glUniform1fv
uFh:_EqualityComparer_1_System_Collections_IEqualityComparer_GetHashCode_m3423304513_gshared
LIj:__ZN6il2cpp2vm5Class13GetArrayClassEP11Il2CppClassj
fDd:_StandaloneInputModule_set_inputActionsPerSecond_m4057208843
Ntb:__ZN19RuntimeSceneManager18LoadSceneAsyncIntoER10UnitySceneRKN4core12basic_stringIcNS2_20StringStorageDefaultIcEEEENS_11LoadingModeEb
HSf:_HashAlgorithm_ComputeHash_m2044824070
dyc:__ZN11IMGUIModule12AddGUIScriptER8ListNodeI13MonoBehaviourE
nb:invoke_difi
ioj:_GUILayoutUtility_BeginWindow_m2240221150
BEk:_glDeleteSamplers__wrapper
xZ:__ZL50StaticRegisterSceneLoadedCallback_LightmapSettingsPv
r6f:_HybridDictionary_set_Item_m2997363718
Um:FUNCTION_TABLE_iiffi
gdf:_InternalEnumerator_1_get_Current_m1477715453_AdjustorThunk
PZh:_UInt64_System_IConvertible_ToUInt32_m2784653358
HAb:__ZN21GLESGpuProgramApplier11ApplyVectorERKN20GpuProgramParameters14ValueParameterEPK8Vector4ft
gSb:__Z17PrepareSceneNodesP11CullResults
cQf:_SByte_System_IConvertible_ToDecimal_m2548745278
x5c:_cff_size_done
KSb:__ZN29ExtractProjectionPlanesHelperILb1EE5ApplyERK10Matrix4x4fP5Plane
Akk:__ZN6il2cpp6icalls8mscorlib6System7Convert17Base64ToByteArrayEPDsib
Thc:__ZN13ProduceHelperI7CubemapLb0EE7ProduceE10MemLabelId18ObjectCreationMode
wXb:__ZN6Camera34UpdatePreviousViewProjectionMatrixEv
awa:__ZN9ShaderLab11ShaderState25RemoveUnsupportedProgramsEPK6Shader
Xfd:__Z28Font_Get_Custom_PropMaterialP12Il2CppObject
Axf:_Mathf_Abs_m3281243566
LPe:_SynchronizedWriter_WriteLine_m1552352268
L9b:__Z26scripting_class_has_parent17ScriptingClassPtrS_
jY:__ZN13RuntimeStaticI21AssetReferenceStorageLb0EE16StaticInitializeEPv
eZg:_Int32_System_IConvertible_ToByte_m3832391412_AdjustorThunk
QF:__Z71Register_UnityEngine_AudioSource_INTERNAL_CALL_ClearExtensionPropertiesv
g9e:_InternalEnumerator_1_System_Collections_IEnumerator_get_Current_m4088805473_gshared
W8:__ZN9Scripting11UnityEngine5Plane12CleanupProxyEv
Jm:FUNCTION_TABLE_viiifiii
ywc:__Z36Register_UnityEngine_GUI_set_changedv
UYd:_Context_GetServerContextSinkChain_m3154465897
wBi:__Z81RuntimeInvoker_Int32_t2950945753_Ray_t3785851493_RuntimeObject_Single_t1397266774PFvvEPK10MethodInfoPvPS4_
bpj:_GUIStyle_get_fixedHeight_m2868324709
zpe:__ZL48Mathf_t3464937446_CustomAttributesCacheGeneratorP21CustomAttributesCache
xqk:__GLOBAL__sub_I_Il2CppCodeRegistration_cpp
uNh:_List_1_GetIndex_m3112872964_gshared
JId:_Dropdown_set_value_m1048320169
QGj:_CustomEventData_Finalize_m1724721833
Oqa:__ZN20TierGraphicsSettings8TransferI18StreamedBinaryReadILb0EEEEvRT_
DZg:_Int32_System_IConvertible_ToUInt64_m2502338186_AdjustorThunk
q0:__Z33CleanupCubemapGPUUtilityMaterialsPv
$sc:__Z43Register_UnityEngine_Material_EnableKeywordv
YEj:__ZL9rshift128PyS_
$Yg:_Int16_ToString_m2072232391_AdjustorThunk
wLh:_Enumerator_VerifyState_m169680537_AdjustorThunk
J$j:__ZN14dense_hash_mapI10KeyWrapperINSt3__24pairIPK12PropertyInfoP11Il2CppClassEEEj17ReflectionMapHashIS8_ENS9_14EqualsComparerINS1_8equal_toIS8_EEEENS1_9allocatorINS2_IKS9_jEEEEE13set_empty_keyERSH_
mk:_glRenderbufferStorage
wak:__ZNK15dense_hashtableINSt3__24pairIK10KeyWrapperINS1_IPKcS4_EEEiEES6_24NamespaceAndNamePairHashN14dense_hash_mapIS6_iS9_NS6_14EqualsComparerI26NamespaceAndNamePairEqualsEENS0_9allocatorIS8_EEE9SelectKeyESD_SF_E13find_positionERS7_
Fec:__Z45Register_UnityEngine_Input_get_touchSupportedv
erd:__ZN11UnityEngine15PlatformWrapper28GetTextureFormatSupportFlagsEv
nad:_sfnt_is_postscript
LLf:_RemotingConfiguration_RegisterWellKnownClientType_m1237674062
pca:__ZN9Scripting5Unity11Collections8LowLevel6Unsafe42NativeDisableUnsafePtrRestrictionAttribute9InitProxyEv
kmj:_Uri_EscapeString_m3864445955
f6c:_cf2_setError
nHa:__ZN14SafeBinaryRead21TransferSTLStyleArrayI13dynamic_arrayI12BoneWeights4Lj16EEEEvRT_17TransferMetaFlags
VGb:__ZZ23InitPlayerLoopCallbacksvEN35PreUpdateSendMouseEventsRegistrator7ForwardEv
ela:__ZNK6Camera25GetNormalizedViewportRectEP13RenderTextureb
KId:_Dropdown_Awake_m3140021404
ch:_glDisable
Hb:invoke_vffff
WIf:_Vector2_get_sqrMagnitude_m837837635
zjk:__ZN6il2cpp5utils11StringUtils15StringDuplicateEPKDsj
$jj:_Regex_Match_m4145799399
DAg:_String_IsNullOrEmpty_m2969720369
mCj:_TextGenerator_GetPreferredHeight_m3514897836
Vuh:_BigInteger_LowestSetBit_m3082714978
nJk:b118
oJk:b119
iIb:__ZNK8Material12GetPassCountEv
Psg:_RSAParameters_t1728406613_marshal_pinvoke
rgg:_Interval_IsDisjoint_m1532171337_AdjustorThunk
hJk:b112
dyk:_bitshift64Ashr
jJk:b114
kJk:b115
lJk:b116
mJk:b117
Azk:dynCall_diii
OZf:_LayoutUtility_GetFlexibleWidth_m22831835
oNf:_BinaryFormatter__ctor_m971003555
u2e:_ArrayReadOnlyList_1_ReadOnlyError_m865416608_gshared
aUb:__Z18AddGroupToWorkloadR26BlockRangeBalancedWorkloadjR13dynamic_arrayI10BlockRangeLj0EERS1_IjLj0EE
GQg:_CollectionBase_System_Collections_IList_get_Item_m3743372945
gCa:__ZN4crnd12crn_unpacker22decode_alpha_endpointsEv
A2i:_Queue_1__ctor_m2068090025_gshared
yTb:__Z23CullDynamicObjectsUmbraPK4AABBPKN5Umbra15OcclusionBufferER9IndexList
Bbj:_SslStreamBase_RaiseRemoteCertificateValidation2_m2908038766
Vbd:_tt_cmap4_char_next
aHd:_ColorTween_set_startColor_m2562993758_AdjustorThunk
Zki:__Z50RuntimeInvoker_Boolean_t97287965_Int16_t2552820387PFvvEPK10MethodInfoPvPS4_
T_:__ZN17DirectorFrameTime14ResetDSPValuesEv
Y8g:_Convert_ToDecimal_m1233667008
tBi:__Z44RuntimeInvoker_RuntimeObject_Ray_t3785851493PFvvEPK10MethodInfoPvPS4_
utd:__ZN22UnityAnalyticsSettings10SetEnabledEb
qz:__ZN4FMOD7Channel11setPositionEjj
Wh:_glBindSampler
ink:_GC_reclaim_block
ymg:_ClientContext_get_ClientHelloProtocol_m1654639078
_h:_glGetVertexAttribiv
Mmf:_Enumerator_System_Collections_IEnumerator_get_Current_m1975949486_gshared
sij:_PatternCompiler_EmitSub_m193323684
vca:__ZN9Scripting5Unity11Collections8LowLevel6Unsafe49NativeContainerSupportsDeferredConvertListToArray9InitProxyEv
$Dc:__ZN8JSONRead8TransferIbEEvRT_PKc17TransferMetaFlagsb
EVh:_TimeSpan_ToString_m1128692466
$qj:_AesManaged_CreateEncryptor_m2294080233
Lnj:_Event_GetHashCode_m3559153592
ZPh:_StringBuilder__ctor_m2367297767
Nlk:_GC_promote_black_lists
HUg:_CultureInfo_construct_datetime_format_m1928121315
PEc:__Z29Transfer_Blittable_ArrayFieldI8JSONRead8Vector4fEvRT_R9ArrayInfoRK23StaticTransferFieldInfo
Zn:FUNCTION_TABLE_vf
TSe:_Binder_GetDerivedLevel_m3216810447
yo:FUNCTION_TABLE_vd
Ao:FUNCTION_TABLE_vi
$P:__ZN13RuntimeStaticI37UnityShaderCompilerExtPluginConfigureLb0EE16StaticInitializeEPv
AQh:_StringBuilder_AppendFormat_m2403596038
vSf:_DSASignatureDeformatter_SetHashAlgorithm_m3186995552
Y3h:_ReadOnlyCollection_1_System_Collections_Generic_ICollectionU3CTU3E_Clear_m2772202961_gshared
Pv:__ZNK8Animator17HasBoundPlayablesEv
yWc:__ZN17Physics2DSettings8TransferI24GenerateTypeTreeTransferEEvRT_
_Ud:_ResourceSet_ReadResources_m3663669011
lTh:_SynchronizationContext_SetSynchronizationContext_m1249070039
M$i:_List_1_AddEnumerable_m1267044261_gshared
qpi:__Z99RuntimeInvoker_Void_t1185182177_RuntimeObject_Int32_t2950945753_SByte_t1669577662_SByte_t1669577662PFvvEPK10MethodInfoPvPS4_
vUj:__ZN6il2cpp2vm7Runtime9SetConfigEPKc
Myc:__ZN5Unity9rapidjson12PrettyWriterI16TempBufferWriterNS0_4UTF8IcEES4_13JSONAllocatorE10StartArrayEv
_ba:__ZN9Scripting11UnityEngine16AndroidJNIHelper12CleanupProxyEv
ua:invoke_iiifiii
JEf:_RectTransform_INTERNAL_get_pivot_m2970933031
igi:_UnityAction_1_Invoke_m927447181_gshared
E7j:__ZN6il2cpp2vm9Exception11FromNameMsgEPK11Il2CppImagePKcS6_S6_
ln:FUNCTION_TABLE_fiiifii
S$:__Z14GetTimeManagerv
ksf:_Color32_op_Implicit_m213813866
mEf:_RectOffset_set_top_m713260669
plc:__ZneRK20SpriteTilingPropertyS1_
iwd:__ZN19TransportJavaScript7CleanupEv
gcc:__Z12GUIDToStringRK9UnityGUIDPc
KY:__ZN15FileSystemEntry4LockE12FileLockModeP12FileAccessor
q7:__ZN9Scripting11UnityEngine10Vector3Int12CleanupProxyEv
mHk:_emscripten_glDrawArrays__wrapper
ajj:_Parser__ctor_m3200411199
MZg:_Int32_Equals_m2976157357
bAi:__Z110RuntimeInvoker_Int32_t2950945753_Int32_t2950945753_Int32_t2950945753_Int32U26_t1369213839_Int32U26_t1369213839PFvvEPK10MethodInfoPvPS4_
Ucj:_TlsException__ctor_m3717683709
wjk:__ZN4utf88internal20is_overlong_sequenceIiEEbjT_
aNj:__ZN6il2cpp2vm13MetadataCache8RegisterEPK22Il2CppCodeRegistrationPK26Il2CppMetadataRegistrationPK20Il2CppCodeGenOptions
tr:__Z9SetLocalR15TransformAccessRKN4math7_float4Ey
F9b:__Z41Register_UnityEngine_Cursor_get_lockStatev
h_j:__ZN14dense_hash_mapI10KeyWrapperIPK14Il2CppAssemblyEPK22Il2CppMonoAssemblyNameN6il2cpp5utils11PointerHashIS2_EENS4_14EqualsComparerINSt3__28equal_toIS3_EEEENSD_9allocatorINSD_4pairIKS4_S7_EEEEE13set_empty_keyERSJ_
vva:__ZL20InitializeGUIShadersv
uXg:_Guid_CompareTo_m243656946
Mkc:__Z20DestroyObjectDelayedP6Objectf
YN:__ZN20DynamicHeapAllocatorI17LowLevelAllocatorED0Ev
Zod:__ZL56__ManagedRegistrationHelperFunction_AnalyticsSessionInfoPv
PUc:__ZN10ClipperLib11ClipperBase5ResetEv
Qlc:__ZN11TimeManagerC2E10MemLabelId18ObjectCreationMode
zLb:__ZN9DepthPassD2Ev
Uy:__ZN11AudioFilter6GetDSPEv
Osg:_RSACryptoServiceProvider_OnKeyGenerated_m863837376
m1f:_Scrollbar_OnDrag_m4289602768
VS:__ZN19RuntimeSceneManager14CanUnloadSceneEP10UnityScene
CLb:__Z22ExtractRenderNodeQueueRK11CullResults15ExtractionFlagsR15RenderNodeQueue
MB:__ZN24AudioScriptBufferManagerC2Ev
tGc:__ZN11UnityEngine9Analytics18SceneLoadTimeEvent12ToJsonStringER9JSONWrite
JLc:__ZN22FindParticleCollisions22ProcessFoundCollisionsERKfRK13dynamic_arrayI15BatchedRaycastsLj0EERS2_I20BatchedRaycastResultLj0EERS2_I21BatchedColliderResultLj0EE
p3c:__ZNSt3__26vectorIh13stl_allocatorIhL18MemLabelIdentifier1ELi16EEE8__appendEj
kbf:_InternalEnumerator_1_System_Collections_IEnumerator_get_Current_m3854084659_AdjustorThunk
fzc:__ZN8JSONRead32GetValueForKeyWithNameConversionEPKN5Unity9rapidjson12GenericValueINS1_4UTF8IcEE13JSONAllocatorEEPKc
x1e:_U3CGetEnumeratorU3Ec__Iterator0_System_Collections_IEnumerator_get_Current_m283764921_gshared
mTg:_CultureInfo_get_IcuName_m2258611679
Nzc:__Z18Transfer_BlittableI9JSONWriteLb0EfEvRK29SerializationCommandArgumentsR31RuntimeSerializationCommandInfo
qua:__Z21GetAsyncUploadManagerv
Mj:_emscripten_glDetachShader
DBi:__Z129RuntimeInvoker_Int32_t2950945753_Vector3U26_t3464235976_Vector3U26_t3464235976_Single_t1397266774_Int32_t2950945753_RuntimeObjectPFvvEPK10MethodInfoPvPS4_
AKa:__ZN17GenericDynamicVBO20ReleaseChunkInternalERK21DynamicVBOChunkHandlejj
fhd:__ZL27CleanupModule_TextRenderingv
Kuk:_fmodl
gzh:_SymmetricTransform_OFB_m3842617151
Njb:__Z18Transfer_BlittableI18StreamedBinaryReadILb1EELb1E4AABBEvRK29SerializationCommandArgumentsR31RuntimeSerializationCommandInfo
Stb:__ZN19RuntimeSceneManager11CreateSceneEv
Prf:_Color__ctor_m286683560
$hj:_PatternCompiler_Emit_m1540115729
ead:_ps_get_standard_strings
YOb:__Z27SetupBakedOcclusionForLightbRK15SharedLightDataR17ShaderPassContext
nCf:_PropertyName_op_Implicit_m1633828199
trk:__ZN6il2cpp2os5Mutex6UnlockEv
XCg:_EncoderFallbackException__ctor_m1051987327
bvh:_BigInteger_ToString_m3278248272
dfh:_Decimal_System_IConvertible_ToBoolean_m1123794670
CGi:__Z98RuntimeInvoker_Int32_t2950945753_RaycastResult_t3360306849_RaycastResult_t3360306849_RuntimeObjectPFvvEPK10MethodInfoPvPS4_
ZZf:_Mask__ctor_m1269055150
ige:__ZL99WaitHandle_t1743403487_CustomAttributesCacheGenerator_WaitHandle_t1743403487____Handle_PropertyInfoP21CustomAttributesCache
cag:_WebRequest_AddPrefix_m3187775913
RIb:__Z18RenderImageFiltersR10RenderLoopb
zkd:__Z43CanvasRenderer_Get_Custom_PropMaterialCountP12Il2CppObject
gPb:__ZNSt3__227__insertion_sort_incompleteIR23CompareReflectionProbesP31RuntimeReflectionProbeBlendInfoEEbT0_S5_T_
qYi:_List_1_Remove_m1457733883_gshared
M7g:_DateTime_IsLetter_m156019844
Xkb:__ZN18StreamedBinaryReadILb1EE21TransferSTLStyleArrayI13dynamic_arrayIdLj0EEEEvRT_17TransferMetaFlags
fRd:_MonoEventInfo_GetEventInfo_m873645389
Hjg:_MD4Managed_Encode_m386285215
WY:__ZN10InputEventD2Ev
Vud:__ZN22UnityWebRequestManagerD2Ev
Qnj:_Event_get_character_m1666742088
Msb:__Z20SetPlayerPauseDirect11PlayerPause
puk:_isalpha
cxd:__GLOBAL__sub_I_artifacts_WebGL_codegenerator_0_cpp_7535
w7g:_Convert_ToChar_m1442101407
bgc:__ZZL31RegisterRectTransformPropertiesR22GenericPropertyBindingEN28Wrapper_RectTransformPivoty113SetFloatValueEPvf
eJc:__ZNK12b2MotorJoint17GetReactionTorqueEf
xeh:_DateTimeOffset_get_Offset_m2040541042_AdjustorThunk
rSj:__ZN6il2cpp2vmL17IsSocketAsyncCallEP14Il2CppDelegate
R4g:_Slot_t3975888750_marshal_pinvoke_back
Ljk:__ZN6il2cpp2vm6String6NewLenEPKcj
zXf:_Selectable_get_image_m1928917691
vrb:__ZN17PersistentManager9AddStreamEv
fl:_time
RGd:_ContentSizeFitter_set_verticalFit_m1831566876
kvg:_TripleDESCryptoServiceProvider_CreateDecryptor_m740960117
RCi:__Z122RuntimeInvoker_Void_t1185182177_Color_t2555686324_Single_t1397266774_SByte_t1669577662_SByte_t1669577662_SByte_t1669577662PFvvEPK10MethodInfoPvPS4_
txf:_Material_EnableKeyword_m329692301
U6c:_cf2_stack_free
gug:_SHA512Managed_HashCore_m2377807474
L_g:_Int64_Parse_m3309897583
ZTg:_CompareInfo_IndexOf_m667936183
aVi:_List_1_System_Collections_IList_Insert_m1011775503_gshared
YEb:__ZN26SinglePassStereoSupportExt18AfterSetViewMatrixEv
wqf:_Bounds__ctor_m1937678907_AdjustorThunk
gGf:_SetupCoroutine_InvokeMember_m2661944898
NIh:_HashSet_1__ctor_m620629637_gshared
swf:_Input_GetAxisRaw_m2316819917
WVj:__ZN15dense_hashtableINSt3__24pairIK10KeyWrapperINS1_IPK9FieldInfoP11Il2CppClassEEEjEES9_17ReflectionMapHashIS8_EN14dense_hash_mapIS9_jSD_NS9_14EqualsComparerINS0_8equal_toIS8_EEEENS0_9allocatorISB_EEE9SelectKeyESI_SK_E4findERSA_
lPg:_SimpleEnumerator_MoveNext_m3113120129
eik:__ZN6il2cpp6icalls8mscorlib6System11Environment12get_PlatformEv
Rtb:__ZN13LoadOperationC2E10MemLabelId
AUf:_InputField_SendOnValueChanged_m2560301445
sJb:__ZN13RenderTexture19SetAutoGenerateMipsEb
ata:__Z20GetTextureFormatInfo13TextureFormat
K7f:_TypeConverterAttribute_Equals_m1580461255
Rkg:_RSAManaged_ToXmlString_m2369501989
Dfh:_Decimal_System_IConvertible_ToUInt64_m1323635232_AdjustorThunk
f$d:_LogicalCallContext__ctor_m1263247987
Rch:_DateTime_System_IConvertible_ToSingle_m2193708681_AdjustorThunk
Tob:__ZNK35ScriptingManagedObjectProxyRegistry11InitProxiesEv
Vhd:__ZN2UI14CanvasRenderer13AwakeFromLoadE17AwakeFromLoadMode
I1d:__ZL64String_t_CustomAttributesCacheGenerator_String_Split_m3580120853P21CustomAttributesCache
Lpk:__ZN6il2cpp5utils10MemoryPool6MallocEj
jz:__ZN11SoundHandle8InstanceD2Ev
KUd:_ResourceEnumerator_Reset_m3754276504
y0:__ZN31CanvasBatchIntermediateRenderer13StaticDestroyEPv
Jzb:__ZNSt3__26__treeI17DeviceRasterState14MemoryCompLessIS1_ENS_9allocatorIS1_EEE25__emplace_unique_key_argsIS1_JS1_EEENS_4pairINS_15__tree_iteratorIS1_PNS_11__tree_nodeIS1_PvEEiEEbEERKT_DpOT0_
dka:__Z26scripting_method_get_class18ScriptingMethodPtr
_Ek:_emscripten_glBindProgramARB__wrapper
C9b:__Z41Register_UnityEngine_CullingGroup_Disposev
wij:_PatternCompiler_EmitRepeat_m697083858
vFe:__ZL64UnityAnalyticsHandler_t3011359618_CustomAttributesCacheGeneratorP21CustomAttributesCache
GUj:__ZN6il2cpp2vm7Runtime47RaiseExecutionEngineExceptionIfMethodIsNotFoundEPK10MethodInfoPK19Il2CppGenericMethod
Iu:__Z14FindAvatarRootPKN7mecanim8skeleton8SkeletonEPKjR9Transformb
T$a:__ZN25MultiBlocksMemoryFileData5WriteEyyPKv
ZJc:__ZNK13b2PulleyJoint16GetReactionForceEf
mUd:_ResourceReader_Read7BitEncodedInt_m3568166465
Wwh:_BlockProcessor_Core_m2138791525
_Cj:_CanvasGroup_set_alpha_m4032573
nIg:_Array_get_LongLength_m978104875
CBb:__ZL17ProgramUniform2fvPK7ApiGLESjiihPKv
TFk:b83
l3c:__ZN20TextRenderingPrivate8FontImpl21HasCharacterInTextureEjijfPj
fIf:_Transform_SetAsFirstSibling_m253439912
_ch:_DateTime_System_IConvertible_ToUInt16_m4182197229_AdjustorThunk
jgg:_Interval_get_IsDiscontiguous_m3016063288
Dbj:_SslStreamBase_get_CheckCertRevocationStatus_m2739906607
Ivk:_htonl
dzb:__Z20GetBufferManagerGLESv
SFk:b82
fje:__ZL65NonSerializedAttribute_t2945079482_CustomAttributesCacheGeneratorP21CustomAttributesCache
Gnb:__ZN18StreamedBinaryReadILb0EE21TransferSTLStyleArrayI31ArrayOfManagedObjectsTransfererEEvRT_17TransferMetaFlags
U5:__ZL60__ManagedRegistrationHelperFunction_FailedToLoadScriptObjectPv
ZCc:__Z18Transfer_BlittableI8JSONReadLb0EtEvRK29SerializationCommandArgumentsR31RuntimeSerializationCommandInfo
KT:__Z16GenerateTypeTreeRK6ObjectR8TypeTree24TransferInstructionFlags
RUg:_CultureInfo_CreateCulture_m1493441763
cvg:_TripleDES_IsWeakKey_m2147489852
cy:__ZN12AudioManager21FixMasterGroupRoutingEv
bKa:__ZNK19ShaderPropertySheet11HasPropertyERKN9ShaderLab16FastPropertyNameE
AYc:__ZN6b2Body9SetActiveEb
zFi:__Z81RuntimeInvoker_Boolean_t97287965_NavigationU26_t1807167253_Navigation_t3049316579PFvvEPK10MethodInfoPvPS4_
dHk:_emscripten_glUniform1fv__wrapper
JXa:__ZN2UI13RectTransform19SetAnchoredPositionERK8Vector2f
bMd:_GridLayoutGroup_SetLayoutHorizontal_m2838109254
hId:_Dropdown_RefreshShownValue_m2806045241
O9a:__Z18Transfer_BlittableI14SafeBinaryReadLb1E4AABBEvRK29SerializationCommandArgumentsR31RuntimeSerializationCommandInfo
Qek:__ZN6il2cpp6icalls8mscorlib6System4Enum12get_hashcodeEP12Il2CppObject
Lok:_GC_set_no_dls
kGd:_ColorBlock_set_normalColor_m254595671_AdjustorThunk
ltk:__ZN6il2cpp8metadata26Il2CppGenericMethodCompare6EqualsEPK19Il2CppGenericMethodS4_
daf:_InternalEnumerator_1_get_Current_m1007906068_gshared
Ica:__ZN9Scripting5Unity11Collections34DeallocateOnJobCompletionAttribute12CleanupProxyEv
vnd:__ZN11UnityEngine9Analytics15AnalyticsConfig12EventsConfig8TransferI8JSONReadEEvRT_
nPg:_SimpleEnumerator_Reset_m1520014659
VD:__ZN9AudioClip7WWWOpenEPKciPjPPvS4_
F9a:__Z18Transfer_BlittableI14SafeBinaryReadLb0E8Vector2fEvRK29SerializationCommandArgumentsR31RuntimeSerializationCommandInfo
zog:_Context_set_ProtocolNegotiated_m2904861662
uak:__ZN15dense_hashtableINSt3__24pairIK10KeyWrapperINS1_IPKcS4_EEEiEES6_24NamespaceAndNamePairHashN14dense_hash_mapIS6_iS9_NS6_14EqualsComparerI26NamespaceAndNamePairEqualsEENS0_9allocatorIS8_EEE9SelectKeyESD_SF_E12resize_deltaEjj
xAj:__ZL25UnresolvedVirtualCall_222P12Il2CppObjectfPK10MethodInfo
ZKf:_RemotingServices_GetRemoteObject_m2117098022
pDj:_CanvasRenderer_SetTexture_m1600559835
w$h:_Collection_1_System_Collections_IList_IndexOf_m4256072926_gshared
Aec:__Z53Register_UnityEngine_Input_INTERNAL_get_mousePositionv
Xyb:__ZN7ApiGLES12DrawElementsE16GfxPrimitiveTypePKvjjjj
xyh:_EncryptedPrivateKeyInfo_get_Salt_m3453455261
R7g:_DateTime__ParseNumber_m1240316250
wFc:__ZN8JSONRead21TransferSTLStyleArrayI13dynamic_arrayIfLj0EEEEvRT_17TransferMetaFlags
Cyg:_Single_System_IConvertible_ToSingle_m1939829239_AdjustorThunk
yN:__GLOBAL__sub_I_Runtime_Utilities_6_cpp
t6e:_InternalEnumerator_1_get_Current_m3839250771_gshared
tUg:_CultureInfo_get_TextInfo_m2342840448
jd:_SDL_GetTicks
Mmd:__ZN2UI14CanvasRenderer11SyncCullingENS0_8SyncFlagE
SXj:__ZN15dense_hashtableINSt3__24pairIK10KeyWrapperINS1_IPK11Il2CppImageP11Il2CppClassEEEjEES9_17ReflectionMapHashIS8_EN14dense_hash_mapIS9_jSD_NS9_14EqualsComparerINS0_8equal_toIS8_EEEENS0_9allocatorISB_EEE9SelectKeyESI_SK_E6insertERKSB_
Gu:__Z16AppendPathToHashRKN7mecanim5crc32EPKc
bTb:__Z21CreateShadowCullerJobP30CreateUmbraShadowCullerJobData
F7h:_ReadOnlyCollection_1_System_Collections_Generic_ICollectionU3CTU3E_Remove_m4072504734_gshared
uBb:__ZL18ProgramUniform2uivPK7ApiGLESjiihPKv
VEd:_U3COnFinishSubmitU3Ec__Iterator0_MoveNext_m2729496168
FGk:_glUniform4iv__wrapper
LPb:__Z33GenerateShadowCasterPartsSortDataRK16ShadowCasterDatajRK15RenderNodeQueueRKNSt3__26vectorI20ShadowCasterPartData13stl_allocatorIS7_L18MemLabelIdentifier2ELi16EEEERK10Matrix4x4fRjP20ShadowCasterSortData
iHb:__ZZ23InitPlayerLoopCallbacksvEN51PostLateUpdateTriggerEndOfFrameCallbacksRegistrator7ForwardEv
hVh:_TimeSpan_Compare_m753151303
b3a:__ZN9GfxDevice16DynamicBatchMeshERK10Matrix4x4fPKhjjPKtj26GfxTransformVerticesParams25GfxTransformVerticesFlagsj
Ncb:__Z29Transfer_Blittable_ArrayFieldI14SafeBinaryRead9BoundsIntEvRT_R9ArrayInfoRK23StaticTransferFieldInfo
$5c:_cf2_computeDarkening
bEj:_AnimationLayerMixerPlayable__ctor_m860721801_AdjustorThunk
ySd:_MonoPropertyInfo_get_property_info_m1599555644
URf:_DESTransform_CipherFunct_m3527261721
hmk:_GC_expand_hp_inner
ic:invoke_viiiififfi
Xtc:__Z25Screen_Get_Custom_PropDpiv
Suf:_UnityEventBase_RebuildPersistentCallsIfNeeded_m216788690
ljk:__ZN4utf812find_invalidIPKcEET_S3_S3_
BWf:_InputField_OnEndDrag_m4127187089
eai:_ReadOnlyCollection_1_System_Collections_IList_RemoveAt_m2555465054_gshared
V4d:__ZL72RuntimeCompatibilityAttribute_t1169614002_CustomAttributesCacheGeneratorP21CustomAttributesCache
SSb:__Z59ProcessShadowCasterNodeVisibilityAndCullWithoutUmbra_KernelILN17CullingParameters9LayerCullE2ELi8EEvR9IndexListRK22SceneCullingParametersPK9SceneNodePK4AABBjjPKN4math7_float4E
Ogh:_StackFrame__ctor_m343464319
rK:__ZN11UnityEngine15CloudWebService20WebRequestRestClient7PrepareEv
GRd:_MonoField_CheckGeneric_m453069507
_2c:__ZN20TextRenderingPrivate19NativeTextGenerator23FixLineHorizontalOffsetEiii
aYe:_CustomAttributeNamedArgument_ToString_m1488801416_AdjustorThunk
Hnb:__Z19TransferField_ArrayI18StreamedBinaryReadILb0EE27Converter_UnityEngineObjectEvRK23StaticTransferFieldInfoR31RuntimeSerializationCommandInfoRT0_
TNf:_ObjectReader_ReadArrayOfString_m3550800559
LRe:_MonoCustomAttrs_GetCustomAttributesInternal_m648304078
$9:__ZN9Scripting11UnityEngine12Experimental9Rendering16CameraProperties9InitProxyEv
b1a:__ZN16MemoryFileSystem4OpenER13FileEntryData14FilePermission16FileAutoBehavior
UTg:_CompareInfo_GetSortKey_m1915852346
yed:_ft_var_load_avar
j0:__ZN13RuntimeStaticI13RendererSceneLb0EE13StaticDestroyEPv
Edf:_DefaultComparer_Compare_m1297750557_gshared
Ymg:_CipherSuiteCollection_get_Item_m3790183696
Ufb:__Z18Transfer_BlittableI24GenerateTypeTreeTransferLb1E12PropertyNameEvRK29SerializationCommandArgumentsR31RuntimeSerializationCommandInfo
Dtj:_Toggle_OnEnable_m1421694809
wQa:__ZN14SafeBinaryRead21TransferSTLStyleArrayI10vector_mapIPKN5Unity4TypeE7Hash128NSt3__24lessIS5_EENS7_9allocatorINS7_4pairIS5_S6_EEEEEEEvRT_17TransferMetaFlags
USc:__ZN12JointMotor2D8TransferI14SafeBinaryReadEEvRT_
UD:__ZN9AudioClip18GetQueuedAudioDataEPPvj
Vgd:__ZN20TextRenderingPrivate21TextMeshGeneratorImpl14GarbageCollectEv
tQc:__ZN25b2SynchronizeFixturesTask19CreateDeferredMovesEv
b5b:__ZNK9Texture2D17CheckHasPixelDataEv
lQc:__ZN15b2ContactSolver13StoreImpulsesEv
Ihb:__Z18Transfer_BlittableI19StreamedBinaryWriteILb0EELb0E9BoundsIntEvRK29SerializationCommandArgumentsR31RuntimeSerializationCommandInfo
jLb:__Z18SetShadowsKeywordsR17ShaderPassContext9LightType10ShadowType16ShadowProjectionbb
fLd:_Graphic_GetPixelAdjustedRect_m3729397999
I$j:__ZN14dense_hash_mapI10KeyWrapperINSt3__24pairIPK12PropertyInfoP11Il2CppClassEEEj17ReflectionMapHashIS8_ENS9_14EqualsComparerINS1_8equal_toIS8_EEEENS1_9allocatorINS2_IKS9_jEEEEEC2EjRKSB_RKSF_
vic:__ZN17CollisionMeshDataC2Ev
fpf:_Dictionary_2_ToTValue_m692436965_gshared
$Vd:_Marshal_Copy_m1222846562
D4b:__ZL24FindBelongingStructParamRPKcRNSt3__26vectorIN9ShaderLab20SerializedSubProgram14ConstantBufferENS2_9allocatorIS6_EEEE
a6g:_Stack_Resize_m3124769495
lHb:__ZZ23InitPlayerLoopCallbacksvEN47PostLateUpdateMemoryFrameMaintenanceRegistrator7ForwardEv
Zyb:__ZN7ApiGLES20SetVertexArrayAttribEjj12VertexFormathjPKv
Umk:_GC_push_next_marked
WUa:__ZN18IDCollectorFunctor18GenerateInstanceIDEi17TransferMetaFlags
tTi:_GameObject_GetComponent_TisRuntimeObject_m2049753423_gshared
kQc:__ZN15b2ContactSolver9WarmStartEv
OBj:_TextGenerationSettings_Equals_m3618607189_AdjustorThunk
h7f:_NameObjectCollectionBase_BaseAdd_m3437748750
AWh:_Type_internal_from_handle_m3156085815
MNj:__ZN15dense_hashtableINSt3__24pairIK10KeyWrapperIN6il2cpp5utils13dynamic_arrayIPK10Il2CppTypeLj4EEEEPFvvEEESA_NS3_8metadata19Il2CppSignatureHashEN14dense_hash_mapISA_SD_SG_NSA_14EqualsComparerINSF_22Il2CppSignatureCompareEEENS0_9allocatorISE_EEE9SelectKeyESK_SM_E12maybe_shrinkEv
M5h:_ReadOnlyCollection_1_System_Collections_Generic_ICollectionU3CTU3E_Add_m69722965_gshared
qph:_Array_InternalArray__IndexOf_TisColor32_t2600501292_m3783551884_gshared
aX:__ZNSt3__27__sort4IRNS_6__lessI14ObjectLoadDataS2_EEPS2_EEjT0_S6_S6_S6_T_
b8:__ZN9Scripting11UnityEngine9Rendering18GraphicsDeviceType9InitProxyEv
fnc:__Z22PlayableValidityChecksRK9HPlayableb
Uxe:__ZL57AnimationCurve_t3046754366_CustomAttributesCacheGeneratorP21CustomAttributesCache
TRa:__ZN15ResourceManagerD2Ev
Ibc:__Z41Register_UnityEngine_Camera_GetAllCamerasv
guf:_InvokableCall__ctor_m2158562079
K_c:__ZN14PhysicsQuery2D7RaycastERK8Vector2fS2_fRKN10Collider2D13ContactFilterEPKS3_bP12RaycastHit2Di
Ljj:_Assertion__ctor_m2128950829
btd:__ZN28PerformanceReportingSettings8TransferI14SafeBinaryReadEEvRT_
nWa:__ZN15CacheWriterBase18GetAddressOfMemoryEv
fDc:__Z18Transfer_BlittableI8JSONReadLb1E5RectTIiEEvRK29SerializationCommandArgumentsR31RuntimeSerializationCommandInfo
o6j:__ZN6il2cpp2vm22EmbeddedResourceRecordC2ERKS1_
Bub:__ZL20DrawVBOChunkWithPassP6ShaderPN9ShaderLab4PassER17ShaderPassContextR10DynamicVBORK21DynamicVBOChunkHandle
J6i:_Collection_1__ctor_m825528237_gshared
VAa:__ZN9Texture2D13AwakeFromLoadE17AwakeFromLoadMode
Fta:__ZN4core8hash_mapIPK17RenderSurfaceBaseP13RenderTexture19PointerHashFunctionIS3_ENSt3__28equal_toIS3_EEE6insertERKS3_RKS5_
emh:_SetPropertyUtility_SetStruct_TisColorBlock_t2139031574_m1748367426_gshared
Izf:_PlayerConnection_get_instance_m1750121257
Wck:__ZN6il2cpp2vm3RCW14QueryInterfaceILb0EEEP14Il2CppIUnknownP15Il2CppComObjectRK10Il2CppGuid
jRi:_Dictionary_2_Do_CopyTo_TisRuntimeObject_TisRuntimeObject_m2341992100_gshared
egj:_X509Store_get_Certificates_m56224934
P1:__ZN6prcoreL17RemapGenericFloatI15TexFormatRFloat18TexFormatARGBFloatEEvPKNS_9InnerInfoE
Nri:__Z85RuntimeInvoker_Void_t1185182177_Int64_t3736567304_Int32_t2950945753_Int64_t3736567304PFvvEPK10MethodInfoPvPS4_
Tlg:_CipherSuite__ctor_m2440635082
Tsg:_RSAPKCS1KeyExchangeFormatter_SetRSAKey_m1477802943
Nwg:_EvidenceEnumerator_get_Current_m1264365535
fud:__ZN11UnityEngine15PlatformWrapper20GetPlayerPrefsUInt64ERKN4core12basic_stringIcNS1_20StringStorageDefaultIcEEEEy
_Vd:_Marshal_copy_from_unmanaged_m2834266824
eAk:dynCall_iiiifii
lPb:__ZN20ReflectionProbeCacheC2ER13BatchRendererR15RenderLoopStats
FDf:_Rect_set_xMax_m1720695099_AdjustorThunk
Aui:__Z59RuntimeInvoker_Int32_t2950945753_DateTimeOffset_t3229287507PFvvEPK10MethodInfoPvPS4_
QRc:__ZN35b2InitializeVelocityConstraintsTask7TaskJobEPS_j
oZa:__ZNK12HandlerChain6ExistsERK13FileEntryData
hGa:__ZN15SerializeTraitsI13dynamic_arrayI26EnlightenSystemInformationLj0EEE19ResizeSTLStyleArrayERS2_i
RSg:_Calendar__ctor_m106290643
ooc:__ZNSt3__26vectorIj13stl_allocatorIjL18MemLabelIdentifier1ELi16EEE6assignIPKjEENS_9enable_ifIXaasr21__is_forward_iteratorIT_EE5valuesr16is_constructibleIjNS_15iterator_traitsIS9_E9referenceEEE5valueEvE4typeES9_S9_
QOa:__ZN12InputManager23VirtualRedirectTransferER24GenerateTypeTreeTransfer
TXa:__ZN9Transform23VirtualRedirectTransferER24GenerateTypeTreeTransfer
uxc:__ZN12GUIClipState10BeginOnGUIER10InputEvent
dwi:__Z87RuntimeInvoker_RuntimeObject_Byte_t1134296376_RuntimeObject_RuntimeObject_RuntimeObjectPFvvEPK10MethodInfoPvPS4_
Cng:_HandshakeMessage_Process_m810828609
Vcd:_UNITY_tt_size_ready_bytecode
Ujg:_MD5SHA1_CreateSignature_m3583449066
L1c:__ZN13TextRendering4FontD2Ev
P4c:_UNITY_FT_Stream_Open
cei:__ZN28GenericInterfaceFuncInvoker1Ib20UIVertex_t4057497605E6InvokeEPK10MethodInfoP12Il2CppObjectS0_
Xgb:__Z29Transfer_Blittable_ArrayFieldI24GenerateTypeTreeTransfer9BoundsIntEvRT_R9ArrayInfoRK23StaticTransferFieldInfo
NLd:_GraphicRegistry__cctor_m1805310505
Bqf:_Bounds_Equals_m3920299735
xpa:__ZN8keywords18KeywordSetToStringERK16ShaderKeywordSetRN4core12basic_stringIcNS3_20StringStorageDefaultIcEEEE
m$e:_GenericTypeParameterBuilder_GetGenericArguments_m2988765390
ywb:__ZN13GfxDeviceGLES26UpdateViewProjectionMatrixEv
Xqi:__Z77RuntimeInvoker_Void_t1185182177_Int64_t3736567304_ResourceInfoU26_t1611441338PFvvEPK10MethodInfoPvPS4_
ANh:_List_1_CheckCollection_m1717250693_gshared
xHi:__Z53RuntimeInvoker_Int32_t2950945753_Keyframe_t4206410242PFvvEPK10MethodInfoPvPS4_
Tx:__ZN4FMOD3DSP12setParameterEif
Xrb:__ZN13MemoryManager16StaticInitializeEv
vUg:_CultureInfo_Equals_m1360976324
pf:___cxa_free_exception
mue:__ZL69PersistentCall_t3407714124_CustomAttributesCacheGenerator_m_CallStateP21CustomAttributesCache
$z:__ZN4FMOD22FakeModChannelCallbackEPv
jaa:__ZN9Scripting11UnityEngine12Experimental10PlayerLoop14PostLateUpdate9InitProxyEv
vf:_emscripten_glValidateProgram
rna:__ZN4Mesh10CreateMeshEv
TC:__ZN4FMOD7SystemI11createSoundEPKcjP22FMOD_CREATESOUNDEXINFOPPNS_5SoundE
HSh:_NativeEventCalls_ResetEvent_internal_m885886540
Adh:_DateTime_CompareTo_m3889078633
C6c:_cf2_stack_clear
TTe:_NumberFormatter_set_CurrentCulture_m1358228087
OUc:__ZN10ClipperLib11ClipperBase5ClearEv
jVb:__ZN7Texture13SetAnisoLevelEi
EI:__ZNSt3__26__treeINS_12__value_typeIN4core12basic_stringIcNS2_20StringStorageDefaultIcEEEEjEENS_19__map_value_compareIS6_S7_NS_4lessIS6_EELb1EEE13stl_allocatorIS7_L18MemLabelIdentifier88ELi16EEE7destroyEPNS_11__tree_nodeIS7_PvEE
M6a:__ZN19EndOfFrameCallbacks7EnqueueEP18EndOfFrameCallbackb
Mwf:_Input_set_compositionCursorPos_m1909373301
IGa:__ZN15SerializeTraitsI13dynamic_arrayI31EnlightenSystemAtlasInformationLj0EEE8TransferI19StreamedBinaryWriteILb0EEEEvRS2_RT_
hGc:__ZN27PerformanceReportingManager23VirtualRedirectTransferER24GenerateTypeTreeTransfer
w4c:_raccess_guess_vfat
Msi:__Z78RuntimeInvoker_IntPtr_t_SByte_t1669577662_RuntimeObject_BooleanU26_t4125257963PFvvEPK10MethodInfoPvPS4_
Fjd:__Z44Canvas_CUSTOM_GetETC1SupportedCanvasMaterialv
Rsa:__ZN11HaloManager10UpdateHaloEiR9Transform11ColorRGBA32fjP6Object
cgh:_Decimal_decimalSetExponent_m3707787243
zQ:__ZN33InstancedMeshIntermediateRenderer13StaticDestroyEPv
psd:__ZN28UnityConnectScriptingClasses35RemoteSettingsBeforeFetchFromServerEP21ScriptingExceptionPtr
u9j:__ZN14dense_hash_mapI10KeyWrapperIP14Il2CppIUnknownEjN6il2cpp5utils11PointerHashIS1_EENS3_14EqualsComparerINSt3__28equal_toIS2_EEEENS9_9allocatorINS9_4pairIKS3_jEEEEE13set_empty_keyERSF_
N6a:__ZN15dense_hashtableINSt3__24pairIK9TextureIDiEES2_14GfxGenericHashIS2_EN14GfxDoubleCacheIS2_iS6_NS0_8equal_toIS2_EEN31GfxDoubleCacheConcurrencyPolicy11LocklessGetE42GfxDoubleCacheDefaultEmptyDeletedGeneratorIS2_EE9SelectKeyES9_13stl_allocatorIS4_L18MemLabelIdentifier24ELi16EEE12resize_deltaEjj
gla:__Z21DestroyShadowMapCacheP14ShadowMapCache
HSi:_Array_InternalArray__get_Item_TisLabelFixup_t858502054_m3276643490_gshared
lWb:__Z20RequiredComponentsOf17ScriptingClassPtr
q8j:__ZN6il2cpp2vm13LivenessState5ResetEv
nzc:__ZN9JSONWrite8TransferI11KeyframeTplIfEEEvRT_PKc17TransferMetaFlags
UUb:__ZN22RenderingCommandBuffer23CleanupTemporaryRTArrayER13dynamic_arrayINSt3__24pairIN9ShaderLab16FastPropertyNameEP13RenderTextureEELj0EE
y5g:_SortedList_GetImpl_m3689246167
c6a:__ZN24BuiltinShaderParamValuesC2Ev
qej:_PKCS12_Decode_m163534693
Dzc:__ZL41CreateJSONTransferFunctionScriptingTraitsv
e$b:__ZN6Shader23VirtualRedirectTransferER14SafeBinaryRead
dWf:_InputField_SendOnSubmit_m3463846103
ZJf:_WaitForSecondsRealtime_get_keepWaiting_m846832224
jqb:__Z23GetLateBehaviourManagerv
Kpi:__Z33RuntimeInvoker_Single_t1397266774PFvvEPK10MethodInfoPvPS4_
Tbb:__ZN14SafeBinaryRead21TransferSTLStyleArrayINSt3__26vectorI8Gradient13stl_allocatorIS3_L18MemLabelIdentifier1ELi16EEEEEEvRT_17TransferMetaFlags
yV:__ZN10MemoryPool10DeallocateEPv
Rzi:__Z80RuntimeInvoker_Void_t1185182177_ScriptableRenderContext_t274343796_RuntimeObjectPFvvEPK10MethodInfoPvPS4_
z6a:__ZN14GfxDeviceStats10ResetFrameEv
oca:__ZN9Scripting5Unity11Collections8LowLevel6Unsafe43NativeSetClassTypeToNullOnScheduleAttribute12CleanupProxyEv
Kzk:dynCall_vif
mTa:__ZN18LoadSceneOperation22CompleteLoadFirstSceneEv
Jah:_Convert_ToSByte_m4075629912
Nzk:dynCall_vii
Vxh:_KeyPairPersistence_FromXml_m746585742
kCg:_Decoder__ctor_m4046021500
vnb:__Z18Transfer_BlittableI18StreamedBinaryReadILb0EELb0EdEvRK29SerializationCommandArgumentsR31RuntimeSerializationCommandInfo
WEd:_ColorBlock_get_fadeDuration_m121071467
kTj:__ZN6il2cpp6icalls8mscorlib6System8MonoType18GetFields_internalEP20Il2CppReflectionTypeiS5_
Lca:__ZN5Unity9Component16CheckConsistencyEv
pSd:_MonoMethod_get_ContainsGenericParameters_m3860345224
Sma:__ZN19ShaderPropertySheet37CreateTextureAuxPropertyUninitializedEN9ShaderLab16FastPropertyNameES1_PKc
kib:__ZL26Transfer_SimpleNativeClassI19StreamedBinaryWriteILb0EE10RectOffsetLb1EEvRK29SerializationCommandArgumentsR31RuntimeSerializationCommandInfo
yJk:b128
CWj:__ZN15dense_hashtableINSt3__24pairIK10KeyWrapperIPK10Il2CppTypeEjEES6_N6il2cpp8metadata14Il2CppTypeHashEN14dense_hash_mapIS6_jSB_NS6_14EqualsComparerINSA_26Il2CppTypeEqualityComparerEEENS0_9allocatorIS8_EEE9SelectKeyESF_SH_E3endEv
c$c:__Z36Joint2D_Set_Custom_PropConnectedBodyP12Il2CppObjectS0_
Txb:__ZN13GfxDeviceGLES17SetGpuProgramNameEP10GpuProgramPKc
EK:__ZNK11UnityEngine15CloudWebService25WebRequestDownloadHandler11GetProgressEv
Leg:_CategoryUtils_CategoryFromName_m1352081402
rqh:_Array_InternalArray__ICollection_Add_TisMonoResource_t4103430009_m2699164149_gshared
iQj:__ZN6il2cpp2vm13MetadataCache28GetMethodDefinitionFromIndexEi
fik:__ZN6il2cpp2os20FileErrnoToErrorCodeEi
Iwa:__ZN14SafeBinaryRead19TransferSTLStyleMapINSt3__23mapI39DeprecatedFastPropertyNameSerialization10ColorRGBAfNS1_4lessIS3_EENS1_9allocatorINS1_4pairIKS3_S4_EEEEEEEEvRT_17TransferMetaFlags
K8g:_Decimal_ThrowAtPos_m1170269346
eh:_atexit
T3f:_Selectable_set_image_m3625164794
xaf:_InternalEnumerator_1_get_Current_m1232221964_gshared
o9h:_ReadOnlyCollection_1_System_Collections_Generic_IListU3CTU3E_Insert_m1818924748_gshared
KZj:__ZN6il2cpp2vmL31GetObjectForMissingDefaultValueEj
MCg:_DecoderReplacementFallbackBuffer_GetNextChar_m2858228391
pEd:_AspectRatioFitter__ctor_m2468506840
myb:__ZN13GfxDeviceGLES22UpdateComputeResourcesERK22ComputeShaderResources
nqd:__ZN11UnityEngine15PlatformWrapper30GetVRPlayAreaBoundaryDimensionEv
OIc:__ZN15AnchoredJoint2D16ConfigureAnchorsER6b2Vec2S1_
pfj:_X509Certificate_get_Hash_m410033711
F1b:__ZN9ShaderLab14SerializedPassC2ERKS0_
Mzc:__Z35Transfer_Blittable_FixedBufferFieldI9JSONWritehEvRK29SerializationCommandArgumentsR31RuntimeSerializationCommandInfo
l:STACKTOP
C8c:_cff_get_name_index
bGa:__ZN21EnlightenSceneMapping16BuildRemapTablesEv
a4:__ZN6prcoreL12RemapGenericI13TexFormatRG8817TexFormatARGB8888EEvPKNS_9InnerInfoE
BX:__ZN17TransformInternal27UpdateDeepChildCountUpwardsER18TransformHierarchyii
iyg:_Single_System_IConvertible_ToBoolean_m1716619219_AdjustorThunk
tnc:__ZN16StreamedResource8TransferI14SafeBinaryReadEEvRT_
vpe:__ZL52Matrix4x4_t1817901843_CustomAttributesCacheGeneratorP21CustomAttributesCache
YHd:_Image_set_type_m2038193736
k_c:__ZN22WorldContactListener2D10EndContactEP9b2Contact
GUb:__ZNK25CameraStackRenderingState25CalculateCameraTargetTypeEv
ONd:_PropertyBuilder_GetSetMethod_m128670376
y:tempBigIntR
x:tempBigIntS
w:tempBigIntP
xn:FUNCTION_TABLE_viffi
eX:__ZN6Object18RegisterInstanceIDEPS_
rZc:__ZN13ProduceHelperI17CapsuleCollider2DLb0EE7ProduceE10MemLabelId18ObjectCreationMode
zfb:__Z18Transfer_BlittableI24GenerateTypeTreeTransferLb1EsEvRK29SerializationCommandArgumentsR31RuntimeSerializationCommandInfo
lek:__ZN15dense_hashtableINSt3__24pairIK10KeyWrapperIP12Il2CppObjectEN6il2cpp2gc9CachedCCWEEES5_NS7_5utils11PointerHashIS3_EEN14dense_hash_mapIS5_S9_SD_NS5_14EqualsComparerINS0_8equal_toIS4_EEEENS0_9allocatorISA_EEE9SelectKeyESI_SK_E11set_deletedER30dense_hashtable_const_iteratorISA_S5_SD_SM_SI_SK_E
D2a:__ZNK9GfxDevice18GetWorldViewMatrixEv
YDi:__Z70RuntimeInvoker_Single_t1397266774_Single_t1397266774_Int32_t2950945753PFvvEPK10MethodInfoPvPS4_
Cvg:_X509Certificate_GetPublicKey_m4184729161
tkc:__ZZL31RegisterOtherRendererPropertiesR22GenericPropertyBindingEN28Wrapper_RendererSortingOrder13SetFloatValueEPvf
nbh:_Convert_ToUInt16_m3902921832
xWe:_Assembly_GetTypes_m1724781913
f8d:__ZL54TypeBuilder_t1073948154_CustomAttributesCacheGeneratorP21CustomAttributesCache
zRh:_UTF7Encoding_GetByteCount_m3616172568
bGg:_SmallXmlParser_ReadComment_m1578426707
iOh:_List_1_AddEnumerable_m376418521_gshared
iwi:__Z79RuntimeInvoker_Void_t1185182177_Byte_t1134296376_Byte_t1134296376_RuntimeObjectPFvvEPK10MethodInfoPvPS4_
pNj:__ZNSt3__218__insertion_sort_3IRN6il2cpp5utils11collections13ArrayValueMapIPK10Il2CppType17Il2CppInteropData26InteropDataToTypeConverterNS1_8metadata14Il2CppTypeLessENSA_26Il2CppTypeEqualityComparerEE12SortComparerEPS8_EEvT0_SH_T_
kYc:__ZN11Rigidbody2D23VirtualRedirectTransferER14SafeBinaryRead
H2a:__ZNK9GfxDevice25GetDeviceProjectionMatrixEv
L1b:__ZNSt3__26__treeINS_12__value_typeI11ShaderTagIDS2_EENS_19__map_value_compareIS2_S3_NS_4lessIS2_EELb1EEENS_9allocatorIS3_EEE14__assign_multiINS_21__tree_const_iteratorIS3_PNS_11__tree_nodeIS3_PvEEiEEEEvT_SI_
na:invoke_iidiii
Ffb:__Z18Transfer_BlittableI24GenerateTypeTreeTransferLb1EtEvRK29SerializationCommandArgumentsR31RuntimeSerializationCommandInfo
UE:__ZN12AudioManager33GetCurrentAmbisonicDefinitionNameE31UnityAudioEffectDefinitionFlags
Jpc:__ZN11UTF16StringC2EPKc10MemLabelId
gpc:__ZN10systeminfo24GetRuntimePlatformStringEv
_0g:_MonoIO_DeleteFile_m3839141322
Dea:__ZN10SpookyHash5ShortEPKvjPyS2_
Mhd:__ZN9Scripting11UnityEngine6Canvas12CleanupProxyEv
RQ:__ZN13RuntimeStaticI13ModuleManagerLb0EE13StaticDestroyEPv
Igk:__ZN6il2cpp6icalls8mscorlib6System6String22RedirectToCreateStringEv
U7d:__ZL99ILGenerator_t1388622344_CustomAttributesCacheGenerator_ILGenerator_Mono_GetCurrentOffset_m993338688P21CustomAttributesCache
mZf:_LayoutRebuilder_ReapplyDrivenProperties_m2581469389
Wpc:__ZN9Scripting20CreateUnityExceptionEPKcz
cRc:__ZN35b2SolvePositionJointConstraintsTask7TaskJobEPS_
bna:__ZN9ShaderLab6TexEnvC2ERKNS_25SerializedTexturePropertyE
aXf:_InputField_Append_m687033660
llc:__Z28IntersectLineSegmentWithLineRK8Vector2fS1_S1_S1_RS_
Nha:__ZN9Transform32SetLocalScaleWithoutNotificationERKN4math7_float3Ey
Y2c:__ZN20TextRenderingPrivate19NativeTextGeneratorD2Ev
bSj:__ZN6il2cpp2vm19SocketPollingThread14DequeueRequestEv
qgk:__ZL10RevealLinkPv
sch:_DateTime__ctor_m12900168_AdjustorThunk
RTb:__ZN27IntermediateRendererManager24AddIntermediateRenderersEP21IntermediateRenderersi
log:_ClientSessionCache_FromContext_m343076119
Ki:___cxa_end_catch
Yug:_ToBase64Transform_TransformBlock_m2497349397
y7f:_NameValueCollection_Add_m2418530856
B0d:_ReturnMessage_get_MethodSignature_m399735125
Ojd:__Z43Register_UnityEngine_Canvas_set_scaleFactorv
Jth:_SortKeyBuffer_AppendLevel5_m3963841125
Tlj:_PositionAssertion_Compile_m2500980346
SOg:_ArrayListWrapper_ToArray_m3192696690
x4c:_raccess_guess_linux_cap
mF:__Z36AudioSource_Get_Custom_PropIsPlayingP12Il2CppObject
Duc:__ZL48__ManagedRegistrationHelperFunction_StylePainterPv
dKg:_Attribute_GetCustomAttribute_m4034845276
CR:__Z33InitializeBuiltinShaderParamNamesv
$Wh:_Type_GetConstructor_m2219014380
TFd:_CanvasUpdateRegistry_SortLayoutList_m471948466
lda:__ZNK16TypeTreeIterator4TypeEv
UFb:__ZN10FileSystem25MountDataFolderFileSystemERKN4core12basic_stringIcNS0_20StringStorageDefaultIcEEEES6_
fEg:_ArgumentOutOfRangeException__ctor_m282481429
qoj:_GUILayoutUtility_Internal_MoveWindow_m3463958180
tj:_glGetUniformLocation
hxb:__ZN13GfxDeviceGLES32CreateColorRenderSurfacePlatformEP17RenderSurfaceBase19RenderTextureFormat
VIb:__ZN22RenderingCommandBuffer20ExecuteCommandBufferER17ShaderPassContextR15RenderNodeQueuejP13dynamic_arrayINSt3__24pairIN9ShaderLab16FastPropertyNameEP13RenderTextureEELj0EE16ComputeQueueTypeSA_
LD:__ZN12AudioManager24CreateFMODSoundFromMovieEP9AudioClip
qmg:_CipherSuite_createEncryptionCipher_m2533565116
y$c:__ZN19ControllerHitReport10onShapeHitERKN5physx20PxControllerShapeHitE
hPj:__ZN6il2cpp2vm13MetadataCache24GetGenericInstanceMethodEPK10MethodInfoPK20Il2CppGenericContext
rmk:_GC_hblk_fl_from_blocks
wRd:_MonoField_GetParentType_m2478933781
uW:__Z24ConvertSeparatorsToUnityPc
aZj:__ZN6il2cpp2gc19AppendOnlyGCHashMapINSt3__24pairIPK9EventInfoP11Il2CppClassEEP21Il2CppReflectionEvent17ReflectionMapHashIS9_ENS2_8equal_toIS9_EEE3AddERKS9_SB_
J4i:_Collection_1_System_Collections_ICollection_CopyTo_m46221116_gshared
B3j:__ZN6il2cpp2vm6Thread20FreeThreadStaticDataEP12Il2CppThread
Coh:_Array_InternalArray__IndexOf_TisClientCertificateType_t1004704908_m3457772631_gshared
Jji:__Z28RuntimeInvoker_RuntimeObjectPFvvEPK10MethodInfoPvPS4_
S6c:_cf2_glyphpath_finalize
iee:__ZL56SecurityAction_t569814076_CustomAttributesCacheGeneratorP21CustomAttributesCache
fKb:__Z20LookRotationToMatrixRK8Vector3fS1_P10Matrix3x3f
uOg:_ArrayListWrapper_set_Capacity_m2373297383
vWf:_Text_get_cachedTextGenerator_m2506989875
ZJh:_Enumerator_System_Collections_IEnumerator_Reset_m502339360_AdjustorThunk
Q5d:__ZL58DictionaryEntry_t3123975638_CustomAttributesCacheGeneratorP21CustomAttributesCache
dCj:_TextGenerator_GetVerticesInternal_m3222977969
k_i:_List_1_RemoveAt_m4279084788_gshared
C4c:_UNITY_FT_Stream_Free
G5j:__ZN15dense_hashtableINSt3__24pairIK10KeyWrapperINS1_IP11Il2CppClassjEEES4_EES6_N6il2cpp8metadata14ArrayClassHashEN14dense_hash_mapIS6_S4_SB_NS6_14EqualsComparerINSA_17ArrayClassCompareEEENS0_9allocatorIS8_EEE9SelectKeyESF_SH_E12maybe_shrinkEv
Eyc:__ZNK5Unity9rapidjson12GenericValueINS0_4UTF8IcEE13JSONAllocatorE6AcceptINS0_12PrettyWriterI16TempBufferWriterS3_S3_S4_EEEEbRT_
pRf:_CryptoConfig_EncodeLongNumber_m4127306320
TCi:__Z87RuntimeInvoker_Void_t1185182177_Single_t1397266774_Single_t1397266774_SByte_t1669577662PFvvEPK10MethodInfoPvPS4_
BFe:__ZL63AnalyticsSessionInfo_t2322308579_CustomAttributesCacheGeneratorP21CustomAttributesCache
Zwd:__ZL47__ManagedRegistrationHelperFunction_VideoPlayerPv
MI:__ZN11UnityEngine15CloudWebService14DataDispatcher25OnDataBlockConsumedStaticEPv
jZi:_List_1_CheckIndex_m3044940639_gshared
bKf:_GenericStack__ctor_m933681517
Slb:__Z29Transfer_Blittable_ArrayFieldI18StreamedBinaryReadILb1EE11QuaternionfEvRT_R9ArrayInfoRK23StaticTransferFieldInfo
cRe:_Math_Max_m482125436
l5g:_SortedList_InitTable_m875730861
yWd:_ActivatedServiceTypeEntry_ToString_m1591455874
Vwg:_SecurityElement_ToXml_m3664345083
NMi:_Array_InternalArray__Insert_TisParameterModifier_t1461694466_m3664994573_gshared
lDh:_DefaultComparer_Equals_m1870794912_gshared
k0b:__Z14resize_trimmedINSt3__26vectorIN9ShaderLab20SerializedSubProgram16SamplerParameterENS0_9allocatorIS4_EEEEEvRT_j
d4f:_Shadow_set_effectColor_m3910676693
Zwk:__ZNSt3__212basic_stringIcNS_11char_traitsIcEENS_9allocatorIcEEE6insertEjPKcj
Fzc:__Z44InitializeTransferFunctionScriptingTraitsForI8JSONReadEvR31TransferFunctionScriptingTraits
Wub:__ZNSt3__27__sort4IRNS_4lessIN22BuiltinResourceManager8ResourceEEEPS3_EEjT0_S7_S7_S7_T_
P6f:_ListDictionary_Add_m3918308031
aek:__ZNK15dense_hashtableINSt3__24pairIK10KeyWrapperIP12Il2CppObjectEN6il2cpp2gc9CachedCCWEEES5_NS7_5utils11PointerHashIS3_EEN14dense_hash_mapIS5_S9_SD_NS5_14EqualsComparerINS0_8equal_toIS4_EEEENS0_9allocatorISA_EEE9SelectKeyESI_SK_E23find_position_with_hashERS6_j
cWf:_Selectable_OnDisable_m3225138518
WSa:__ZN17PersistentManager34ExtractTimeSliceAwakeFromLoadQueueER27TimeSliceAwakeFromLoadQueueNS_9LockFlagsE
Qdd:_UNITY_tt_face_get_location
hrj:_AesManaged_CreateEncryptor_m1611897367
D2g:_DelegatePInvokeWrapper_WriteDelegate_t4270993571
cWb:__ZN10GameObject34AddFirstTransformComponentInternalEP9Transform
E9b:__Z31Cursor_Get_Custom_PropLockStatev
CP:__ZNSt3__26__treeINS_12__value_typeINS_4pairIPcS3_EENS_3setIS3_15compare_tstringIPKcENS_9allocatorIS3_EEEEEENS_19__map_value_compareIS4_SD_20smaller_tstring_pairIS8_ELb1EEENSA_ISD_EEE7destroyEPNS_11__tree_nodeISD_PvEE
YC:__ZN12AudioManager29GetCurrentAmbisonicDefinitionE31UnityAudioEffectDefinitionFlags
_Yc:__Z13RegisterClassI12FixedJoint2DEvPKc
zac:__Z52Register_UnityEngine_GameObject_GetComponentInParentv
_8:__ZN9Scripting11UnityEngine16ScriptableObject12CleanupProxyEv
HQa:__ZN15SerializeTraitsINSt3__24pairIPKN5Unity4TypeE7Hash128EEE8TransferI14SafeBinaryReadEEvRS7_RT_
Olk:_GC_number_stack_black_listed
ggh:_Decimal_ToString_m4018746482_AdjustorThunk
aTb:__Z37GenerateCombinedDynamicVisibleListJobP11CullResults
IVc:__ZN10ClipperLib7Clipper11BuildResultERNSt3__26vectorINS2_INS_8IntPointENS1_9allocatorIS3_EEEENS4_IS6_EEEE
XIa:__ZNK13ScreenManager21GetCursorInsideWindowEv
MXe:_CustomAttributeData_GetCustomAttributes_m1033457578
hWd:_SafeHandle_DangerousAddRef_m614714386
KPb:__Z20IntersectAABBFrustumRK4AABBPK5Planej
X2f:_ScrollRect_OnDrag_m688583138
jhc:__ZN13RenderManager15InitializeClassEv
gvi:__Z74RuntimeInvoker_RuntimeObject_RuntimeObject_Double_t594665363_RuntimeObjectPFvvEPK10MethodInfoPvPS4_
ncb:__ZN15SerializeTraitsI12PropertyNameE8TransferI14SafeBinaryReadEEvRS0_RT_
c3h:_ReadOnlyCollection_1_System_Collections_IList_IndexOf_m3120991897_gshared
X_d:_Header__ctor_m1921907550
Z4f:_Slider_FindSelectableOnUp_m4062600878
$Qe:_Math_Ceiling_m625148210
sgc:__ZZN9Transform15InitializeClassEvEN31FunctorImpl_114kDidAddComponent4CallEPviR11MessageData
NBc:__ZN9JSONWrite8TransferI11ColorRGBA32EEvRT_PKc17TransferMetaFlags
tEc:__Z22TransferField_NonArrayI8JSONRead27Converter_SimpleNativeClassI8GradientEEvRK23StaticTransferFieldInfoR31RuntimeSerializationCommandInfoRT0_
npb:__ZN10MonoScript13AwakeFromLoadE17AwakeFromLoadMode
ggg:_Interval__ctor_m4022869013
YKg:_Boolean_System_IConvertible_ToUInt16_m3465173538
kGb:__ZN10MemoryFile21CreateFileSystemEntryE10MemLabelId14FilePermissionPvjb
UDb:__ZNK18GfxFramebufferGLES15DiscardContentsER12ObjectHandleI17RenderSurface_TagP17RenderSurfaceBaseE
Wig:_ARC4Managed_KeySetup_m2449315676
RBc:__ZN9JSONWrite8TransferI13dynamic_arrayI5RectTIiELj0EEEEvRT_PKc17TransferMetaFlags
cQj:__ZN6il2cpp2vm13MetadataCache27GetEventDefinitionFromIndexEi
O5:__ZL63__ManagedRegistrationHelperFunction_ScriptableCullingParametersPv
Obh:_Convert_ToUInt64_m92315402
TAc:__Z18Transfer_BlittableI9JSONWriteLb1EdEvRK29SerializationCommandArgumentsR31RuntimeSerializationCommandInfo
nEk:_glGetIntegerv__wrapper
OCg:_EncoderExceptionFallback__ctor_m3745979420
H:Math_pow
Xda:__ZN10GameObject28FinalizeAddComponentInternalEPN5Unity9ComponentE
RKe:__ZL57Image_t2670269651_CustomAttributesCacheGenerator_m_SpriteP21CustomAttributesCache
RCa:__ZN9Texture2DD2Ev
yvj:_AudioExtensionManager_GetReadyToPlay_m1557263244
Xah:_Convert_ToSingle_m164367433
ISi:_Array_InternalArray__get_Item_TisILTokenInfo_t2325775114_m3110830457_gshared
W8g:_Convert_ToDecimal_m1284410333
Odh:_DateTime_CheckStyle_m1392838900
RKc:__ZN16PhysicsManager2D43RegisterTransformChangeInterestForRigidbodyEP11Rigidbody2D
dGg:_SmallXmlParser_ReadUntil_m2715581630
X6f:_NameObjectCollectionBase__ctor_m2090733912
Zeg:_Group__cctor_m2230627219
R7:__ZN9Scripting11UnityEngine15SendMouseEvents9InitProxyEv
Rjh:_Array_InternalArray__ICollection_Contains_TisDouble_t594665363_m1696010878_gshared
Ugg:_BigInteger__cctor_m102257529
i_:__ZN27IntermediateRendererManagerD2Ev
aVa:__ZN17PersistentManager27GetLoadErrorMessageFromPathERKN4core12basic_stringIcNS0_20StringStorageDefaultIcEEEE
gej:_NetscapeCertTypeExtension_ToString_m1800688476
jm:_glGenRenderbuffers
S6j:__ZN6il2cpp6icalls8mscorlib6System2IO6MonoIO19GetCurrentDirectoryEPi
oFf:_Renderer_get_sortingOrder_m344607889
AQb:__Z21IntersectSegmentPlaneRK8Vector3fS1_RK5PlanePS_
Tba:__ZN9Scripting11UnityEngine24AssemblyIsEditorAssembly9InitProxyEv
bPe:__ZL50Outline_t2536100125_CustomAttributesCacheGeneratorP21CustomAttributesCache
iLe:__ZL75InputField_t3762917431_CustomAttributesCacheGenerator_m_CharacterValidationP21CustomAttributesCache
Xmj:_Uri_get_IsFile_m2450018824
FY:__ZN14CachingManager7DisposeEv
Naa:__ZN9Scripting11UnityEngine8EnumInfo9InitProxyEv
JC:__ZN12AudioManager31GetCurrentSpatializerDefinitionEv
u6f:_HybridDictionary_Add_m912320053
bzf:_MonoBehaviour_Invoke_m4227543964
OKa:__ZN12MeshRenderer16UpdateCachedMeshEv
rqj:_KeyBuilder_IV_m3340234014
Sbb:__Z19TransferField_ArrayI14SafeBinaryRead27Converter_SimpleNativeClassI8GradientEEvRK23StaticTransferFieldInfoR31RuntimeSerializationCommandInfoRT0_
ACh:_DefaultComparer_Equals_m1163494476_gshared
Maj:_RIPEMD160Managed_GG_m3020389474
Lkh:_Array_InternalArray__ICollection_Remove_TisDictionaryEntry_t3123975638_m3699186409_gshared
KVe:_Object_Equals_m1397037629
Ypf:_AsyncOperation_t1445031843_marshal_pinvoke_back
Ik:_emscripten_glGenVertexArrays
gDf:_Rect_get_center_m138276653
yRc:__ZN43b2SolveVelocityConstraintsContactSolverTask7TaskJobEPS_j
DVb:__ZN6Camera15SetOrthographicEb
Dpb:__ZN13MonoBehaviourD2Ev
t8c:_UNITY_FT_Stream_GetUShort
Dwb:__ZN13GfxDeviceGLES14DisableScissorEv
q3c:__ZNSt3__26vectorIN20TextRenderingPrivate8FontImpl7IntRectE13stl_allocatorIS3_L18MemLabelIdentifier35ELi16EEE21__push_back_slow_pathIRKS3_EEvOT_
Iqf:_Bounds_get_size_m1178783246_AdjustorThunk
hpi:__Z64RuntimeInvoker_Double_t594665363_RuntimeObject_Int32_t2950945753PFvvEPK10MethodInfoPvPS4_
s4e:_InternalEnumerator_1_System_Collections_IEnumerator_get_Current_m2141782011_AdjustorThunk
Sfh:_Decimal_decimalMult_m3812462972
Oqg:_RecordProtocol_BeginSendRecord_m615249746
Ec:_glVertexAttrib4f
MMh:_Enumerator_System_Collections_IEnumerator_get_Current_m209407522_AdjustorThunk
Atf:_Display_get_systemHeight_m730809466
sSc:__ZN12b2BroadPhase13QueryCallbackEi
TOh:_List_1_System_Collections_IList_Insert_m4074493513_gshared
xyf:_Mesh_get_vertices_m3585684815
Dnd:__ZN21UnityAnalyticsManagerD0Ev
Qpd:__ZN9JSONWrite8TransferINSt3__26vectorIN4core12basic_stringIcNS3_20StringStorageDefaultIcEEEENS1_9allocatorIS7_EEEEEEvRT_PKc17TransferMetaFlags
Tmj:_Uri_GetOpaqueWiseSchemeDelimiter_m1909471550
qnk:_GC_set_hdr_marks
Wna:__Z17SetupObjectMatrixRK10Matrix4x4fi
tAh:_Dictionary_2_OnDeserialization_m1254782141_gshared
FP:__ZN13RuntimeStaticINSt3__23mapINS0_4pairIPcS3_EEPFbPvR14SafeBinaryReadE20smaller_tstring_pairIPKcENS0_9allocatorINS2_IKS4_S9_EEEEEELb0EE13StaticDestroyES5_
G1g:_FileStream_FlushBufferIfDirty_m4249802951
cef:_DefaultComparer_Compare_m1916473435_gshared
Hah:_Convert_ToSByte_m2653811524
Z3c:_open_face
ORa:__ZN30RuntimeInitializeOnLoadManager15ClassMethodInfo8TransferI19StreamedBinaryWriteILb0EEEEvRT_
rkc:__ZZL31RegisterOtherRendererPropertiesR22GenericPropertyBindingEN30Wrapper_RendererReceiveShadows13SetFloatValueEPvf
pmd:__ZN2UI13PrepareOutputER9GfxDeviceRNS_7BatchesEjjNS_30AdditionalCanvasShaderChannelsE
bnd:__Z17RegisterModule_UIv
PRe:_MonoCustomAttrs_GetCustomAttributes_m1347331976
Wyf:_Mesh_Clear_m2630385472
mli:__Z46RuntimeInvoker_RuntimeObject_Int16_t2552820387PFvvEPK10MethodInfoPvPS4_
GZd:_SynchronizationAttribute_set_Locked_m2760363037
zYg:_Int16_Equals_m82811458
pkg:_PrivateKeyInfo_Decode_m986145117
iEf:_RectOffset_get_top_m2855347295
dA:__ZN4FMOD5Sound11setUserDataEPv
k4b:__ZNSt3__26vectorIN20GpuProgramParameters12UAVParameterENS_9allocatorIS2_EEE21__push_back_slow_pathIS2_EEvOT_
s$b:__ZN14SafeBinaryRead21TransferSTLStyleArrayINSt3__26vectorIN9ShaderLab19SerializedSubShaderENS1_9allocatorIS4_EEEEEEvRT_17TransferMetaFlags
RAd:_ExecuteEvents_Execute_m533210008
Aoi:__Z137RuntimeInvoker_Void_t1185182177_Int32_t2950945753_RuntimeObject_RuntimeObject_RuntimeObject_RuntimeObject_RuntimeObject_SByte_t1669577662PFvvEPK10MethodInfoPvPS4_
QXg:_Guid_op_Equality_m4289903222
N0a:__ZNK25SingleBlockMemoryFileData4SizeEv
O7g:_DateTime__ParseAmPm_m3478436123
hsd:__ZN11UnityEngine7Connect20RemoteConfigSettings19ConfigChangedStaticEPS1_RKN4core12basic_stringIcNS3_20StringStorageDefaultIcEEEER8JSONReadb
mB:__ZL50UnityAudioEffect_InternalSetFloatParameterCallbackP14FMOD_DSP_STATEif
Jdk:__ZNK15dense_hashtableINSt3__24pairIK10KeyWrapperIP12Il2CppObjectEN6il2cpp2gc9CachedCCWEEES5_NS7_5utils11PointerHashIS3_EEN14dense_hash_mapIS5_S9_SD_NS5_14EqualsComparerINS0_8equal_toIS4_EEEENS0_9allocatorISA_EEE9SelectKeyESI_SK_E3endEv
$ch:_DateTime_System_IConvertible_ToUInt32_m3781235049
yO:__ZN17LowLevelAllocator4FreeEPvj
vMi:__Z77RuntimeInvoker_RuntimeObject_UIVertex_t4057497605_RuntimeObject_RuntimeObjectPFvvEPK10MethodInfoPvPS4_
zli:__Z92RuntimeInvoker_Int32_t2950945753_RuntimeObject_RuntimeObject_SByte_t1669577662_RuntimeObjectPFvvEPK10MethodInfoPvPS4_
v_g:_Int64_System_IConvertible_ToType_m3223988955
PRb:__ZN14qsort_internal5QSortIP16RenderObjectDatai25RenderPrePassObjectSorterEEvT_S4_T0_T1_
Aug:_SymmetricAlgorithm_Dispose_m1120980942
mY:__ZL19StaticCleanupPlayerPv
QRe:_MonoCustomAttrs_RetrieveAttributeUsage_m2717094301
ppf:_AnimationCurve_Init_m425927913
lC:__ZN12AudioManager37RebindAudioSourcesAndSubMixersToMixerEP10AudioMixer
TYf:_LayoutGroup_DelayedSetDirty_m2562435574
Uza:__ZN13StreamingInfo8TransferI14SafeBinaryReadEEvRT_
R$b:__ZN15dense_hashtableINSt3__24pairIKiN4core17string_with_labelILi1EEEEEi18SInt32HashFunctionN14dense_hash_mapIiS5_S7_NS0_8equal_toIiEE13stl_allocatorIS6_L18MemLabelIdentifier1ELi16EEE9SelectKeyESA_SD_E15insert_noresizeERKS6_
RFj:_Physics2D_Raycast_m1377762210
Xek:__ZN6il2cpp2vmL22RaiseOverflowExceptionEv
$p:__Z23CalculateGlobalRotation23TransformAccessReadOnly
bqa:__ZN16GraphicsSettings28SetLightsUseColorTemperatureEb
iwa:__ZNK9ShaderLab7Program11IsSupportedEPK6Shader
QOd:_TypeBuilder_GetMethodImpl_m3583143647
fOe:__ZL54LayoutGroup_t2436138090_CustomAttributesCacheGeneratorP21CustomAttributesCache
iwk:_strcat
woc:__Z18TransformPoints3x4RK10Matrix4x4fPK8Vector3fjPS2_ji
tX:__ZL26DestroyGameObjectRecursiveR10GameObjectR11BatchDelete
Hnk:_GC_allochblk_nth
Nyd:_BaseInput_get_touchSupported_m2634027966
b3f:_ScrollRect_get_vScrollingNeeded_m1717136831
Iqj:_SymmetricTransform_FinalEncrypt_m748885414
vjc:__Z7HaloTexP9Texture2DPhiiii
VAk:dynCall_i
etk:__ZNK6il2cpp8metadata23Il2CppGenericMethodHashclEPK19Il2CppGenericMethod
FG:__ZN17AudioCustomFilter4InitEv
fAk:dynCall_f
M6f:_ListDictionary_GetEnumerator_m3395631195
egb:__Z35Transfer_Blittable_FixedBufferFieldI24GenerateTypeTreeTransferjEvRK29SerializationCommandArgumentsR31RuntimeSerializationCommandInfo
Wxh:_KeyPairPersistence_Save_m3111435398
rQj:__ZNK15dense_hashtableINSt3__24pairIK10KeyWrapperIP9FieldInfoEiEES5_N6il2cpp5utils11PointerHashIS3_EEN14dense_hash_mapIS5_iSB_NS5_14EqualsComparerINS0_8equal_toIS4_EEEENS0_9allocatorIS7_EEE9SelectKeyESG_SI_E13find_positionERS6_
wzk:dynCall_v
n5:__ZL52__ManagedRegistrationHelperFunction_DiagnosticSwitchPv
jlc:__ZN13dynamic_arrayIS_I8Vector2fLj0EELj0EE18resize_initializedEj12ResizePolicy
JCb:__ZN7ApiGLES14TextureSamplerEjjRK24GfxTextureSamplingParams17TextureColorSpace
p5g:_SortedList_System_Collections_IEnumerable_GetEnumerator_m2738760439
U3j:__ZN6il2cpp2vm6Thread8SetStateEP12Il2CppThreadNS0_11ThreadStateE
gja:__ZN6Camera23VirtualRedirectTransferER14SafeBinaryRead
Fpf:_Application_get_isEditor_m857789090
Vrd:__ZN11UnityEngine7Connect13ConnectConfig11ConfigValueD2Ev
kDb:__ZNSt3__26__treeINS_12__value_typeIjP14DataBufferGLESEENS_19__map_value_compareIjS4_NS_4lessIjEELb1EEENS_9allocatorIS4_EEE7destroyEPNS_11__tree_nodeIS4_PvEE
_7:__ZN9Scripting11UnityEngine9Rendering20SphericalHarmonicsL212CleanupProxyEv
xb:invoke_viiiiiiii
aYg:_Int16_System_IConvertible_ToDateTime_m3080274979_AdjustorThunk
V3i:_Collection_1_ConvertItem_m1760499239_gshared
oDb:__ZN18GfxFramebufferGLES24UpdateDefaultFramebufferEP17RenderSurfaceBaseS1_N2gl6HandleILNS2_10ObjectTypeE9EEE
SCe:__ZL66GUIUtility_t1868551600_CustomAttributesCacheGenerator_s_OriginalIDP21CustomAttributesCache
Ts:__ZL67__ManagedRegistrationHelperFunction_SharedBetweenAnimatorsAttributePv
xia:__ZNK6Camera16GetCullingMatrixEv
$aj:_SslHandshakeHash__ctor_m4169387017
TNj:__ZN15dense_hashtableINSt3__24pairIK10KeyWrapperIN6il2cpp5utils13dynamic_arrayIPK10Il2CppTypeLj4EEEEPFvvEEESA_NS3_8metadata19Il2CppSignatureHashEN14dense_hash_mapISA_SD_SG_NSA_14EqualsComparerINSF_22Il2CppSignatureCompareEEENS0_9allocatorISE_EEE9SelectKeyESK_SM_E9copy_fromERKSP_j
CEj:_Animator_ResetTrigger_m2321267720
KFa:__ZN16LightmapSettings5ResetEv
kEa:__ZN12FileAccessor4ReadEyPvPy
aAf:__ZN23InterfaceActionInvoker3I6Guid_tP22ByteU5BU5D_t4116647657iE6InvokeEjP11Il2CppClassP12Il2CppObjectS0_S2_i
pli:__Z67RuntimeInvoker_Void_t1185182177_Int16_t2552820387_Int32_t2950945753PFvvEPK10MethodInfoPvPS4_
Ivc:__Z42Register_UnityEngine_Event_get_commandNamev
THb:__Z12IsFirstFramev
$9i:_Collection_1_IsValidItem_m714924194_gshared
Fyc:__ZN5Unity9rapidjson12PrettyWriterI16TempBufferWriterNS0_4UTF8IcEES4_13JSONAllocatorE12PrettyPrefixENS0_4TypeE
SQh:_UnicodeEncoding_GetString_m332467280
cU:__ZN8TypeTreeC2E10MemLabelId
$W:__ZNK15FileSystemEntry6ExistsEv
NHf:_Transform_INTERNAL_get_rotation_m2413441996
ODd:_TouchInputModule_IsModuleSupported_m384818291
dLc:__ZN16PhysicsManager2D20FindParticleOverlapsER13dynamic_arrayI15BatchedOverlapsLj0EEPP10Collider2Dj
Xod:__GLOBAL__sub_I_artifacts_WebGL_codegenerator_0_cpp_6814
fT:__ZN17PersistentManager18ReadObjectThreadedEiNS_9LockFlagsE
Rdh:_DateTime_ToString_m884486936
Djg:_MD4Managed_HashCore_m3384203071
cE:__ZN13AudioListener23VirtualRedirectTransferER19StreamedBinaryWriteILb0EE
ung:_ClientRecordProtocol_createClientHandshakeMessage_m3325677558
Koe:__ZL103Component_t1923634451_CustomAttributesCacheGenerator_Component_GetComponentsForListInternal_m1419905927P21CustomAttributesCache
vxb:__ZN13GfxDeviceGLES11CopyTextureE9TextureIDS0_
D5g:_SortedList_get_Capacity_m919184864
dCh:_Dictionary_2_ContainsKey_m2278349286_gshared
xDk:_emscripten_glViewport__wrapper
PK:__ZN11UnityEngine15CloudWebService23WebRequestUploadHandler13GetUploadDataERj
msf:_Color32_ToString_m403383053_AdjustorThunk
oAg:_String_IndexOfOrdinalUnchecked_m460601827
ETa:__ZN13dynamic_arrayI28EnlightenRendererInformationLj0EE6insertEPS0_PKS0_S4_
ICj:_Canvas_get_sortingOrder_m1860900812
TXd:_ConfigHandler_ReadChannel_m781299361
mDf:_Rect_get_max_m350137314
RSb:__Z59ProcessShadowCasterNodeVisibilityAndCullWithoutUmbra_KernelILN17CullingParameters9LayerCullE1ELi8EEvR9IndexListRK22SceneCullingParametersPK9SceneNodePK4AABBjjPKN4math7_float4E
Vwi:__Z99RuntimeInvoker_Void_t1185182177_Int32_t2950945753_Int32_t2950945753_SByte_t1669577662_RuntimeObjectPFvvEPK10MethodInfoPvPS4_
Pcd:_tt_size_select
YZd:_InternalRemotingServices_GetCachedSoapAttribute_m1042302982
cJ:__ZN11UnityEngine15CloudWebService17SessionEventQueue15RestoreFromFileER12FileAccessorPvy
RYe:_ConstructorBuilder_GetILGenerator_m1421260830
fPa:__ZN14PlayerSettingsD2Ev
E_f:_RectMask2D_RemoveClippable_m773604960
V0d:__ZL51Attribute_t861562559_CustomAttributesCacheGeneratorP21CustomAttributesCache
Bah:_Convert_ToSByte_m1350241137
kVc:__ZN10ClipperLib15FirstIsBottomPtEPKNS_5OutPtES2_
cNa:__ZN13dynamic_arrayI16BlendShapeVertexLj0EE18resize_initializedEj12ResizePolicy
__:__ZN13PlayableGraph14DestroyOutputsEv
Y2i:_Enumerator_System_Collections_IEnumerator_get_Current_m3895111131_gshared
of:___syscall122
c9g:_Convert_ToDecimal_m2858622624
UVe:_OperatingSystem__ctor_m1545635730
rYi:_List_1_RemoveAll_m2406195485_gshared
MG:__ZN9AudioClip16EnableLegacyModeEv
eZd:_Context_DoCallBack_m749197451
mDj:_CanvasRenderer_set_materialCount_m4286588063
Rvk:_mkdir
p0c:__ZN9Scripting11UnityEngine7Physics12CleanupProxyEv
ouj:_VerticalLayoutGroup_SetLayoutHorizontal_m84550911
v8f:_HttpWebRequest_get_ServicePoint_m3916606901
pqk:__GLOBAL__sub_I_MemoryMappedFile_cpp
gMh:_Enumerator_MoveNext_m29052175_AdjustorThunk
o4f:_Slider_UpdateVisuals_m3662961057
UDg:_PKCS12_ReadSafeBag_m1585166574
Ved:_ps_hints_close
Xkc:__Z16CreateRenderLoopR6Camera
Fqb:__ZN32SerializationCommandQueueBuilder3AddERK20SerializationCommand
IO:_tlsf_create
L7h:_ReadOnlyCollection_1_System_Collections_IEnumerable_GetEnumerator_m2505713430_gshared
cSa:__ZN14SafeBinaryRead21TransferSTLStyleArrayINSt3__26vectorIN15ResourceManager10DependencyE13stl_allocatorIS4_L18MemLabelIdentifier52ELi16EEEEEEvRT_17TransferMetaFlags
DUc:__ZN10ClipperLib7ClipperC1Ei
Opb:__ZN13MonoBehaviour23VirtualRedirectTransferER18StreamedBinaryReadILb0EE
l1b:__ZN9ShaderLab20SerializedSubProgramC2ERKS0_
FJa:__ZN9Texture3D17UploadToGfxDeviceEv
pSi:_Array_InternalArray__get_Item_TisKeyValuePair_2_t71524366_m252172060_gshared
Rxk:__ZNK10__cxxabiv121__vmi_class_type_info27has_unambiguous_public_baseEPNS_19__dynamic_cast_infoEPvi
CTe:_MulticastDelegate_CombineImpl_m2857239134
e$h:_Version_op_Inequality_m1696193441
bWd:_Marshal_ReadByte_m1960935664
Al:_emscripten_glGetActiveUniform
KOg:_ArrayListWrapper_CopyTo_m3756520478
LUd:_ResourceInfo_t2872965302_marshal_pinvoke
Xka:__ZN16RenderTextureMap5QueryEPK17RenderSurfaceBase
$4:__ZL42__ManagedRegistrationHelperFunction_CameraPv
Ekc:__ZN8Material8GetFloatEN9ShaderLab16FastPropertyNameE
Nvc:__Z11GetGUIStatev
og:_glGetActiveUniform
Noh:_Array_InternalArray__IndexOf_TisSlot_t3975888750_m4250446283_gshared
Lrc:__Z57Register_UnityEngine_MonoBehaviour_StartCoroutineManaged2v
f$g:_IntPtr__ctor_m620280096_AdjustorThunk
vg:_emscripten_glGetObjectParameterivARB
hlj:_CharacterClass_AddCharacter_m2370152363
uja:__ZN15SerializeTraitsI10ColorRGBAfE8TransferI14SafeBinaryReadEEvRS0_RT_
h2h:_Collection_1_IsValidItem_m2333176545_gshared
oY:__ZN22BuiltinResourceManager13StaticDestroyEPv
M7:__ZN9Scripting11UnityEngine25SerializePrivateVariables12CleanupProxyEv
LMc:__ZNK14b2CapsuleShape11ComputeMassEP10b2MassDataf
jX:__ZN10GameObject17GetComponentIndexEPN5Unity9ComponentE
PNi:_Array_InternalArray__set_Item_TisILTokenInfo_t2325775114_m309595583_gshared
_A:__ZN29AudioEffectInternalDefinition9CreateDSPEPN4FMOD6SystemEPvPfP23UnityAudioAmbisonicDataPP25UnityAudioSpatializerData
Bed:_UNITY_tt_face_vary_cvt
Pth:_SimpleCollator_ClearBuffer_m2975394169
Dnj:_Event_Internal_GetMousePosition_m1101229675
DXb:__ZN35RegisterRuntimeInitializeAndCleanup22ExecuteInitializationsEv
NLc:__Z14b2TimeOfImpactP11b2TOIOutputPK10b2TOIInput
mvg:_TripleDESCryptoServiceProvider_CreateEncryptor_m450924958
Cmj:_UriParser_GetParser_m544052729
YWf:_Text_get_font_m2857203289
Uw:__ZN23PreloadManagerOperation14SetFinalTimingEffff
i:DYNAMICTOP_PTR
X$e:_MethodBuilder_fixup_m1765890582
kJb:__Z11CopyTextureP7TextureiiS0_ii
KQa:__ZN13BuildSettings8TransferI18StreamedBinaryReadILb0EEEEvRT_
vRe:_MissingFieldException__ctor_m4282575076
Mfh:_Decimal_Equals_m2592017260
oYd:_ConfigHandler_OnEndParsing_m3764034673
XLf:_RemotingConfiguration_RegisterTypes_m2378540395
$tc:__Z38Renderer_Get_Custom_PropSortingLayerIDP12Il2CppObject
KNg:_ArrayList_get_Capacity_m431818936
E8e:_InternalEnumerator_1_System_Collections_IEnumerator_get_Current_m767948013_gshared
W6e:_InternalEnumerator_1_System_Collections_IEnumerator_get_Current_m435848551_gshared
Bpf:_UnityAction_Invoke_m893829196
gY:__ZNK11TypeManager23FindAllRTTIDerivedTypesEPK4RTTIR13dynamic_arrayIS2_Lj0EEb
Ps:__ZL58__ManagedRegistrationHelperFunction_AnimatorTransitionInfoPv
jQa:__ZN14AsyncOperationD0Ev
rAb:__Z29TextureIdMapGLES_QueryOrAlloc9TextureID
zYj:__ZN15dense_hashtableINSt3__24pairIK10KeyWrapperINS1_IPK12PropertyInfoP11Il2CppClassEEEjEES9_17ReflectionMapHashIS8_EN14dense_hash_mapIS9_jSD_NS9_14EqualsComparerINS0_8equal_toIS8_EEEENS0_9allocatorISB_EEE9SelectKeyESI_SK_E12resize_deltaEjj
Trf:_Color_GetHashCode_m1829208463
Ksb:__ZN13ScreenManager18SetAllowCursorLockEb25DisallowCursorLockReasons
EXf:_Text_get_cachedTextGeneratorForLayout_m116487342
eFj:__ZL11decimalLog2P19il2cpp_decimal_repr
jSa:__ZN15ResourceManager10Dependency8TransferI14SafeBinaryReadEEvRT_
j8i:_Collection_1_System_Collections_IList_Remove_m3800279569_gshared
Zlk:_GC_extend_size_map
d$e:_GenericTypeParameterBuilder_GetCustomAttributes_m386082976
s5f:_Text_FontTextureChanged_m495427969
GUe:_NumberFormatter_RoundDecimal_m2957290908
CB:__ZN4FMOD6System9setDriverEi
jUb:__ZNK9Transform11GetRotationEv
zqh:_Array_InternalArray__ICollection_Add_TisSingle_t1397266774_m1873979703_gshared
fgb:__Z18Transfer_BlittableI24GenerateTypeTreeTransferLb0EyEvRK29SerializationCommandArgumentsR31RuntimeSerializationCommandInfo
lwa:__ZN8Material14CreateMaterialER6ShaderN6Object9HideFlagsEb
W:Math_fround
_vk:_fread
Fbd:_tt_cmap12_char_map_binary
Unj:_GUI__cctor_m3051457990
lE:__ZN12AudioManager19RemoveAudioListenerEP13AudioListener
jna:__Z25GetBuiltinResourceManagerv
gdk:__ZN6il2cpp2gc8GCHandle15GetTargetHandleEP12Il2CppObjectii
dZg:_Int32_System_IConvertible_ToByte_m3832391412
Nh:_llvm_trap
IR:__ZNSt3__27__sort5IRNS_6__lessIN12_GLOBAL__N_114ParamNameIndexES3_EEPS3_EEjT0_S7_S7_S7_S7_T_
Hfj:_X509Certificate_VerifySignature_m3988463526
ppg:_TlsClientCertificate_get_ClientCertificate_m1637836254
umk:_get_index
Fs:__ZL54__ManagedRegistrationHelperFunction_PositionConstraintPv
Axh:_KeyBuilder_Key_m876696100
Wbf:_InternalEnumerator_1_System_Collections_IEnumerator_get_Current_m2164048921_gshared
BVj:__ZN15dense_hashtableINSt3__24pairIK10KeyWrapperINS1_IPK14Il2CppAssemblyP11Il2CppClassEEEjEES9_17ReflectionMapHashIS8_EN14dense_hash_mapIS9_jSD_NS9_14EqualsComparerINS0_8equal_toIS8_EEEENS0_9allocatorISB_EEE9SelectKeyESI_SK_EC2ERKSN_j
Yba:__ZN9Scripting11UnityEngine14AnimationCurve12CleanupProxyEv
Dxd:__ZL65__ManagedRegistrationHelperFunction_Internal_SubsystemDescriptorsPv
nSj:__ZN6il2cpp2vm21ThreadPoolCompartment12DetachThreadEP12Il2CppThread
hQf:_SByte_System_IConvertible_ToInt16_m885121451_AdjustorThunk
J8g:_Decimal_stripStyles_m1823381019
fxb:__ZN13GfxDeviceGLES30SetBackBufferColorDepthSurfaceEP17RenderSurfaceBaseS1_
pve:__ZL63TexturePlayableOutput_t648497447_CustomAttributesCacheGeneratorP21CustomAttributesCache
mxc:__Z52Register_UnityEngine_GUIUtility_get_systemCopyBufferv
YRi:_LayoutGroup_SetProperty_TisBoolean_t97287965_m3903959758_gshared
unc:__ZN16StreamedResource8TransferI18StreamedBinaryReadILb0EEEEvRT_
Gec:__Z49Register_UnityEngine_Input_get_imeCompositionModev
mGf:_Sprite_INTERNAL_get_rect_m1600380876
Q$b:__ZN15dense_hashtableINSt3__24pairIKiN4core17string_with_labelILi1EEEEEi18SInt32HashFunctionN14dense_hash_mapIiS5_S7_NS0_8equal_toIiEE13stl_allocatorIS6_L18MemLabelIdentifier1ELi16EEE9SelectKeyESA_SD_E12resize_deltaEjj
$Xc:__ZN17CapsuleCollider2D8TransferI19StreamedBinaryWriteILb0EEEEvRT_
lIk:_emscripten_glDisableVertexAttribArray__wrapper
kha:__ZN14SafeBinaryRead21TransferSTLStyleArrayI13dynamic_arrayINSt3__24pairIi12ImmediatePtrIN5Unity9ComponentEEEELj0EEEEvRT_17TransferMetaFlags
maa:__ZN9Scripting11UnityEngine12Experimental10PlayerLoop14Initialization12CleanupProxyEv
pQc:__ZN22b2IslandDiscreteSolver5SolveEv
CSe:_MonoType_GetAttributeFlagsImpl_m167182975
glg:_EncryptedData_get_EncryptedContent_m3205649670
QKa:__ZN12MeshRenderer18CalculateLocalAABBER4AABBRKS_RK4Mesh
x_b:__ZN21UnityDefaultAllocatorI17LowLevelAllocatorE8AllocateEji
Fed:_tt_hadvance_adjust
ajd:__ZL28InitializeUIScriptingClassesv
mzi:__Z54RuntimeInvoker_Vector2_t2156229523_Vector3_t3722313464PFvvEPK10MethodInfoPvPS4_
t7h:_ReadOnlyCollection_1_System_Collections_IList_set_Item_m2162444692_gshared
iZa:__ZN12HandlerChain10AtomicMoveER13FileEntryDataS1_
_6a:__ZN9GfxDevice17HasGPUFencePassedEPv
J_:__ZZN15DirectorManager15InitializeClassEvEN48PreLateUpdateDirectorDeferredEvaluateRegistrator7ForwardEv
T0c:__ZN20SpeedTreeWindManager6UpdateEf
kPc:__ZN7b2World23SolveDiscreteIslandTaskERK10b2TimeStep
dqi:__Z68RuntimeInvoker_Int64_t3736567304_IntPtr_t_MonoIOErrorU26_t1548853198PFvvEPK10MethodInfoPvPS4_
vu:__ZN7mecanim9animation20CreateAvatarConstantEPNS_8skeleton8SkeletonEPNS1_13SkeletonPoseTIN4math4trsXEEES8_PNS_5human5HumanES3_iRKS6_RNS_6memory9AllocatorE
uxd:__Z20RegisterModule_WebGLv
K4b:__ZN12ShaderErrors11ShaderErrorC2ERKN4core12basic_stringIcNS1_20StringStorageDefaultIcEEEES7_S7_iibb
yNa:__ZN14CompressedMesh8TransferI19StreamedBinaryWriteILb0EEEEvRT_
qsh:_Array_InternalArray__Insert_TisDouble_t594665363_m675699942_gshared
tWa:__ZN13dynamic_arrayI15ComputeShaderCBLj0EE6assignEPKS0_S3_
B_i:_List_1_System_Collections_IList_Add_m3014885234_gshared
Pfi:_UnityAction_1_Invoke_m3535252839_gshared
O3f:_Selectable_set_isPointerInside_m701571657
fij:_PatternCompiler_EmitNotCategory_m2023580103
Gqa:__ZN24GenerateTypeTreeTransfer8TransferI21PlatformShaderDefinesEEvRT_PKc17TransferMetaFlags
VRa:__ZNK15ResourceManager22GetTypeVirtualInternalEv
rak:__ZN6il2cpp2vmL36AddNestedTypesToNametoClassHashTableEPK11Il2CppImagePK20Il2CppTypeDefinition
j0i:_List_1_set_Capacity_m2707586410_gshared
eAf:_PlayerConnection_MessageCallbackInternal_m1914517467
iqf:_AttributeHelperEngine__cctor_m1900959362
T1c:__ZN13TextRendering4Font23VirtualRedirectTransferER24GenerateTypeTreeTransfer
ZKe:__ZL102Image_t2670269651_CustomAttributesCacheGenerator_Image_t2670269651____eventAlphaThreshold_PropertyInfoP21CustomAttributesCache
yag:_X509SubjectKeyIdentifierExtension_ToString_m12089275
qDi:__Z106RuntimeInvoker_RuntimeObject_RuntimeObject_Int32_t2950945753_Int16_t2552820387_RuntimeObject_RuntimeObjectPFvvEPK10MethodInfoPvPS4_
t_h:_UnhandledExceptionEventArgs__ctor_m224348470
rDj:_CanvasRenderer_SetPopMaterial_m2720611463
Eoh:_Array_InternalArray__IndexOf_TisByte_t1134296376_m929524687_gshared
XAd:_ExecuteEvents_get_dragHandler_m3849431675
_Mb:__ZN11HaloManager17RenderGeometryJobEP25DynamicVBOGeometryJobDataj
JAf:_Object_DestroyImmediate_m2288369078
Wjk:__ZN6il2cpp2vm13ComObjectBase19GetRuntimeClassNameEPP15Il2CppHString__
lih:_Enum_System_IConvertible_ToDateTime_m3823814707
xIk:_emscripten_glBlendEquation__wrapper
Z4j:__ZN15dense_hashtableINSt3__24pairIK10KeyWrapperIP11Il2CppClassES4_EES5_N6il2cpp8metadata16SZArrayClassHashEN14dense_hash_mapIS5_S4_SA_NS5_14EqualsComparerINS9_19SZArrayClassCompareEEENS0_9allocatorIS7_EEE9SelectKeyESE_SG_E13set_empty_keyERKS7_
Kwk:__ZNSt3__212basic_stringIcNS_11char_traitsIcEENS_9allocatorIcEEE6__initEPKcj
Tj:_emscripten_set_fullscreenchange_callback
RNd:_PropertyBuilder_IsDefined_m406627924
cai:_ReadOnlyCollection_1_System_Collections_IList_Insert_m4085855595_gshared
Dij:_PatternCompiler_NewLink_m3699449496
sM:__ZN11UnityEngine15CloudWebService14DataDispatcher22ResetNetworkRetryIndexEv
Yj:_emscripten_glDrawArrays
sxf:_Material_HasProperty_m2704238996
JGb:__ZZ23InitPlayerLoopCallbacksvEN43EarlyUpdateExecuteMainThreadJobsRegistrator7ForwardEv
XL:__ZN11UnityEngine15CloudWebService19SessionEventManagerC2Ev
LMg:_Char_System_IConvertible_ToSingle_m2690985411_AdjustorThunk
ck:_clock_getres
vbi:_Comparison_1_Invoke_m668117148_gshared
C6f:_DictionaryNodeEnumerator_FailFast_m2494733641
Uwd:__ZN13RuntimeStaticI14dynamic_bitsetLb0EE16StaticInitializeEPv
SOh:_List_1_System_Collections_IList_IndexOf_m581320577_gshared
C1:__ZNSt3__222__merge_move_constructIRNS_4lessIN4core12basic_stringIcNS2_20StringStorageDefaultIcEEEEEENS_11__wrap_iterIPS6_EESB_EEvT0_SC_T1_SD_PNS_15iterator_traitsISC_E10value_typeET_
nsc:__Z41Register_UnityEngine_Camera_get_eventMaskv
gH:__ZL19CleanupModule_Audiov
Lgg:_IntervalCollection_CopyTo_m2976848759
GFd:_CanvasUpdateRegistry_ObjectValidForUpdate_m2723813849
Y7a:__ZN18GlslGpuProgramGLES25LoadFromBinaryShaderCacheERjRKN4core12basic_stringIcNS1_20StringStorageDefaultIcEEEER17ShaderChannelMaskPKc
q2:__ZN6prcoreL17RemapGenericFloatI18TexFormatARGBFloat14TexFormatRHalfEEvPKNS_9InnerInfoE
sYi:_List_1_RemoveAt_m1433290785_gshared
$ri:__Z81RuntimeInvoker_Void_t1185182177_Int64_t3736567304_RuntimeObject_Int32_t2950945753PFvvEPK10MethodInfoPvPS4_
jdb:__Z29Transfer_Blittable_ArrayFieldI14SafeBinaryReadiEvRT_R9ArrayInfoRK23StaticTransferFieldInfo
dTj:__ZN6il2cpp6icalls8mscorlib6System8MonoType8GetFieldEP20Il2CppReflectionTypeP12Il2CppStringi
UNj:__ZN15dense_hashtableINSt3__24pairIK10KeyWrapperIN6il2cpp5utils13dynamic_arrayIPK10Il2CppTypeLj4EEEEPFvvEEESA_NS3_8metadata19Il2CppSignatureHashEN14dense_hash_mapISA_SD_SG_NSA_14EqualsComparerINSF_22Il2CppSignatureCompareEEENS0_9allocatorISE_EEE9SelectKeyESK_SM_E5clearEv
Jtg:_SHA256Managed_ProcessBlock_m2297835517
TEk:_emscripten_glVertexAttrib3fv__wrapper
K6g:_Convert_ToBoolean_m4098720762
Y9h:_ReadOnlyCollection_1_System_Collections_ICollection_CopyTo_m511916545_gshared
ulh:_Array_InternalArray__ICollection_Remove_TisOrderBlock_t1585977831_m1449044465_gshared
EEk:_emscripten_glGetIntegerv__wrapper
VWe:_AssemblyName__ctor_m1753467291
v4f:_Slider_set_minValue_m3431883418
tpc:__ZN8Material10GetTextureEN9ShaderLab16FastPropertyNameE
Amf:_Enumerator_System_Collections_IEnumerator_get_Current_m1657817602_gshared
UHa:__ZN18StreamedBinaryReadILb0EE21TransferSTLStyleArrayI13dynamic_arrayI10Matrix4x4fLj16EEEEvRT_17TransferMetaFlags
mic:__ZNK28MonoBehaviourPropertyBinding13GetFloatValueERKN11UnityEngine9Animation10BoundCurveE
qJb:__ZL20BlitToStagingTextureP7TextureiS0_i
kok:_GC_generic_malloc
R9f:_WebHeaderCollection_get_Keys_m910440889
ixb:__ZN13GfxDeviceGLES32CreateDepthRenderSurfacePlatformEP17RenderSurfaceBase17DepthBufferFormat
AOg:_ArrayListWrapper_Clear_m2625302714
OIk:_emscripten_glIsTexture__wrapper
Omg:_CipherSuiteCollection_System_Collections_IEnumerable_GetEnumerator_m3240848888
Sbi:_Comparison_1_BeginInvoke_m3417636795_gshared
g3a:__ZN9GfxDevice25ReleaseAsyncCommandHeaderEPN21GfxDeviceAsyncCommand3ArgE
tgj:_X509Crl_Parse_m3164013387
dub:__Z19InitializeGfxDevicev
Ipe:__ZL75Mesh_t3648964284_CustomAttributesCacheGenerator_Mesh_HasChannel_m4256962133P21CustomAttributesCache
NZc:__ZN17Physics2DSettings15InitializeClassEv
sEb:__ZN21UniformBufferTFMethod20IsBoneCountSupportedEi
gMd:_HorizontalLayoutGroup_CalculateLayoutInputHorizontal_m750541069
Yhk:__ZN6il2cpp6icalls8mscorlib6System11Environment11get_NewLineEv
fdg:_X509CertificateCollection__ctor_m1395805580
lUd:_ResourceReader_CreateResourceInfo_m1818330740
GEj:_OnOverrideControllerDirtyCallback_Invoke_m764065723
cwa:__ZN6Shader27MarkShaderStateNotSupportedEPKS_
M5:__ZL55__ManagedRegistrationHelperFunction_DrawShadowsSettingsPv
W5:__ZL52__ManagedRegistrationHelperFunction_GradientAlphaKeyPv
EAf:_Object_Internal_CloneSingle_m1021157572
XDb:__ZN25TransformFeedbackSkinning8SkinMeshERK18VertexStreamSourceP9GfxBufferP17GPUSkinPoseBufferS4_ii17ShaderChannelMaskb
S9j:__ZN15dense_hashtableINSt3__24pairIK10KeyWrapperIP14Il2CppIUnknownEjEES5_N6il2cpp5utils11PointerHashIS3_EEN14dense_hash_mapIS5_jSB_NS5_14EqualsComparerINS0_8equal_toIS4_EEEENS0_9allocatorIS7_EEE9SelectKeyESG_SI_E12resize_deltaEjj
XTd:_ResolveEventArgs__ctor_m1455935166
xWh:_Type_Equals_m1673304139
CPe:_SynchronizedReader_Read_m1388613247
L6b:__Z18tessMeshDeleteMeshP9TESSallocP8TESSmesh
Lib:__Z22TransferField_NonArrayI19StreamedBinaryWriteILb0EE27Converter_SimpleNativeClassI8GUIStyleEEvRK23StaticTransferFieldInfoR31RuntimeSerializationCommandInfoRT0_
n1f:_Scrollbar_OnPointerDown_m3213715319
$Ec:__ZN8JSONRead8TransferIN4math12int3_storageEEEvRT_PKc17TransferMetaFlagsb
WHb:__ZN27IntermediateRendererManager29ClearAllIntermediateRenderersEv
_Cd:_StandaloneInputModule__ctor_m2419721820
aff:_Comparer_1_System_Collections_IComparer_Compare_m2018996185_gshared
aq:__Z17CalculateGlobalSM23TransformAccessReadOnlyRKN4math7_float4E
AQg:_CollectionBase_System_Collections_IList_Contains_m2994901969
am:_emscripten_glLoadIdentity
QXb:__ZNSt3__26vectorINS_4pairIN4core12basic_stringIcNS2_20StringStorageDefaultIcEEEEPK17MessageIdentifierEENS_9allocatorISA_EEE26__swap_out_circular_bufferERNS_14__split_bufferISA_RSC_EEPSA_
EFe:__ZL57RemoteSettings_t1718627291_CustomAttributesCacheGeneratorP21CustomAttributesCache
qHj:_NativeMethodAttribute_set_HasExplicitThis_m2961870915
VAf:_Vector3_get_zero_m1409827619
MHb:__ZN6Shader16GetDefaultOrNullEv
vq:__ZN4AABB8TransferI14SafeBinaryReadEEvRT_
hkh:_Array_InternalArray__ICollection_Contains_TisX509ChainStatus_t133602714_m795171973_gshared
G8j:__ZN6il2cpp2vm8Liveness8FromRootEP12Il2CppObjectPv
bLc:__ZN16PhysicsManager2D26GetGameObjectForRaycastHitERK12RaycastHit2D
eOa:__ZN12MeshRenderer23VirtualRedirectTransferER19StreamedBinaryWriteILb0EE
KPc:__ZN15b2ContactSolver38SolveContinuousPositionConstraintsTaskEii
KZb:__Z11MD5ToStringPh
nfk:__ZN6il2cpp2vm6Method17IsGenericInstanceEPK10MethodInfo
ERj:__ZN23InterfaceActionInvoker4IixxbE6InvokeEjP11Il2CppClassP12Il2CppObjectixxb
rec:__Z38Input_Get_Custom_PropCompositionStringv
PM:__GLOBAL__sub_I_artifacts_WebGL_codegenerator_0_cpp_862
LQc:__ZN7b2WorldaSERKS_
iH:__ZN19AudioSampleProvider7AcquireEjRNS_6HandleE
E5f:_Text_get_alignment_m1496827807
vzh:_ContentInfo_get_ASN1_m1776225219
Rue:__ZL82NativeContainerNeedsThreadIndexAttribute_t764917452_CustomAttributesCacheGeneratorP21CustomAttributesCache
AJ:__ZN9JSONWrite8TransferIN4core12basic_stringIcNS1_20StringStorageDefaultIcEEEEEEvRT_PKc17TransferMetaFlags
aIa:__ZN10SpriteBone8TransferI19StreamedBinaryWriteILb0EEEEvRT_
bMc:__ZN24b2ChainAndPolygonContact6CreateEP9b2FixtureiS1_iP16b2BlockAllocator
Zah:_Convert_ToSingle_m2533452644
Twk:__ZNSt3__212basic_stringIcNS_11char_traitsIcEENS_9allocatorIcEEE6resizeEjc
iPa:__ZN14PlayerSettings16CheckConsistencyEv
pG:__ZN11AudioModule30GetOrCreateDSPFromCustomFilterEP17AudioCustomFilter
Pjf:_ShimEnumerator_get_Key_m317201915_gshared
fAd:_EventTrigger_OnPointerEnter_m986348926
b9j:__ZN6il2cpp6icalls8mscorlib6System13GlobalizationL20culture_lcid_locatorEPKvS5_
pvg:_X509Certificate__ctor_m1413707489
j8h:_ReadOnlyCollection_1_System_Collections_Generic_ICollectionU3CTU3E_Remove_m2211264472_gshared
MAa:__ZNK12CubemapArray16ExtractImageImplEP14ImageReferenceNS0_8BlitModeEbi
lpc:__ZN10systeminfo24GetSystemLanguageCultureEi
VTc:__ZN16CircleCollider2D5ResetEv
e5a:__ZN9GfxDevice24RequestAsyncReadbackDataEP20GfxAsyncReadbackDataRK27GfxAsyncReadbackRequestDesc
Wvi:__Z240RuntimeInvoker_RuntimeObject_Int16_t2552820387_RuntimeObject_Int32_t2950945753_Int32_t2950945753_Int32_t2950945753_SByte_t1669577662_SByte_t1669577662_SByte_t1669577662_SByte_t1669577662_Int16_t2552820387_SByte_t1669577662_SByte_t1669577662PFvvEPK10MethodInfoPvPS4_
vPa:__ZN10VRSettings8TransferI14SafeBinaryReadEEvRT_
Daa:__ZN9Scripting11UnityEngine12Experimental18GlobalIllumination11LightDataGI9InitProxyEv
_Wh:_Type_IsMarshalByRefImpl_m914778231
jYa:__ZNK17FileSystemHandler10IsReadOnlyERK13FileEntryData
q5c:_UNITY_FT_Outline_Get_CBox
etc:__Z56Register_UnityEngine_SystemInfo_GetOperatingSystemFamilyv
pRg:_Hashtable__ctor_m2302711321
ka:invoke_viifiiii
fMg:_Byte_TryParse_m1467448483
bAk:dynCall_viiiiiif
UGf:_Texture2D_get_whiteTexture_m2176011403
Gla:__ZN22PerThreadPageAllocator14AcquireNewPageEj
pci:_Func_2_Invoke_m3516477887_gshared
_se:__ZL65SelectionBaseAttribute_t3493465804_CustomAttributesCacheGeneratorP21CustomAttributesCache
QAg:_String_ToString_m3872792296
xfb:__Z18Transfer_BlittableI24GenerateTypeTreeTransferLb1E9BoundsIntEvRK29SerializationCommandArgumentsR31RuntimeSerializationCommandInfo
d1g:_FileStream_GetSecureFileName_m449783930
sOb:__ZN6Camera13ClearNoSkyboxEb
vQe:_UnexceptionalStreamWriter_Flush_m82278468
v8e:_InternalEnumerator_1_get_Current_m3911557813_gshared
hNj:__ZNK15dense_hashtableI10KeyWrapperIPK17Il2CppGenericInstES4_N6il2cpp8metadata21Il2CppGenericInstHashEN14dense_hash_setIS4_S7_NS4_14EqualsComparerINS6_24Il2CppGenericInstCompareEEENSt3__29allocatorIS4_EEE8IdentityESB_SE_E12test_deletedEj
Oyd:_BaseInput_get_touchCount_m1263753282
SZ:__ZNSt3__27__sort5IR17CompareInstanceIDPP6ObjectEEjT0_S6_S6_S6_S6_T_
MGj:_CustomEventData_Internal_Create_m4267220301
n0d:_RemotingSurrogate_SetObjectData_m2713731796
NCg:_DecoderReplacementFallbackBuffer_Reset_m3943028589
Bte:__ZL56RenderTexture_t2108887433_CustomAttributesCacheGeneratorP21CustomAttributesCache
dDb:__ZN18GfxFramebufferGLES10InvalidateEv
yIh:_Enumerator_System_Collections_IEnumerator_get_Current_m282279808_AdjustorThunk
Xcd:_UNITY_tt_size_run_prep
uSh:_CompressedStack_CreateCopy_m2591279216
Usg:_RSAPKCS1KeyExchangeFormatter_CreateKeyExchange_m1611814432
CQ:__ZN10MemoryPoolD2Ev
Qxc:__ZNSt3__26__treeINS_12__value_typeIN4core12basic_stringIcNS2_20StringStorageDefaultIcEEEEN5IMGUI12NamedControlEEENS_19__map_value_compareIS6_S9_NS_4lessIS6_EELb1EEENS_9allocatorIS9_EEE7destroyEPNS_11__tree_nodeIS9_PvEE
sag:_AsnEncodedData_KeyUsageExtension_m1792651780
B7b:__ZN19SpriteMeshGenerator4path3decEi
Hek:__ZN6il2cpp2os5posix15PosixWaitObjectD2Ev
x6a:__ZN14GfxDeviceStats19EndClientFrameStatsEv
MVf:_InputField_set_asteriskChar_m1794444908
o6b:__ZN9Scripting26RaiseArgumentNullExceptionEPKc
pJk:b120
RO:__ZL18InternalLogConsolePKcz
aXc:__ZN17PolygonCollider2D13PrepareShapesER13dynamic_arrayIP7b2ShapeLj0EERK10Matrix4x4f
$5e:_InternalEnumerator_1_get_Current_m685192625_gshared
pQe:_UnexceptionalStreamReader_Read_m16956299
uUd:_ResourceReader_ReadValueVer1_m183253382
UU:__Z37scripting_method_get_nth_argumenttype18ScriptingMethodPtri
XC:__ZN11AudioSource16UpdatePauseStateEv
yZ:__ZL52StaticUnregisterSceneLoadedCallback_LightmapSettingsPv
yrf:_Camera_get_main_m3643453163
Arc:__Z48Register_UnityEngine_MonoBehaviour_StopCoroutinev
msk:__ZN6il2cpp5utils25NativeDelegateMethodCache17AddNativeDelegateEPFvvEPK10MethodInfo
EZf:_LayoutRebuilder_U3CRebuildU3Em__5_m1288787547
yNb:__ZN27DeviceViewProjMatricesStateD2Ev
_Ff:_SendMouseEvents__cctor_m2378365934
s4h:_ReadOnlyCollection_1_System_Collections_IList_set_Item_m3582274843_gshared
Fxf:_Mathf_Pow_m856735666
_0:__ZL39CreateRegisteredMessageIdentifiersArrayPv
ifb:__Z18Transfer_BlittableI24GenerateTypeTreeTransferLb0E8Vector3fEvRK29SerializationCommandArgumentsR31RuntimeSerializationCommandInfo
Khk:__ZN6il2cpp2os10ThreadImpl33UnregisterCurrentThreadForCleanupEv
yth:_SimpleCollator_FilterExtender_m72900315
P1c:__ZNK13TextRendering4Font22GetTypeVirtualInternalEv
RFe:__ZL61CertificateHandler_t2739891000_CustomAttributesCacheGeneratorP21CustomAttributesCache
XHf:_Transform_set_parentInternal_m2066300701
ESa:__ZN19StreamedBinaryWriteILb0EE21TransferSTLStyleArrayINSt3__26vectorIN15ResourceManager10DependencyE13stl_allocatorIS5_L18MemLabelIdentifier52ELi16EEEEEEvRT_17TransferMetaFlags
P2f:_ScrollRect_EnsureLayoutHasRebuilt_m3415112783
SSe:_Binder_FindMostDerivedMatch_m239579024
c4e:_InternalEnumerator_1_get_Current_m476140818_AdjustorThunk
gqj:_GUIUtility_EndContainerGUIFromException_m530164245
MDj:_RectTransformUtility_INTERNAL_CALL_RectangleContainsScreenPoint_m1214874141
aza:__ZN6prcoreL10inner_flipILj2EEEvPhS1_j
mPj:__ZN6il2cpp2vm13MetadataCache14GetPointerTypeEP11Il2CppClass
Sya:__ZNK14Texture2DArray16ExtractImageImplEP14ImageReferenceNS0_8BlitModeEbi
rQh:_StringBuilder_Append_m2383614642
oBc:__ZN9JSONWrite8TransferIbEEvRT_PKc17TransferMetaFlags
kfa:__ZN12TLSAllocatorI14StackAllocatorED0Ev
EWc:__ZN19PhysicsJobOptions2D16CheckConsistencyEv
vOa:__ZN11TimeManager16CheckConsistencyEv
g8h:_ReadOnlyCollection_1_System_Collections_Generic_ICollectionU3CTU3E_Add_m2451728105_gshared
GKb:__ZN21GfxDeviceAsyncCommand10ArgScratch15ThreadedCleanupEv
DVc:__ZN10ClipperLib14IntersectPointERNS_5TEdgeES1_RNS_8IntPointE
dnc:__Z14DoubleToStringd
QBg:_StringComparer_GetHashCode_m2080455020
Jeb:__ZN12NativeBufferI27Converter_UnityEngineObjectE15SetupForWritingER9ArrayInfo
l7b:__ZL19CheckForRightSpliceP14TESStesselatorP12ActiveRegion
BVi:_List_1_CheckCollection_m2118769249_gshared
te:_glTexImage3D
VHd:_DefaultControls_SetDefaultColorTransitionValues_m2033775311
GIc:__ZN7Joint2DD2Ev
tNi:_Array_InternalArray__set_Item_TisChar_t3634460470_m741842250_gshared
adj:_TlsServerSettings_set_RsaParameters_m853026166
Rbk:__ZN6il2cpp2vm5Field22StaticGetValueInternalEP9FieldInfoPvS4_
vDg:_Encoding_GetByteCount_m1264711659
sC:__ZN11AudioSource12ApplyFiltersEv
YTf:_RC2_Create_m2052783340
cXg:_Guid__ctor_m3421080095_AdjustorThunk
Ce:_JS_SystemInfo_GetCurrentCanvasWidth
ajk:__ZN6il2cpp8metadataL22FormatGenericArgumentsEPK17Il2CppGenericInst
sBi:__Z133RuntimeInvoker_Int32_t2950945753_Vector2_t2156229523_Vector2_t2156229523_Single_t1397266774_ContactFilter2D_t3805203441_RuntimeObjectPFvvEPK10MethodInfoPvPS4_
U9b:__ZL34GetComponentsImplementationRecurseILb1ELi0ELi1EEbR10GameObjectbRK17CompareParametersRK39GetComponentsImplementation_ReturnValue
Kna:__ZNK17InstancingBatcher15RenderInstancesERK15RenderNodeQueuePK17BatchInstanceDataj16VertexInputMasksPFbPvS6_iR11MeshBuffersR16DrawBuffersRangeRiSC_E
Phh:_Double_Equals_m1674752021
aWf:_InputField_OnDisable_m1824300767
Esh:_CodePointIndexer_ToIndex_m1008730487
Wqc:__Z37Texture_CUSTOM_get_texelSize_InjectedP12Il2CppObjectR13Vector2fIcall
C_g:_Int64_System_IConvertible_ToUInt64_m2815650160_AdjustorThunk
TPa:__ZN10VRSettings8TransferI18StreamedBinaryReadILb0EEEEvRT_
Tff:_Enumerator_get_CurrentKey_m2230405065_gshared
j_c:__ZN22WorldContactListener2D12BeginContactEP9b2Contact
WQe:_Math_Abs_m3912393749
Hpg:_TlsClientFinished_ProcessAsSsl3_m3094597606
Hrf:_Camera_get_allCamerasCount_m528453758
Rib:__Z19TransferField_ArrayI19StreamedBinaryWriteILb0EE27Converter_SimpleNativeClassI8GradientEEvRK23StaticTransferFieldInfoR31RuntimeSerializationCommandInfoRT0_
aJa:__ZNK13ScreenManager12IsFullscreenEv
s2b:__ZN24GenerateTypeTreeTransfer8TransferINSt3__26vectorIN9ShaderLab20SerializedSubProgram15VectorParameterENS1_9allocatorIS5_EEEEEEvRT_PKc17TransferMetaFlags
QJc:__ZNK12b2WheelJoint16GetReactionForceEf
XFk:_glGetUniformBlockIndex__wrapper
PIg:_Array_CreateInstance_m2696293787
EQh:_UnicodeEncoding__ctor_m1074918879
SHa:__ZN7SubMesh8TransferI18StreamedBinaryReadILb0EEEEvRT_
B0e:_OpCode_Equals_m1376200488_AdjustorThunk
IGd:_ColorBlock_op_Inequality_m2718216889
gf:_emscripten_glIsEnabled
Bac:__Z45Register_UnityEngine_GameObject_get_transformv
pZe:_DerivedType_GetConstructors_m483065502
$T:__Z29scripting_class_instance_size17ScriptingClassPtr
JEc:__Z29Transfer_Blittable_ArrayFieldI8JSONRead5RectTIiEEvRT_R9ArrayInfoRK23StaticTransferFieldInfo
ZHc:__ZN7b2World12DestroyJointEP7b2Joint
qLi:__Z68RuntimeInvoker_Boolean_t97287965_SByte_t1669577662_SByte_t1669577662PFvvEPK10MethodInfoPvPS4_
cBi:__Z165RuntimeInvoker_Void_t1185182177_RuntimeObject_Int32_t2950945753_Int32_t2950945753_RuntimeObject_Int32_t2950945753_Single_t1397266774_Single_t1397266774_RuntimeObjectPFvvEPK10MethodInfoPvPS4_
wc:invoke_iiiiiiiii
vM:__ZN11UnityEngine15CloudWebService19SessionEventManager26ProcessEventQueueJobStaticEPv
Bxf:_Mathf_Min_m1073399594
kjf:_KeyCollection__ctor_m4231035512_gshared
W9c:_otv_Coverage_get_last
EL:__ZN11UnityEngine15CloudWebService19SessionEventManager37OnTimerExpiredPerformArchiveJobStaticEPv
fAc:__Z18Transfer_BlittableI9JSONWriteLb1E9BoundsIntEvRK29SerializationCommandArgumentsR31RuntimeSerializationCommandInfo
HCg:_DecoderReplacementFallbackBuffer__ctor_m1669699347
Alj:_Group_GetWidth_m3299755715
zZh:_UInt64_System_IConvertible_ToDouble_m602078108
V8g:_Decimal_op_Implicit_m1920400487
Hsi:__Z253RuntimeInvoker_Int32_t2950945753_RuntimeObject_Int32_t2950945753_Int32_t2950945753_RuntimeObject_Int32_t2950945753_UInt32U26_t3735378166_UInt32U26_t3735378166_RuntimeObject_DecoderFallbackBufferU26_t3866396827_ByteU5BU5DU26_t4057885439_SByte_t1669577662PFvvEPK10MethodInfoPvPS4_
_ra:__ZN10builtintex15GetWhiteTextureEv
d0d:_MonoMethodMessage_get_TypeName_m3758247133
ZRg:_Enumerator_get_Entry_m2184304359
Edh:_DateTime_FromBinary_m2489276715
rtk:__ZN6il2cpp6icalls8mscorlib6System10Reflection4Emit11DerivedType21create_unmanaged_typeEP20Il2CppReflectionType
FMd:_Image_set_fillCenter_m3776786491
s8b:__Z39Register_UnityEngine_Sprite_get_texturev
VEj:__ZL10rescale128PyS_Piiiii
YD:__ZN9AudioClip7WWWSeekEPvjS0_
S4d:__ZL63FixedBufferAttribute_t3759792648_CustomAttributesCacheGeneratorP21CustomAttributesCache
UP:__ZL32StaticInitializeIUnityInterfacesPv
lKb:__Z13CameraProjectRK8Vector3fRK10Matrix4x4fS4_RK5RectTIiERS_b
v_:__Z22CreateMutexLockedStackv
Xub:__ZNSt3__27__sort5IRNS_4lessIN22BuiltinResourceManager8ResourceEEEPS3_EEjT0_S7_S7_S7_S7_T_
RUe:_NumberFormatter_FormatNumber_m1763569482
lGf:_Sprite_get_rect_m2575211689
EHb:__ZN9ShaderLab11ShaderStateD2Ev
Cdd:_Ins_DELTAP
arb:__Z23TransferScriptingObjectI24GenerateTypeTreeTransferEvRT_18ScriptingObjectPtr17ScriptingClassPtrPK15MonoScriptCache
Hij:_PatternLinkStack_GetOffset_m3697714525
QQj:_AnalyticsEvent__cctor_m3994162614
qvc:__Z19GetSpecificGUIStatei
dwc:__ZN12GUIClipState5ApplyER10InputEvent
xib:__ZL17Transfer_GUIStyleI19StreamedBinaryWriteILb0EELb0EEvRK29SerializationCommandArgumentsR31RuntimeSerializationCommandInfo
wOb:__ZN10TextureRef4InitEP7Textureb
ZBf:_PlayerConnectionInternal_UnityEngine_IPlayerEditorConnectionNative_Initialize_m2565175798
w1g:_MonoIO_GetFileType_m101289143
moa:__Z19ScheduleJobInternalR8JobFencePFvPvES1_11JobPriority
L9:__ZN9Scripting11UnityEngine12Experimental9Rendering12VisibleLight9InitProxyEv
u7f:_KeysCollection_get_Count_m3943311735
eIc:__ZN16b2BlockAllocator4FreeEPvi
V4e:_InternalEnumerator_1_get_Current_m2832154098_gshared
U_h:_Version__ctor_m1550720073
MQj:__ZNSt3__211__tree_nextIPNS_16__tree_node_baseIPvEEEET_S5_
bck:__ZN15dense_hashtableI10KeyWrapperIP18Il2CppGenericClassES3_N6il2cpp8metadata22Il2CppGenericClassHashEN14dense_hash_setIS3_S6_NS3_14EqualsComparerINS5_25Il2CppGenericClassCompareEEENSt3__29allocatorIS3_EEE8IdentityESA_SD_E14squash_deletedEv
J2:__ZN6prcoreL17RemapGenericFloatI17TexFormatRGBAHalf17TexFormatRGBFloatEEvPKNS_9InnerInfoE
Pmi:__Z52RuntimeInvoker_Double_t594665363_Decimal_t2948259380PFvvEPK10MethodInfoPvPS4_
B9e:_InternalEnumerator_1_get_Current_m784835552_gshared
Ntc:__Z35Sprite_Get_Custom_PropPixelsPerUnitP12Il2CppObject
kNj:__ZNSt3__26__sortIRN6il2cpp5utils11collections13ArrayValueMapIPK10Il2CppType17Il2CppInteropData26InteropDataToTypeConverterNS1_8metadata14Il2CppTypeLessENSA_26Il2CppTypeEqualityComparerEE12SortComparerEPS8_EEvT0_SH_T_
pVa:__ZN11PreloadDataD2Ev
swd:__ZN15DownloadHandler14ProcessHeadersERK9HeaderMap
f2c:__ZNSt3__26vectorINS_4pairIifEE13stl_allocatorIS2_L18MemLabelIdentifier35ELi16EEE6assignINS_11__wrap_iterIPS2_EEEENS_9enable_ifIXaasr21__is_forward_iteratorIT_EE5valuesr16is_constructibleIS2_NS_15iterator_traitsISC_E9referenceEEE5valueEvE4typeESC_SC_
Zb:invoke_iifi
DMg:_Char_System_IConvertible_ToInt16_m975497224_AdjustorThunk
pKc:__ZNK16b2PrismaticJoint16GetReactionForceEf
wgh:_Delegate_CreateDelegate_m995503480
kHk:_emscripten_glGetObjectParameterivARB__wrapper
tUj:__ZNK6il2cpp5utils10StringViewIcE5RFindEc
BZe:_DerivedType_get_Module_m3032466746
ysa:__ZN15SharedLightData15UpdateTransformERK9Transform
mLe:__ZL71InputField_t3762917431_CustomAttributesCacheGenerator_m_OnValidateInputP21CustomAttributesCache
o3a:__ZN9GfxDevice24CreateRenderDepthSurfaceE9TextureIDiiii16TextureDimension17DepthBufferFormat18SurfaceCreateFlags
$Vb:__ZL30CollectComponentsWithoutAddingR10GameObjectPKN5Unity4TypeE17ScriptingClassPtrR13dynamic_arrayI16AddComponentDataLj0EES9_PN4core12basic_stringIcNSA_20StringStorageDefaultIcEEEE
Ew:__ZN18AssetBundleManagerD2Ev
T7j:__ZN6il2cpp2vm9Exception27GetIndexOutOfRangeExceptionEv
ibc:__Z44Register_UnityEngine_RectOffset_get_verticalv
v_f:_MaskableGraphic_set_maskable_m243551751
_ca:__ZN5Unity9Component8TransferI14SafeBinaryReadEEvRT_
aNh:_List_1_System_Collections_IList_Remove_m2702745770_gshared
jh:_JS_SystemInfo_GetCurrentCanvasHeight
a2e:_ArrayReadOnlyList_1_IndexOf_m1911574180_gshared
e_f:_Mask_OnEnable_m2186824439
FUf:_InputField_SetCaretVisible_m2216480850
Zdg:_X509EnhancedKeyUsageExtension_CopyFrom_m3750050754
swa:__ZNK8Material22GetTypeVirtualInternalEv
Lwc:__Z34GUIStyle_Get_Custom_PropFixedWidthP12Il2CppObject
C6h:_ReadOnlyCollection_1_System_Collections_IList_Clear_m1076810235_gshared
uLh:_Enumerator_System_Collections_IEnumerator_get_Current_m3405349194_AdjustorThunk
GIg:_Array_SetValue_m3412648248
pgk:__ZN6il2cpp2gc16GarbageCollector11GetWeakLinkEPPv
Mgk:__GLOBAL__sub_I_Console_cpp
z2:__ZN6prcoreL17RemapGenericFloatI14TexFormatRHalf17TexFormatRGBAHalfEEvPKNS_9InnerInfoE
chg:_BigInteger_GetBytes_m1259701831
JUj:__ZN6il2cpp2vm7Runtime11InvokeArrayEPK10MethodInfoPvP11Il2CppArrayPP15Il2CppException
iBg:_String_memcpy_m2826223007
kaj:_RijndaelManaged_CreateDecryptor_m1421727258
Hdd:_Dual_Project
u4a:__ZN9GfxDevice15BeginFrameStatsEv
lLh:_Enumerator_MoveNext_m2407049913_gshared
mQh:_StringBuilder_Replace_m1682610486
GCb:__ZN4gles20EnsureTextureCreatedEP7ApiGLESP17RenderSurfaceGLES
rca:__ZN9Scripting5Unity11Collections8LowLevel6Unsafe48NativeDisableContainerSafetyRestrictionAttribute9InitProxyEv
WKb:__ZN15ReplacementPass13PrepareSubsetEjRK10RenderNodeifRK17ShaderReplaceData
wC:__Z32AudioMeasurement_GetTimeConstantff
cjk:__ZN6il2cpp8metadata11FieldLayout12LayoutFieldsEjjjRKNSt3__26vectorIPK10Il2CppTypeNS2_9allocatorIS6_EEEERNS1_15FieldLayoutDataE
UZa:__ZNK20LocalFileSystemPosix9EnumerateEPKcP19dynamic_block_arrayI13FileEntryInfoLj32EEbPPv19FileEnumerationFlag
rQd:_MethodInfo_MakeGenericMethod_m1996785325
czd:_BaseInputModule_DetermineMoveDirection_m770437496
KYd:_Context_get_HasGlobalDynamicSinks_m3672814609
uhj:_Match__ctor_m2464595873
pTb:__ZL27PrepareSceneNodesJobCombineP25ScheduleSceneNodesJobData
Yfj:_X509CertificateEnumerator_Reset_m1825523691
xbb:__Z22TransferField_NonArrayI14SafeBinaryRead27Converter_SimpleNativeClassI8GUIStyleEEvRK23StaticTransferFieldInfoR31RuntimeSerializationCommandInfoRT0_
c$j:__ZN14dense_hash_mapI10KeyWrapperIPK10Il2CppTypeEjN6il2cpp8metadata14Il2CppTypeHashENS4_14EqualsComparerINS6_26Il2CppTypeEqualityComparerEEENSt3__29allocatorINSB_4pairIKS4_jEEEEEC2EjRKS7_RKSA_
_vb:__ZN13GfxDeviceGLESD2Ev
y$b:__ZNSt3__26vectorIN9ShaderLab26SerializedShaderDependencyENS_9allocatorIS2_EEE6resizeEj
fSi:_Activator_CreateInstance_TisRuntimeObject_m729575857_gshared
p_:__ZN18AsyncUploadManager13StaticDestroyEPv
H1c:__ZN9Scripting11UnityEngine4Font9InitProxyEv
$_b:__ZN6Shader7SetNameEPKc
gXb:__ZN19CustomRenderTexture22HandleBoundaryWrappingERKNS_14UpdateZoneInfoEj
JBj:_TextGenerationSettings_CompareColors_m3051734236
eVc:__ZN10ClipperLib7Clipper16DoSimplePolygonsEv
GQj:__ZN6il2cpp2vm13MetadataCache32GenerateCustomAttributeTypeCacheEi
Qyg:_Single_Equals_m438106747
Dte:__ZL101Time_t2420636075_CustomAttributesCacheGenerator_Time_t2420636075____realtimeSinceStartup_PropertyInfoP21CustomAttributesCache
Tvd:__ZN20UnityWebRequestProtoI24UnityWebRequestTransport16AtomicRefCounter14RedirectHelper14ResponseHelper15DownloadHandler13UploadHandler18CertificateHandler12HeaderHelper14AsyncOperationE35Task_FinalizeAfterDHCompleteContentEPv
bVd:_RuntimeResourceSet__ctor_m2765575100
R3b:__ZN9ShaderLab9SubShader31UpdateLightModeToPassIndexTableEv
xpg:_TlsClientCertificate_ProcessAsSsl3_m3265529850
aCg:_ASCIIEncoding_GetChars_m2543669481
Cvh:_BigInteger_IsProbablePrime_m567194283
V$e:_MethodBuilder_GetCustomAttributes_m731278908
Mdd:_Direct_Move_Y
Kdd:_Direct_Move_X
Gti:__Z51RuntimeInvoker_Single_t1397266774_Double_t594665363PFvvEPK10MethodInfoPvPS4_
Gi:_glClearDepthf
xoc:__ZN19SkinnedMeshRenderer7GetMeshEv
osa:__ZN19RuntimeSceneManager14GetActiveSceneEv
gyk:_memcpy
Yub:__ZNSt3__218__insertion_sort_3IRNS_4lessIN22BuiltinResourceManager8ResourceEEEPS3_EEvT0_S7_T_
wOf:_MultiArrayFixupRecord_FixupImpl_m1721674130
eUj:__ZN6il2cpp6icalls8mscorlib6SystemL8IsStaticEPK9EventInfo
H9c:_otv_LookupList_validate
Iae:__ZL49_Module_t135161706_CustomAttributesCacheGeneratorP21CustomAttributesCache
rIh:_GenericEqualityComparer_1_Equals_m687841776_gshared
qdc:__Z57Register_UnityEngine_Transform_INTERNAL_get_localPositionv
tRb:__ZNSt3__27__sort4IR15ReflProbeSorterPP15ReflectionProbeEEjT0_S6_S6_S6_T_
Npa:__ZN16GraphicsSettings10SmartResetEv
H5b:__ZN19StreamedBinaryWriteILb0EE4InitE24TransferInstructionFlags20BuildTargetSelection
$$f:_DelegatePInvokeWrapper_GetRayIntersectionAllCallback_t3913627115
fIj:__ZN15dense_hashtableINSt3__24pairIK10KeyWrapperIPK22Il2CppGenericParameterEP11Il2CppClassEES6_N6il2cpp5utils11PointerHashIS4_EEN14dense_hash_mapIS6_S9_SE_NS6_14EqualsComparerINS0_8equal_toIS5_EEEENS0_9allocatorISA_EEE9SelectKeyESJ_SL_E9copy_fromERKSO_j
Iwh:_ASN1Convert_ToInt32_m254930636
Ehd:__GLOBAL__sub_I_artifacts_WebGL_codegenerator_0_cpp_6463
cQa:__ZN26PlayerSettingsSplashScreen16CheckConsistencyEv
xra:__ZN20SphericalHarmonicsL28TransferI19StreamedBinaryWriteILb0EEEEvRT_
b_h:_UInt64_ToString_m1529093114
qYc:__ZN16PhysicsManager2D45UnregisterTransformChangeInterestForRigidbodyEP11Rigidbody2D
Ad:_emscripten_glLoadMatrixf
cR:__ZL33TransformAccessArray_CleanupClassPv
wxf:_Material_SetInt_m1783799378
mIg:_Array_GetLength_m2178203778
wwf:_Input_GetMouseButtonDown_m2081676745
eYg:_Int16_System_IConvertible_ToDouble_m1661805412_AdjustorThunk
LNa:__ZN4Mesh14UploadMeshDataEb
BJk:_emscripten_glCreateProgram__wrapper
Erb:__ZN18ScreenManagerWebGL17RestoreCursorLockEv
Uic:__ZN14RenderSettings12CleanupClassEv
o8b:__Z43DataUtility_CUSTOM_INTERNAL_CALL_GetPaddingP12Il2CppObjectR8Vector4f
QE:__ZN21AudioScriptingClasses26InvokeOnAudioManagerUpdateEP21ScriptingExceptionPtr
l6a:__ZN18AsyncUploadManager15DoDeCruncherJobEP26FileAssetUploadInstruction
j4a:__ZN9GfxDevice15ImmediateNormalEfff
iIf:_Enumerator__ctor_m1351041375
Cyd:_BaseInput_get_compositionString_m1887614380
ASh:_CompressedStack_IsEmpty_m1305135551
JFk:_emscripten_glGetActiveAttrib__wrapper
wJa:__ZN9Texture3D23VirtualRedirectTransferER14SafeBinaryRead
rOi:_Array_InternalArray__set_Item_TisVector2_t2156229523_m2671087464_gshared
mTi:_Array_InternalArray__get_Item_TisVector4_t3319028937_m1117939728_gshared
X0b:__ZNSt3__26vectorIN9ShaderLab20SerializedSubProgram16TextureParameterENS_9allocatorIS3_EEE8__appendEj
Qfj:_X509CertificateCollection_Contains_m743657353
u0g:_DirectoryInfo_Initialize_m1389772934
aDa:__ZN9Texture2D13UploadTextureEi
UBb:__ZN7ApiGLES9MapBufferEjN2gl12BufferTargetEllj
wB:__ZN4FMOD6System19setSoftwareChannelsEi
C5a:__ZN9GfxDevice19SetSinglePassStereoE16SinglePassStereo
_La:__Z36AddDefaultStreamsToMeshBuffersSpriteR9GfxDeviceR11MeshBuffersj17ShaderChannelMaskS3_b
wpg:_TlsClientCertificate_FindParentCertificate_m3844441401
Vce:__ZL93X509Certificate_t713131622_CustomAttributesCacheGenerator_X509Certificate_GetName_m1060481339P21CustomAttributesCache
eyk:_bitshift64Lshr
Rna:__Z40BuildSingleStreamChannelInfoWithDefaultsP11ChannelInfoRK20VertexChannelsLayout17ShaderChannelMaskS4_S4_
uRg:_Hashtable_System_Collections_IEnumerable_GetEnumerator_m2751657639
otc:__Z62ScriptableObject_CUSTOM_CreateScriptableObjectInstanceFromTypeP12Il2CppObject
$_d:_HeaderHandler_Invoke_m3513051789
BNe:__ZL77CanvasScaler_t2767979955_CustomAttributesCacheGenerator_m_ReferenceResolutionP21CustomAttributesCache
Oni:__Z144RuntimeInvoker_RuntimeObject_RuntimeObject_Int32_t2950945753_RuntimeObject_RuntimeObject_RuntimeObject_RuntimeObject_RuntimeObject_RuntimeObjectPFvvEPK10MethodInfoPvPS4_
oWh:_Type_get_IsPointer_m4067542339
w5f:_Text_get_supportRichText_m1837499160
Kec:__Z60Register_UnityEngine_Input_INTERNAL_set_compositionCursorPosv
UAf:_Vector3_Magnitude_m3447562852
oqf:_Component__ctor_m1928064382
Izk:dynCall_viiiii
Qca:__ZN9Behaviour10DeactivateE19DeactivateOperation
USb:__Z59ProcessShadowCasterNodeVisibilityAndCullWithoutUmbra_KernelILN17CullingParameters9LayerCullE1ELi12EEvR9IndexListRK22SceneCullingParametersPK9SceneNodePK4AABBjjPKN4math7_float4E
Jfd:_Cubic_To
Rng:_Context_get_Protocol_m1078422015
ksc:__Z44Register_UnityEngine_Camera_get_farClipPlanev
FFj:_Joint2D_set_connectedBody_m2939198106
vr:__Z25InverseTransformDirection23TransformAccessReadOnlyRKN4math7_float3Eb
Jpg:_TlsClientHello_Update_m3773127362
Stj:_ToggleGroup_SetAllTogglesOff_m4184050071
dek:__ZN6il2cpp2gc16GarbageCollector14GetOrCreateCCWEP12Il2CppObjectRK10Il2CppGuid
nbk:__ZN6il2cpp2vm5Image21FromTypeNameParseInfoEPK11Il2CppImageRKNS0_17TypeNameParseInfoEb
_Re:_MonoCustomAttrs_IsDefined_m2996012389
ezb:__ZN17BufferManagerGLES13AcquireBufferEjN14DataBufferGLES11BufferUsageEb
iCj:_TextGenerator_PopulateAlways_m1922695746
kah:_Decimal__ctor_m3650533794
C_f:_MaskableGraphic_UpdateClipParent_m2605828397
jvg:_TripleDESTransform_GetStrongKey_m292426577
kYe:_AssemblyBuilder_get_Location_m384539722
ytd:__ZN16UnityAdsSettingsD0Ev
iBb:__ZNK7ApiGLES10DebugLabelEN2gl10ObjectTypeEjPKc
c9:__ZN9Scripting11UnityEngine9Matrix4x412CleanupProxyEv
V0g:_DirectoryNotFoundException__ctor_m4004339866
Qxk:__ZNK10__cxxabiv121__vmi_class_type_info16search_below_dstEPNS_19__dynamic_cast_infoEPKvib
TBj:_TextGenerator__ctor_m1349784994
IZc:__ZZN11Rigidbody2D15InitializeClassEvEN35FunctorImpl_171kAnimatorMoveBuiltin4CallEPviR11MessageData
m$f:_Navigation_Equals_m317484440
p8i:_Collection_1_System_Collections_IList_set_Item_m876512695_gshared
q8b:__Z38DataUtility_CUSTOM_Internal_GetMinSizeP12Il2CppObjectP13Vector2fIcall
qJf:_Vector3_Distance_m886789632
BNf:_ObjectReader_ReadObjectGraph_m1689734232
szf:_MonoBehaviour_StopCoroutine_m907039165
j2j:_il2cpp_class_has_attribute
oxh:_DSAManaged_get_KeySize_m2738463749
Yu:__ZN14SafeBinaryRead21TransferSTLStyleArrayI13dynamic_arrayIjLj0EEEEvRT_17TransferMetaFlags
H3:__ZN6prcoreL12RemapGenericI15TexFormatRGB88817TexFormatARGB8888EEvPKNS_9InnerInfoE
OJf:_Vector4_op_Subtraction_m1632208160
xU:__Z27FindOrCreateMonoScriptCache17ScriptingClassPtr22InitScriptingCacheTypeP6Objecti
PZc:__Z23CleanupPhysicsManager2Dv
wmb:__Z18Transfer_BlittableI18StreamedBinaryReadILb0EELb1E8Vector3fEvRK29SerializationCommandArgumentsR31RuntimeSerializationCommandInfo
Nmd:__ZN2UI14CanvasRenderer13SyncVertexPtrER8JobFenceNS0_8SyncFlagE
KUg:_CultureInfo_GetFormat_m732021304
PU:__Z35scripting_method_get_argument_count18ScriptingMethodPtr
Tsi:__Z46RuntimeInvoker_RuntimeObject_Double_t594665363PFvvEPK10MethodInfoPvPS4_
aDg:_EncoderReplacementFallback__ctor_m2980727890
lOg:_ArrayList_Synchronized_m1327684267
f9b:__Z20Gradient_CUSTOM_InitP12Il2CppObject
hQd:_MethodBase_get_IsPublic_m2180846589
pxc:__Z48Register_UnityEngine_GUIUtility_Internal_ExitGUIv
cEh:_DefaultComparer_Equals_m2574572657_gshared
D1g:_FileStream_get_CanWrite_m1199612770
tTb:__ZL21CullDynamicObjectsJobP14CullingJobDataj
_id:__ZN2UI15ClearCanvasDataER8JobFenceRNS_10CanvasDataE
iPd:_TypeBuilder_get_IsGenericParameter_m1751799710
$Qc:__ZN35b2SolvePositionJointConstraintsTask9QueueTaskERK8JobFence
HXb:__ZN14ManagerContext17InitializeClassesEv
NL:__ZNSt3__26__treeINS_12__value_typeIN19CloudServiceHandler11ServiceTypeEPS2_EENS_19__map_value_compareIS3_S5_NS_4lessIS3_EELb1EEE13stl_allocatorIS5_L18MemLabelIdentifier88ELi16EEE25__emplace_unique_key_argsIS3_JRKNS_21piecewise_construct_tENS_5tupleIJRKS3_EEENSI_IJEEEEEENS_4pairINS_15__tree_iteratorIS5_PNS_11__tree_nodeIS5_PvEEiEEbEERKT_DpOT0_
Sw:__ZN19StreamedBinaryWriteILb0EE21TransferSTLStyleArrayINSt3__26vectorI14ConstantStringNS2_9allocatorIS4_EEEEEEvRT_17TransferMetaFlags
Lkb:__ZN18StreamedBinaryReadILb1EE21TransferSTLStyleArrayI31ArrayOfManagedObjectsTransfererEEvRT_17TransferMetaFlags
F3f:_Selectable_get_spriteState_m1246443483
r$h:_Collection_1_System_Collections_ICollection_CopyTo_m787979241_gshared
n9h:_ReadOnlyCollection_1_System_Collections_Generic_ICollectionU3CTU3E_Clear_m1551418550_gshared
yzk:dynCall_viiiiiiiiii
jfd:_t1_hints_open
gTe:_MonoType_get_AssemblyQualifiedName_m2662925380
pwf:_GUILayer_INTERNAL_CALL_HitTest_m1069802956
Wgg:_BigInteger_GenerateRandom_m3872771375
zMi:__Z75RuntimeInvoker_RuntimeObject_Single_t1397266774_RuntimeObject_RuntimeObjectPFvvEPK10MethodInfoPvPS4_
Yz:__ZN4FMOD7Channel11getUserDataEPPv
uQi:_Array_swap_TisBoolean_t97287965_TisBoolean_t97287965_m1115288271_gshared
Fad:_UNITY_tt_face_load_gasp
J5f:_Text_set_fontSize_m3617617524
R4c:_ft_ansi_stream_close
om:_JS_Sound_SetPitch
tTh:_Thread_FreeLocalSlotValues_m1195763560
Lxg:_String_IndexOf_m1977622757
Z2j:_il2cpp_runtime_invoke_convert_args
RDd:_TouchInputModule_Process_m3715678669
Voi:__Z114RuntimeInvoker_Int32_t2950945753_RuntimeObject_Int32_t2950945753_Int32_t2950945753_RuntimeObject_Int32_t2950945753PFvvEPK10MethodInfoPvPS4_
GNg:_ArrayList__cctor_m3052737821
XV:__ZN4core8hash_mapIiP4RTTIN11TypeManager27HashFunctorPersistentTypeIDENSt3__28equal_toIiEEE6insertERKiRKS2_
U6j:__ZN6il2cpp6icalls8mscorlib6System2IO6MonoIO11GetFileStatEP12Il2CppStringPNS3_8FileStatEPi
T4a:__ZN9GfxDevice33InsertCustomMarkerCallbackAndDataEPFviPvEiS0_j
YKb:__ZNK9ShaderLab9IntShader6GetTagE11ShaderTagIDb
BQb:__Z25CalculateShadowCasterCullbPK5PlaneRK10Matrix4x4fRK8Vector3fff9LightTypeS7_R16ShadowCasterCullPKb
Oaa:__ZN9Scripting11UnityEngine8EnumInfo12CleanupProxyEv
Dkd:__ZN2UI14CanvasRenderer11SetMaterialEP8Materiali
lzg:_String__ctor_m229724522
C8d:__ZL54AssemblyName_t270931938_CustomAttributesCacheGeneratorP21CustomAttributesCache
pua:__ZNK13RenderTexture37IsBoundMultisampledOnSecondaryTextureEv
lmk:_GC_freehblk
Ocj:_X509ExtensionCollection__ctor_m551870633
Ofc:__ZZL31RegisterRectTransformPropertiesR22GenericPropertyBindingEN32Wrapper_RectTransformAnchorMinx013GetFloatValueEPv
a0e:_MethodBuilder_MakeGenericMethod_m2175748754
WMb:__Z28RenderSceneShaderReplacementRK13dynamic_arrayI16RenderObjectDataLj0EERK19SharedRendererSceneP6ShaderRKN4core12basic_stringIcNS9_20StringStorageDefaultIcEEEER17ShaderPassContext
Sij:_QuickSearch_Search_m3063517397
ued:_ft_var_get_value_pointer
Jd:_glClearColor
dqc:__ZN9Scripting35DestroyObjectFromScriptingImmediateEP6Objectb
_Jg:_AsyncCallback_Invoke_m3156993048
tUb:__ZNK6Camera48AreVRStereoViewMatricesWithinSingleCullToleranceEv
JTc:__ZN13SliderJoint2D8TransferI24GenerateTypeTreeTransferEEvRT_
pzh:_SymmetricTransform_FinalDecrypt_m1677319445
HZg:_Int32_Equals_m3996243976_AdjustorThunk
x2b:__ZN24GenerateTypeTreeTransfer8TransferINSt3__26vectorIN9ShaderLab20SerializedSubProgram12UAVParameterENS1_9allocatorIS5_EEEEEEvRT_PKc17TransferMetaFlags
sc:invoke_iiiiiiiiiiiiiii
ihk:__ZN6il2cpp2os6Thread33UnregisterCurrentThreadForCleanupEv
QIk:_emscripten_glIsRenderbuffer__wrapper
V9c:_otv_Coverage_get_first
R0g:_DirectoryInfo__ctor_m1000259829
zla:__ZNK20IntermediateRenderer8GetLayerEv
tTg:_CultureInfo_ConstructInvariant_m3774343375
aJb:__ZN10Instancing10SetKeywordER16ShaderKeywordSetNS_7KeywordE
FDa:__ZN15QualitySettings8TransferI14SafeBinaryReadEEvRT_
_Ig:_Array_ClearInternal_m532048538
Faj:_RIPEMD160Managed_HashCore_m2350629432
n8g:_DateTime__ctor_m12900168
wii:_IndexedSet_1_Insert_m1432638049_gshared
S2f:_ScrollRect_CalculateOffset_m927043599
hSi:_Array_FindLast_TisRuntimeObject_m1088586648_gshared
k_f:_Mask_GetModifiedMaterial_m2692272647
cpd:__ZN9Scripting11UnityEngine14RemoteSettings12CleanupProxyEv
hrc:__Z44Register_UnityEngine_RenderTexture_get_widthv
Fsf:_CullingGroup_t2096318768_marshal_pinvoke_back
ybk:__ZNSt3__26vectorIN6il2cpp2vm5Image20EmbeddedResourceDataENS_9allocatorIS4_EEE21__push_back_slow_pathIS4_EEvOT_
wrk:__ZN6il2cpp2os9FastMutexD2Ev
dqj:_GUIUtility_EndGUIFromException_m3524906492
IT:__ZN14SerializedFile10ReadObjectEx18ObjectCreationModebPPK8TypeTreePbR6Object
Ykj:_Expression_GetFixedWidth_m945658
f$i:_List_1_RemoveAll_m818254423_gshared
Dlj:_Literal_Compile_m2228022079
$ub:__ZN14dynamic_bitset6resizeEjb
Eed:_tt_property_get
Njh:_Array_InternalArray__ICollection_Contains_TisSlot_t3975888750_m58971838_gshared
XJ:__ZN11UnityEngine15CloudWebService10RestClientINS0_23WebRequestRestHeaderMapEE7SetDataEPKhj
xKj:__ZN14dense_hash_mapI10KeyWrapperIPK11Il2CppClassEPKcN6il2cpp5utils11PointerHashIS1_EENS4_14EqualsComparerINSt3__28equal_toIS3_EEEENSC_9allocatorINSC_4pairIKS4_S6_EEEEE15set_deleted_keyERSI_
o2a:__ZN9GfxDevice34SetStencilRefWhenStencilWasSkippedEi
Pbg:_X509Certificate2_Reset_m3988214799
rc:invoke_fi
mqk:__ZN6il2cpp6icalls8mscorlib6System10Reflection4Emit11TypeBuilder20create_runtime_classEP27Il2CppReflectionTypeBuilderS7_
QO:__ZL21InternalAssertConsolePKcz
pc:invoke_ff
Iyh:_RSAManaged_add_KeyGenerated_m3688329863
rhf:_Enumerator_get_CurrentKey_m3735262888_gshared
NSf:_HashAlgorithm_TransformFinalBlock_m3005451348
FXg:_Guid_NewGuid_m923091018
Cd:_emscripten_glVertexAttrib3f
kYj:__ZN30dense_hashtable_const_iteratorINSt3__24pairIK10KeyWrapperINS1_IPK11Il2CppImageP11Il2CppClassEEEjEES9_17ReflectionMapHashIS8_EN14dense_hash_mapIS9_jSD_NS9_14EqualsComparerINS0_8equal_toIS8_EEEENS0_9allocatorISB_EEE9SelectKeyESI_SK_EppEv
blk:__ZThn8_N6il2cpp2vm13CachedCCWBaseINS0_13ManagedObjectEE7DestroyEv
ctg:_RSAPKCS1SignatureDeformatter_SetKey_m614724234
_Rc:__ZN35b2SolveDiscreteIslandVelocitiesTask7TaskJobEPS_j
JQh:_UnicodeEncoding_GetByteCount_m3498858619
ATh:_Thread_GetSerializedCurrentUICulture_m3681656498
Oih:_Enum_ToObject_m26687919
Chi:_UnityEvent_1_FindMethod_Impl_m555893253_gshared
P2c:__ZN20TextRenderingPrivate8TextMesh11ApplyToMeshEv
Tkh:_Array_InternalArray__ICollection_Remove_TisSlot_t384495010_m635565498_gshared
eCk:_emscripten_glDrawRangeElements__wrapper
kRc:__ZN39b2SolveDiscreteIslandIntegratePosesTask9QueueTaskERK8JobFence
eka:__Z28scripting_class_is_valuetype17ScriptingClassPtr
f8:__ZN9Scripting11UnityEngine9Rendering13CommandBuffer9InitProxyEv
d_b:__ZNSt3__25dequeI10InputEventNS_9allocatorIS1_EEE19__add_back_capacityEv
QNa:__ZN14BlendShapeDataD2Ev
vBb:__ZL18ProgramUniform3uivPK7ApiGLESjiihPKv
waj:_RijndaelTransform_Encrypt128_m1940909042
nSe:_MonoEnumInfo_get_Cache_m752167006
xkd:__Z47CanvasRenderer_Set_Custom_PropHasPopInstructionP12Il2CppObjecth
Cyf:_Mesh_get_uv3_m3614955461
DCa:__ZN5Image8SetImageEii13TextureFormatb
eV:__ZN17MessageIdentifier21GetRegisteredMessagesEv
afk:__ZN6il2cpp2vm5Array3NewEP11Il2CppClassj
j6e:_InternalEnumerator_1_get_Current_m3900374024_gshared
Zgj:_DelegatePInvokeWrapper_CostDelegate_t1722821004
HPg:_SynchronizedArrayListWrapper_CopyTo_m2886332653
w6f:_HybridDictionary_Remove_m2295600623
lak:__GLOBAL__sub_I_Image_cpp
dug:_SHA512Managed__ctor_m330347986
Sxa:__ZNSt3__27__sort5IRPFbRKNS_4pairIN9ShaderLab16FastPropertyNameEfEES6_EPS4_EEjT0_SB_SB_SB_SB_T_
pOh:_List_1_CheckMatch_m1934407508_gshared
Ddj:_TlsStream_Write_m188217214
bsk:__ZNSt3__26vectorINS_12basic_stringIDsNS_11char_traitsIDsEENS_9allocatorIDsEEEENS4_IS6_EEE8__appendEj
pvh:_Kernel_LeftShift_m3302851050
sik:__ZN14dense_hash_mapI10KeyWrapperIPK19Il2CppGenericMethodEP10MethodInfoN6il2cpp8metadata23Il2CppGenericMethodHashENS4_14EqualsComparerINS8_26Il2CppGenericMethodCompareEEENSt3__29allocatorINSD_4pairIKS4_S6_EEEEE15set_deleted_keyERSG_
Rcb:__Z29Transfer_Blittable_ArrayFieldI14SafeBinaryRead4AABBEvRT_R9ArrayInfoRK23StaticTransferFieldInfo
QEc:__ZN8JSONRead21TransferSTLStyleArrayI13dynamic_arrayI8Vector4fLj0EEEEvRT_17TransferMetaFlags
dod:__ZN14UnityAnalytics15SendCustomEventEPN11UnityEngine9Analytics15UserCustomEventE
Nqg:_RecordProtocol_SendRecord_m515492272
UXd:_ConfigHandler_ReadProvider_m3620509535
ZGj:_UnityAnalyticsHandler_Internal_Destroy_m2102025341
gHe:__ZL56g_UnityEngine_UI_Assembly_CustomAttributesCacheGeneratorP21CustomAttributesCache
hbc:__Z46Register_UnityEngine_RectOffset_get_horizontalv
uya:__ZN18DelayedCallManager8ClearAllEv
smi:__Z180RuntimeInvoker_RuntimeObject_RuntimeObject_Int32_t2950945753_RuntimeObject_Int32U26_t1369213839_BooleanU26_t4125257963_BooleanU26_t4125257963_Int32U26_t1369213839_SByte_t1669577662PFvvEPK10MethodInfoPvPS4_
Bsc:__Z22Mesh_CUSTOM_HasChannelP12Il2CppObject30InternalScriptingShaderChannel
Nig:_ASN1Convert_ToInt32_m2228176117
$Cj:_CanvasGroup_get_interactable_m1362547832
WRb:__ZNK25RenderPrePassObjectSorterclERK16RenderObjectDataS2_
VUd:_ResourceSet_Dispose_m1823973062
cdf:_InternalEnumerator_1_System_Collections_IEnumerator_get_Current_m3537550566_AdjustorThunk
Wkb:__Z22TransferField_NonArrayI18StreamedBinaryReadILb1EE27Converter_SimpleNativeClassI8GUIStyleEEvRK23StaticTransferFieldInfoR31RuntimeSerializationCommandInfoRT0_
hkg:_EncryptedPrivateKeyInfo__ctor_m25839594
Mpe:__ZL81Mesh_t3648964284_CustomAttributesCacheGenerator_Mesh_get_subMeshCount_m3992802841P21CustomAttributesCache
B_f:_MaskableGraphic_OnEnable_m846302383
QCb:__Z13IsFloatFormat14GraphicsFormat
KKe:__ZL84GraphicRaycaster_t2999697109_CustomAttributesCacheGenerator_m_IgnoreReversedGraphicsP21CustomAttributesCache
S$e:_MethodBuilder_Invoke_m3837446660
r8h:_ReadOnlyCollection_1_System_Collections_IList_Clear_m12445504_gshared
bdk:__ZN6il2cpp2gcL12alloc_handleEPNS0_10HandleDataEP12Il2CppObjectb
_Hf:_Transform_get_worldToLocalMatrix_m399704877
ihj:_Enumerator_MoveNext_m55255603
xse:__ZL57SpaceAttribute_t3956583069_CustomAttributesCacheGeneratorP21CustomAttributesCache
bag:_WebRequest_AddDynamicPrefix_m4246631209
sqh:_Array_InternalArray__ICollection_Add_TisRefEmitPermissionSet_t484390987_m1720891963_gshared
gW:__ZL16ReadTypeTreeImplILb1EEbR8TypeTreeRK16TypeTreeIteratorRPKhS6_i
drk:__ZN6il2cpp6icalls8mscorlib6System11Diagnostics10StackTrace9get_traceEP15Il2CppExceptionib
b1e:_Action_3_Invoke_m1376317295_gshared
Nof:_Dictionary_2_set_Item_m3327106492_gshared
Ie:_glBlendEquationSeparate
ym:_emscripten_glDeleteVertexArrays
kyb:__ZN13GfxDeviceGLES17SetComputeUniformE12ObjectHandleI18ComputeProgram_TagPvER18ComputeShaderParamjPKv
xHk:b95
Njj:_Parser_IsNameChar_m698176442
EVi:_List_1_RemoveAt_m3459335427_gshared
hEe:__ZL96Rigidbody2D_t939494601_CustomAttributesCacheGenerator_Rigidbody2D_AddTorque_m3570114758____mode1P21CustomAttributesCache
dIk:_emscripten_glValidateProgram__wrapper
Doc:__ZN13MeshScripting27PrintErrorCantAccessChannelEPK4Mesh30InternalScriptingShaderChannel
tJf:_Vector3_get_sqrMagnitude_m1474274574_AdjustorThunk
Zdj:_GeneralNames_ToString_m489778282
Pe:_emscripten_glUniform3fv
wkh:_Array_InternalArray__ICollection_Contains_TisRaycastHit2D_t2279581989_m2733133723_gshared
h7g:_Convert_ToByte_m1442000130
Dsg:_RSACryptoServiceProvider_get_KeySize_m2654153358
P7j:__ZN6il2cpp2vm9Exception20GetArgumentExceptionEPKcS3_
BFc:__Z29Transfer_Blittable_ArrayFieldI8JSONReadiEvRT_R9ArrayInfoRK23StaticTransferFieldInfo
QMh:_Enumerator_MoveNext_m625797905_AdjustorThunk
mGk:_glDrawArrays__wrapper
KG:__ZN9AudioClip27IsFormatSupportedByPlatformERKN4core12basic_stringIcNS0_20StringStorageDefaultIcEEEE
h7a:__ZN16GeometryJobTasks20ScheduleGeometryJobsER9GfxDevicePFvP15GeometryJobDataEPK22GeometryJobInstructionjb
k2b:__ZN9ShaderLab26SerializedShaderDependency8TransferI24GenerateTypeTreeTransferEEvRT_
Jfi:_InvokableCall_3_Invoke_m3141788616_gshared
xij:_PatternCompiler_EmitUntil_m3644194775
Vad:_UNITY_FT_Match_Size
Xxh:_KeyPairPersistence_ToXml_m812591779
MSe:_MonoType_GetFields_internal_m776921855
xqd:__ZN11UnityEngine7Connect14AppUpdateEventC2Ev
qUd:_ResourceReader_Dispose_m3597121875
Nja:__ZN12ImageFilters17RemoveImageFilterERK11ImageFilter
sqf:_BootConfigData__ctor_m4255151374
VBf:_PlayerConnectionInternal_UnityEngine_IPlayerEditorConnectionNative_RegisterInternal_m1817895617
g3e:_InternalEnumerator_1_get_Current_m3073360606_AdjustorThunk
Xkk:__ZThn4_N6il2cpp2vm13ManagedObject14QueryInterfaceERK10Il2CppGuidPPv
U4a:__ZN9GfxDevice31InsertCustomBlitCallbackAndDataEPFviPvER33UnityRenderingExtCustomBlitParams
SFb:__Z32AddPathRemapsForBuiltinResourcesRKN4core12basic_stringIcNS_20StringStorageDefaultIcEEEE
Hra:__ZN14RenderSettings23VirtualRedirectTransferER24GenerateTypeTreeTransfer
bzk:dynCall_vdd
heb:__ZL26Transfer_SimpleNativeClassI17RemapPPtrTransfer17AnimationCurveTplIfELb0EEvRK29SerializationCommandArgumentsR31RuntimeSerializationCommandInfo
FAi:__Z82RuntimeInvoker_Single_t1397266774_RuntimeObject_TextGenerationSettings_t1351628751PFvvEPK10MethodInfoPvPS4_
bVf:_InputField_set_caretWidth_m707310868
Am:_glDeleteTransformFeedbacks
Lci:_U3CCreateWhereIteratorU3Ec__Iterator1D_1_MoveNext_m612748497_gshared
uf:_JS_WebRequest_Send
elk:__ZN6il2cpp2os4Time31GetTicks100NanosecondsMonotonicEv
Whk:__ZNSt3__26__treeINS_12basic_stringIcNS_11char_traitsIcEENS_9allocatorIcEEEENS_4lessIS6_EENS4_IS6_EEE16__construct_nodeIJRKS6_EEENS_10unique_ptrINS_11__tree_nodeIS6_PvEENS_22__tree_node_destructorINS4_ISH_EEEEEEDpOT_
Q0g:_MonoIO_GetFileSystemEntries_m37351365
Mah:_Convert_ToSByte_m516918950
yzf:_MonoBehaviour_print_m330341231
PEf:_ReapplyDrivenProperties_Invoke_m1151937880
vaj:_RijndaelTransform_ECB_m670662322
IQj:__ZN6il2cpp2vm13MetadataCache21GetFieldInfoFromIndexEj
BBe:__ZL62EventType_t3528516131_CustomAttributesCacheGenerator_mouseDragP21CustomAttributesCache
NKg:_Boolean_System_IConvertible_ToDouble_m2859188631_AdjustorThunk
SH:__ZN5physx14PxLightCpuTaskD2Ev
Zq:__ZNSt3__26vectorIN4core12basic_stringIcNS1_20StringStorageDefaultIcEEEENS_9allocatorIS5_EEE6assignINS_11__wrap_iterIPS5_EEEENS_9enable_ifIXaasr21__is_forward_iteratorIT_EE5valuesr16is_constructibleIS5_NS_15iterator_traitsISE_E9referenceEEE5valueEvE4typeESE_SE_
iFf:_Vector2_get_zero_m540426400
A1j:_il2cpp_init
mri:__Z105RuntimeInvoker_RuntimeObject_RuntimeObject_StreamingContext_t3711869237_ISurrogateSelectorU26_t3801502798PFvvEPK10MethodInfoPvPS4_
Rhd:__ZNSt3__26__treeIPN2UI14CanvasRendererENS_4lessIS3_EENS_9allocatorIS3_EEE7destroyEPNS_11__tree_nodeIS3_PvEE
kNc:__Z20b2TestSegmentSegmentRK6b2Vec2S1_S1_S1_RS_Rf
UMb:__ZL25UpdateCameraDepthTexturesRK17RenderLoopContextP13RenderTextureS3_RK13dynamic_arrayI16RenderObjectDataLj0EEbbbR17ShaderPassContext
oxb:__ZN13GfxDeviceGLES22UploadTextureSubData2DE9TextureIDPKhiiiiii14GraphicsFormat
mXc:__ZN10ClipperLib13CleanPolygonsERNSt3__26vectorINS1_INS_8IntPointENS0_9allocatorIS2_EEEENS3_IS5_EEEEd
ief:_DefaultComparer_Compare_m3648806637_gshared
_tc:__Z35Register_UnityEngine_Screen_get_dpiv
V0c:__ZN13SpeedTreeWind7AdvanceEbd
OQf:_SByte_ToString_m2762508873_AdjustorThunk
VNj:__ZN15dense_hashtableINSt3__24pairIK10KeyWrapperIN6il2cpp5utils13dynamic_arrayIPK10Il2CppTypeLj4EEEEPFvvEEESA_NS3_8metadata19Il2CppSignatureHashEN14dense_hash_mapISA_SD_SG_NSA_14EqualsComparerINSF_22Il2CppSignatureCompareEEENS0_9allocatorISE_EEE9SelectKeyESK_SM_E12expand_arrayEjN21dense_hash_map_traits17integral_constantIbLb0EEE
goh:_Array_FindLastIndex_TisRuntimeObject_m2929523835_gshared
Ncc:__ZN9Transform16SetLocalPositionERK8Vector3f
L_b:__ZN10BootConfig4Data12InitFromFileEPPKcjS2_
WFc:__ZL62__ManagedRegistrationHelperFunction_ParticleSystemVertexStreamPv
cB:__ZN12SoundManagerC2Ev
Dad:_UNITY_tt_face_free_name
XGj:_UnityAnalyticsHandler_Finalize_m1527596444
K6c:_cff_random
RBb:__ZN14DataBufferGLES3MapEjjj
Mo:FUNCTION_TABLE_fidi
aLa:__ZN14SpriteRenderer23VirtualRedirectTransferER19StreamedBinaryWriteILb0EE
v4:__ZL77__ManagedRegistrationHelperFunction_NativeContainerIsAtomicWriteOnlyAttributePv
n2e:_ArrayReadOnlyList_1_Contains_m2459654648_gshared
via:__ZNK6Camera33CalculateFarPlaneWorldSpaceLengthEv
Ryd:_BaseInput_GetButtonDown_m3789908809
E_i:_List_1_System_Collections_IList_Insert_m2401407093_gshared
KZe:_EnumBuilder_get_BaseType_m1707640163
iYj:__ZNK15dense_hashtableINSt3__24pairIK10KeyWrapperINS1_IPK11Il2CppImageP11Il2CppClassEEEjEES9_17ReflectionMapHashIS8_EN14dense_hash_mapIS9_jSD_NS9_14EqualsComparerINS0_8equal_toIS8_EEEENS0_9allocatorISB_EEE9SelectKeyESI_SK_E5beginEv
w6c:_cf2_stack_setReal
kw:__ZL60__ManagedRegistrationHelperFunction_MeshReconstructionConfigPv
ky:__ZN4FMOD3DSP8getInputEiPPS0_PPNS_13DSPConnectionE
LV:__ZN20dynamic_block_vectorI14FileIdentifierE5clearEv
mVe:_NumberFormatter_NumberToString_m2529982306
ZD:__ZN13AudioListenerD2Ev
Fgd:_UNITY_FT_Done_Library
prk:__ZN6il2cpp2os5MutexC2Eb
Qej:_PKCS12__cctor_m3271060407
Fff:_Comparer_1__cctor_m2282308543_gshared
Tld:__ZN2UI13CanvasManager17EmitDataForCameraEP6Camera
zNc:__Z16b2CollideCirclesP10b2ManifoldPK13b2CircleShapeRK11b2TransformS3_S6_
cjg:_ARC4Managed_CheckInput_m1562172012
JLh:_Enumerator_MoveNext_m4018122760_gshared
TGj:_CustomEventData_Dispose_m4023815755
Acj:_TlsStream_ReadBytes_m2334803179
Cck:__ZNK15dense_hashtableI10KeyWrapperIP18Il2CppGenericClassES3_N6il2cpp8metadata22Il2CppGenericClassHashEN14dense_hash_setIS3_S6_NS3_14EqualsComparerINS5_25Il2CppGenericClassCompareEEENSt3__29allocatorIS3_EEE8IdentityESA_SD_E23find_position_with_hashERKS3_j
ctc:__Z44Register_UnityEngine_Material_GetTextureImplv
_9h:_ReadOnlyCollection_1_System_Collections_IList_Add_m2445024939_gshared
Ysf:_Debug_Log_m4051431634
DGk:_glUniform3uiv__wrapper
Y1g:_FileStream_EndRead_m3904255625
isb:__ZL8MainLoopv
h6b:__ZN17TransformInternal25CopyTransformSubhierarchyER18TransformHierarchyjS1_yyjb
Oze:__ZL59AnimatorStateInfo_t509032636_CustomAttributesCacheGeneratorP21CustomAttributesCache
v_d:_CallContextRemotingData_Clone_m14303327
ild:__Z47Register_UnityEngine_CanvasRenderer_SetMaterialv
SIk:_emscripten_glIsShader__wrapper
RGc:__ZN11UnityEngine9Analytics16StartupTimeEvent23SetAssembliesTimingInfoEyy
uFj:_Collider2D_IsTouchingLayers_m3205548484
SHc:__ZN7Joint2D7CleanupEb
rUc:__ZN19CompositeCollider2D22QueryCompositeColliderEPK10Collider2DPK11Rigidbody2D
pxh:_DSAManaged_get_PublicOnly_m3575594967
Ava:__ZN9ShaderLabL15GetSizedTextureEPK6CameraRKNS_16FastPropertyNameEbbRb
chd:__Z26CleanupTextRenderingModulev
cva:__ZN7TextureD0Ev
fE:__ZN13AudioListener23VirtualRedirectTransferER24GenerateTypeTreeTransfer
mZa:__ZNK12HandlerChain9EnumerateEPKcP19dynamic_block_arrayI13FileEntryInfoLj32EEbPPv19FileEnumerationFlag
oOa:__ZThn32_N12MeshRendererD1Ev
Xta:__ZN13RenderTexture23VirtualRedirectTransferER19StreamedBinaryWriteILb0EE
_jk:__ZN6il2cpp2vm13ComObjectBase17GetMarshalSizeMaxERK10Il2CppGuidPvjS5_jPj
owk:_truncate
Z2b:__ZN9ShaderLab27SerializedShaderVectorValue8TransferI18StreamedBinaryReadILb0EEEEvRT_
EEa:__ZN8Renderer21RendererBecameVisibleEv
H8a:__ZN10Instancing11DrawAPIArgsD2Ev
_Q:__ZN10MemoryPool16StaticInitializeEPv
J0:__ZN11TypeManager21CleanupGlobalInstanceEv
Xih:_Enum_ToString_m2240012010
N:Math_atan
ya:invoke_iifii
lA:__ZNK10SampleClip11GetResourceEv
jRd:_MonoEvent_get_Name_m3774595291
w2a:__ZN9GfxDevice15GetStereoMatrixE21MonoOrStereoscopicEye24BuiltinShaderMatrixParamR10Matrix4x4f
b0a:__ZN4core12basic_stringIcNS_20StringStorageDefaultIcEEE6resizeEj
Lvc:__Z43Register_UnityEngine_Event_set_displayIndexv
DTc:__ZN13SliderJoint2D23VirtualRedirectTransferER14SafeBinaryRead
w$c:__GLOBAL__sub_I_CmEventProfiler_cpp
cAi:__Z128RuntimeInvoker_RuntimeObject_RuntimeObject_SByte_t1669577662_SByte_t1669577662_SByte_t1669577662_SByte_t1669577662_RuntimeObjectPFvvEPK10MethodInfoPvPS4_
TQh:_UnicodeEncoding_GetMaxByteCount_m3053620432
b_d:_ArgInfo__ctor_m1950205784
Yci:_Nullable_1_Equals_m4046255732_AdjustorThunk
Jga:__ZN17GlobalGameManager23VirtualRedirectTransferER24GenerateTypeTreeTransfer
Nrd:__ZN19UnityConnectServiceD0Ev
xtj:_ToggleGroup_ValidateToggleIsInGroup_m3201190739
AUj:__ZN6il2cpp2vm7Runtime17GetDelegateInvokeEP11Il2CppClass
CSd:_MonoProperty_get_PropertyType_m4138957578
sN:___cxx_global_var_init_123
ird:__ZN11UnityEngine15PlatformWrapper21GetCopyTextureSupportEv
edh:_DateTime_get_Month_m1566006993_AdjustorThunk
tjh:_Array_get_swapper_TisRaycastResult_t3360306849_m1267000905_gshared
Mrg:_SslClientStream__ctor_m3478574780
oG:__ZN11AudioModule27IsFormatSupportedByPlatformEPKc
y3c:_UNITY_FT_Render_Glyph
eZe:_DerivedType_GetFields_m3190137327
nSc:__Z14b2PairLessThanRK6b2PairS1_
Wzd:_EventSystem_OnDisable_m3820258344
XAa:__ZN9Texture2D5ResetEv
tFc:__Z19TransferField_ArrayI8JSONRead16Converter_StringEvRK23StaticTransferFieldInfoR31RuntimeSerializationCommandInfoRT0_
ATf:_MACTripleDES_Setup_m560957914
Nic:__ZZN10MeshFilter15InitializeClassEvEN31FunctorImpl_108kDidAddComponent4CallEPviR11MessageData
p$c:__Z46Register_UnityEngine_WheelJoint2D_set_useMotorv
sOj:__ZN15dense_hashtableINSt3__24pairIK10KeyWrapperIPK19Il2CppGenericMethodEPK26Il2CppGenericMethodIndicesEES6_N6il2cpp8metadata23Il2CppGenericMethodHashEN14dense_hash_mapIS6_SA_SE_NS6_14EqualsComparerINSD_26Il2CppGenericMethodCompareEEENS0_9allocatorISB_EEE9SelectKeyESI_SK_E6insertERKSB_
UKc:__ZN15b2WheelJointDef10InitializeEP6b2BodyS1_RK6b2Vec2S4_
dSb:__Z19SetupShadowCullDataRK27ScriptableCullingParametersRK17ShaderReplaceDataPK22SceneCullingParametersf16ShadowProjectionR14ShadowCullData
A7:__ZN9Scripting11UnityEngine14UnityException12CleanupProxyEv
D5c:_cff_size_request
Uid:__ZN2UI11CompareFuncEPNS_6CanvasES1_
Rz:__ZN4FMOD7Channel11set3DSpreadEf
Lrk:__ZN6il2cpp2os6Memory14AlignedReAllocEPvjj
Vof:_Dictionary_2_Resize_m1156965638_gshared
rfd:_pshinter_get_t1_funcs
Xza:__ZN24GenerateTypeTreeTransfer16TransferTypelessEPjPKc17TransferMetaFlags
uph:_Array_InternalArray__IndexOf_TisPlayableBinding_t354260709_m3544096311_gshared
wBb:__ZL18ProgramUniform4uivPK7ApiGLESjiihPKv
MCf:_Vector3_get_normalized_m2454957984
bTh:_Mutex_CreateMutex_internal_m3763633491
eTc:__ZN11Rigidbody2D9AddTorqueEfNS_9ForceModeE
eNe:__ZL74SpriteState_t1362986479_CustomAttributesCacheGenerator_m_HighlightedSpriteP21CustomAttributesCache
Zra:__ZN10builtintex21GetAttenuationTextureEv
on:FUNCTION_TABLE_viiiiiiiiiiiiiii
eoc:__ZNK4Mesh19CanAccessFromScriptEv
dda:__ZN17PersistentManager43LocalSerializedObjectIdentifierToInstanceIDERK31LocalSerializedObjectIdentifierRiNS_9LockFlagsE
MQ:__Z15GetGraphicsCapsv
eDb:__ZN7ApiGLES15BindVertexArrayEN2gl6HandleILNS0_10ObjectTypeE3EEE
Qzh:_Dictionary_2_System_Collections_IDictionary_Remove_m316877720_gshared
PLb:__Z20IntersectionAABBAABBRK10MinMaxAABBS1_PS_
Xfc:__ZZL31RegisterRectTransformPropertiesR22GenericPropertyBindingEN32Wrapper_RectTransformSizeDeltax013SetFloatValueEPvf
Nbj:_SslStreamBase_get_SecurityProtocol_m596101988
f1j:__ZNSt3__212basic_stringIcNS_11char_traitsIcEENS_9allocatorIcEEE6__initIPKcEENS_9enable_ifIXsr21__is_forward_iteratorIT_EE5valueEvE4typeESA_SA_
nvi:__Z121RuntimeInvoker_Void_t1185182177_Int32_t2950945753_Int32_t2950945753_Int32_t2950945753_Int32_t2950945753_Int32_t2950945753PFvvEPK10MethodInfoPvPS4_
Ced:_ft_var_load_item_variation_store
_Dg:_DeriveBytes_set_Salt_m441577179
Yhi:_UnityEvent_3_FindMethod_Impl_m1640458315_gshared
D7d:__ZL61ConstructorBuilder_t2813524108_CustomAttributesCacheGeneratorP21CustomAttributesCache
u9a:__Z18Transfer_BlittableI14SafeBinaryReadLb1EhEvRK29SerializationCommandArgumentsR31RuntimeSerializationCommandInfo
L5f:_Text_get_verticalOverflow_m2420459396
x1:__ZNSt3__224__buffered_inplace_mergeIRNS_4lessIN4core12basic_stringIcNS2_20StringStorageDefaultIcEEEEEENS_11__wrap_iterIPS6_EEEEvT0_SC_SC_T_NS_15iterator_traitsISC_E15difference_typeESG_PNSF_10value_typeE
a6d:__ZL51HashKeys_t1568156503_CustomAttributesCacheGeneratorP21CustomAttributesCache
BLb:__ZNK6Camera19GetStereoSeparationEv
ZS:__Z22DestroyObjectHighLevelP6Objectb
xKc:__ZNK12b2MouseJoint10GetAnchorBEv
hMb:__Z26BeginRenderQueueExtractionR15RenderNodeQueuePK16RendererCullDataRK13CullingOutputPK12LODDataArray15ExtractionFlagsP18JobBatchDispatcher
f3c:__ZNK13TextRendering4Font10GetTextureEv
sj:_emscripten_glVertexAttrib3fv
a_d:_LifetimeServices__cctor_m2128864873
QFf:_ScriptableObject_CreateScriptableObjectInstanceFromType_m2783367459
mYh:_UInt16_TryParse_m3193697465
u6j:__ZN6il2cpp6icalls8mscorlib6System9Threading6Thread16SetName_internalEP12Il2CppThreadP12Il2CppString
wj:_glBeginTransformFeedback
ngh:_Decimal_op_Division_m2407964042
LVf:_InputField_get_asteriskChar_m965956856
Osa:__ZN18JobBatchDispatcherC2E11JobPriorityi
kLa:__ZThn32_N14SpriteRendererD0Ev
ISf:_HashAlgorithm_Create_m644612360
iXc:__ZN23ColliderTilingExtension10IsTilingOnEv
dBf:_Playable_get_Null_m3556999077
Suh:_BigInteger_TestBit_m1507066813
Zvc:__ZN8GUIStyle14GetBuiltinFontEv
v4a:__ZN9GfxDevice13EndFrameStatsEv
Cjc:__Z7Empty2DP9Texture2DPhiiii
RNi:_Array_InternalArray__set_Item_TisRefEmitPermissionSet_t484390987_m3786305619_gshared
J3j:__ZN6il2cpp2vm6Thread16RequestInterruptEP12Il2CppThread
qx:__ZL34StaticDestroyAudioCustomFilterRootPv
$1e:_ArrayReadOnlyList_1_GetEnumerator_m3931906247_gshared
B8:__ZN9Scripting11UnityEngine9Profiling7Sampler9InitProxyEv
oWa:__ZN19ComputeShaderKernelD2Ev
nKa:__ZN10DynamicVBO9DrawChunkERK21DynamicVBOChunkHandleP17VertexDeclarationPKNS_10DrawParamsEi
RIj:__ZN6il2cpp2vmL17SetupEventsLockedEP11Il2CppClassRKNS_2os12FastAutoLockE
mcc:__ZN10systeminfo21GetTemporaryCachePathEv
Qrj:_AnalyticsEventTracker_Start_m1087627554
CNc:__ZNK20b2SeparationFunction17FindMinSeparationEPiS0_f
aMd:_GridLayoutGroup_CalculateLayoutInputVertical_m357562599
vSh:_CompressedStack_Capture_m3327262890
lQh:_StringBuilder_Replace_m1968561789
MZc:__ZN13ProduceHelperI17Physics2DSettingsLb0EE7ProduceE10MemLabelId18ObjectCreationMode
KOc:__ZL32CleanupPhysics2DScriptingClassesv
gDd:_StandaloneInputModule_get_repeatDelay_m1143359059
iSh:_UTF8Encoding_GetMaxByteCount_m420651053
Kze:__ZL73AnimationMotionXToDeltaPlayable_t272231551_CustomAttributesCacheGeneratorP21CustomAttributesCache
QBc:__ZN9JSONWrite8TransferI10Matrix4x4fEEvRT_PKc17TransferMetaFlags
g7c:_cf2_hintmap_map
xdh:_DateTime_Compare_m2855073242
NVi:_List_1_get_Item_m1651423686_gshared
mWh:_Type_get_IsExplicitLayout_m1182254884
Ccb:__ZN15SerializeTraitsI5RectTIfEE8TransferI14SafeBinaryReadEEvRS1_RT_
GQh:_UnicodeEncoding__ctor_m3604373700
crc:__Z41Register_UnityEngine_Texture_get_wrapModev
H4c:_UNITY_FT_Raccess_Get_DataOffsets
q$:__ZN13PlayableGraph18DisableMultithreadEv
UEa:__ZThn32_NK8Renderer11GetMaterialEi
KHd:_FloatTween_AddOnChangedCallback_m2814315272
ylk:__ZN6il2cpp6icalls8mscorlib6System7Runtime15InteropServices8GCHandle15GetTargetHandleEP12Il2CppObjectii
Arf:_CameraCallback_Invoke_m3308824940
bPa:__ZN9InputAxis8TransferI18StreamedBinaryReadILb0EEEEvRT_
Jvg:_X509Certificate_Import_m3563119820
TN:__ZN13MemoryManager12GetAllocatorE10MemLabelId
dhg:_BigInteger_ToString_m3260066955
n2a:__ZN9GfxDevice29GetMinimumNodesPerGraphicsJobEv
$ne:__ZL63RuntimePlatform_t4159857903_CustomAttributesCacheGenerator_NaClP21CustomAttributesCache
Zbi:_Func_1_Invoke_m370346740_gshared
Uec:__Z13RegisterClassI4MeshEvPKc
Ebb:__ZN14SafeBinaryRead8TransferIyEEvRT_PKc17TransferMetaFlags
j4f:_Slider__ctor_m873361617
wIc:__ZNK11Rigidbody2D20GetAttachedCollidersER13dynamic_arrayIP10Collider2DLj0EE
DPe:_SynchronizedWriter__ctor_m495278869
Zcc:__ZN2UI13RectTransform13GetWorldSpaceER8Vector3fR8Vector2f
LVd:_GCHandle__ctor_m2690474163_AdjustorThunk
R$:__ZN15DirectorManager17OnSampleFixedTimeEv
ITb:__ZNK13RendererScene21GetDynamicObjectCountEv
r9g:_Double_Parse_m1135962389
Pcj:_X509Extension__ctor_m710637961
kUg:_CultureInfo_get_CurrentCulture_m1632690660
jyh:_PKCS1_OS2IP_m65970018
Ahg:_ModulusRing_BarrettReduction_m3024442734
i6h:_ReadOnlyCollection_1_System_Collections_IList_set_Item_m70952451_gshared
wRa:__ZNSt3__26vectorIN30RuntimeInitializeOnLoadManager9ClassInfoE13stl_allocatorIS2_L18MemLabelIdentifier13ELi16EEE8__appendEj
ugb:__ZN24GenerateTypeTreeTransfer32TransferSTLStyleArrayWithElementI23ManagedObjectTransfererEEvRT_17TransferMetaFlags
nOf:_SerializationCallbacks__ctor_m3863304525
t8f:_HttpWebRequest__cctor_m1467954389
Smg:_CipherSuiteCollection_System_Collections_IList_Remove_m2463347416
Swf:_DefaultValueAttribute_GetHashCode_m3368187153
Xrk:__ZN6il2cpp6icalls8mscorlib6System7Runtime8Remoting16RemotingServices16GetVirtualMethodEP20Il2CppReflectionTypeP22Il2CppReflectionMethod
mGc:__ZN27PerformanceReportingManager19ConfigChangedStaticEPS_RKN4core12basic_stringIcNS1_20StringStorageDefaultIcEEEER8JSONReadb
m9b:__Z42Register_UnityEngine_Behaviour_get_enabledv
vbj:_SslStreamBase_EndNegotiateHandshake_m1124299797
fbj:_SslStreamBase__ctor_m3009266308
m0j:__ZN6il2cpp2vm14TypeNameParser23ParseNestedTypeOptionalERi
YSa:__ZN17PersistentManager22CheckInstanceIDsLoadedEPiiNS_9LockFlagsE
vrk:__ZN6il2cpp2os13FastMutexImplC2Ev
tRa:__ZN30RuntimeInitializeOnLoadManager9ClassInfo8TransferI14SafeBinaryReadEEvRT_
lhg:_BigInteger_op_Equality_m1194739960
DRh:_UTF7Encoding_GetCharCount_m2792854727
uw:__ZN9Scripting11UnityEngine2XR5Tango24MeshReconstructionConfig9InitProxyEv
JPb:__ZL13RenderCastersiRK8Vector3fS1_RK13ShadowJobDataR17ShaderPassContextRKNSt3__26vectorI16ShadowCasterData13stl_allocatorIS9_L18MemLabelIdentifier2ELi16EEEERKNS8_I20ShadowCasterPartDataSA_ISG_LSB_2ELi16EEEERK15RenderNodeQueuebPKj
tl:_emscripten_glGetShaderInfoLog
K5f:_Text_get_horizontalOverflow_m4155575610
YNf:_ObjectReader_RecordFixup_m4125245357
Yad:_UNITY_ft_glyphslot_set_bitmap
vXc:__ZN14b2PolygonShape3SetEPK6b2Vec2i
vRi:_Dictionary_2_Do_ICollectionCopyTo_TisRuntimeObject_m1362949338_gshared
Il:_glUniform1i
rWf:_InputField_Validate_m4147207871
Bcb:__ZN15SerializeTraitsI13dynamic_arrayI5RectTIfELj0EEE19ResizeSTLStyleArrayERS3_i
dta:__ZN6prcoreL11inner_clearILj3EEEvPhjjj
dTg:_CCGregorianCalendar_dmy_from_fixed_m494173177
LYi:_List_1_System_Collections_IList_IndexOf_m3211997095_gshared
VLg:_Byte_System_IConvertible_ToUInt64_m371883985_AdjustorThunk
kdd:_Read_CVT_Stretched
ETj:__ZN6il2cpp6icalls8mscorlib6System18CollectTypeMethodsINS_5utils10functional10TrueFilterEEEvP11Il2CppClassPKS7_jRKT_RNSt3__26vectorIPK10MethodInfoNSE_9allocatorISI_EEEERA65535_b
rsb:__Z14SetPlayerPause11PlayerPauseb
h5:__ZL48__ManagedRegistrationHelperFunction_CullingGroupPv
wQg:_CollectionBase_System_Collections_ICollection_CopyTo_m2850099809
o5h:_ReadOnlyCollection_1_System_Collections_IEnumerable_GetEnumerator_m3042843502_gshared
uDd:_StandaloneInputModule_ActivateModule_m2232892298
TVd:_GCHandle_Free_m1457699368_AdjustorThunk
DTh:_Thread_get_CurrentUICulture_m1397429997
W7c:_cff_done_blend
pLd:_Graphic_RegisterDirtyLayoutCallback_m1235519898
cS:__Z30scripting_stack_trace_info_for21ScriptingExceptionPtrR14StackTraceInfo
$If:_Vector2_op_Inequality_m3858779880
dBk:_glCompressedTexSubImage3D__wrapper
Jpa:__ZN18ShadowMapJobHeaderD0Ev
b4f:_Selectable_Select_m1465131241
QNb:__ZN15SkyboxGenerator18GetSixFaceSkyboxVBEv
JYj:__ZN15dense_hashtableINSt3__24pairIK10KeyWrapperINS1_IPK12PropertyInfoP11Il2CppClassEEEjEES9_17ReflectionMapHashIS8_EN14dense_hash_mapIS9_jSD_NS9_14EqualsComparerINS0_8equal_toIS8_EEEENS0_9allocatorISB_EEE9SelectKeyESI_SK_EC2ERKSN_j
$y:__ZN15AudioReverbZone7CleanupEv
PEb:__ZN10BufferGLESD0Ev
Zrb:__Z20scripting_gc_disablev
iKg:_Attribute_IsDefined_m1430686743
Hgg:_IntervalCollection_Optimize_m161975983
KSj:__ZN6il2cpp2vm10ThreadPool5QueueEP14Il2CppDelegatePPvS3_P12Il2CppObject
V_h:_Version__ctor_m417728625
n4:__ZN16memory_pool_implILi68EE15AutoPoolWrapper10InitializeEPv
m7g:_Convert_ToByte_m3567528984
zMc:__ZNK14b2PolygonShape9TestPointERK11b2TransformRK6b2Vec2
Vei:_InvokableCall_1_Invoke_m3497872319_gshared
Nqb:__ZN9Scripting35ErrorMessageForUnsupportedEnumFieldE17ScriptingFieldPtr
Msh:_Level2MapComparer__cctor_m1866197409
fmb:__Z29Transfer_Blittable_ArrayFieldI18StreamedBinaryReadILb1EEfEvRT_R9ArrayInfoRK23StaticTransferFieldInfo
_2:__ZN6prcoreL26RemapGenericIntegerToFloatI17TexFormatARGB888818TexFormatARGBFloatEEvPKNS_9InnerInfoE
agf:_Enumerator_get_CurrentKey_m2230405065_AdjustorThunk
RPg:_BitArray__ctor_m2765908219
NBg:_StringComparer_get_InvariantCultureIgnoreCase_m2404489191
uBj:_Font_get_material_m1471867149
hlk:__ZN6il2cpp6icalls8mscorlib6System7Runtime16CompilerServices14RuntimeHelpers15InitializeArrayEP11Il2CppArrayi
RYd:_Context_Freeze_m2594571993
qud:__ZZN18UnityConnectClient23RegisterGlobalCallbacksEvEN46EarlyUpdateUnityConnectClientUpdateRegistrator7ForwardEv
nod:__ZNSt3__26__treeINS_12__value_typeIjN4core12basic_stringIcNS2_20StringStorageDefaultIcEEEEEENS_19__map_value_compareIjS7_NS_4lessIjEELb1EEE13stl_allocatorIS7_L18MemLabelIdentifier6ELi16EEE25__emplace_unique_key_argsIjJNS_4pairIjS6_EEEEENSH_INS_15__tree_iteratorIS7_PNS_11__tree_nodeIS7_PvEEiEEbEERKT_DpOT0_
tXa:__ZN12ImmediatePtrI9TransformE8TransferI18StreamedBinaryReadILb0EEEEvRT_
nrh:_Array_InternalArray__ICollection_CopyTo_TisInt32_t2950945753_m3102754797_gshared
DCf:_Quaternion_ToString_m2203056442
TYe:_ModuleBuilder_GetTokenGenerator_m4177350090
WHa:__ZN10Matrix4x4f8TransferI18StreamedBinaryReadILb0EEEEvRT_
JTh:_Thread_Start_m2860771284
E1i:_List_1_AddEnumerable_m2295992518_gshared
H7g:_DateTime_YearMonthDayFormats_m827415370
MSb:__ZL23NormalizeRobustInternalRK8Vector3fRfS2_f
FIc:__ZN7Joint2D15ThreadedCleanupEv
lVf:_InputField_get_selectionColor_m2548343601
Iph:_Array_LastIndexOf_TisRuntimeObject_m2701366436_gshared
uTj:__ZN6il2cpp6icalls8mscorlib6System8MonoType13GetInterfacesEP20Il2CppReflectionType
_Ag:_String_Join_m2050845953
FK:__ZN11UnityEngine15CloudWebService25WebRequestDownloadHandler7OnAbortEv
FIb:__ZN6Camera12CustomRenderER11CullResultsR17ShaderPassContextPK21CameraRenderingParamsNS_10RenderFlagEPNS_21PerformRenderFunctionEPFvvE
ebg:_PublicKey_GetUnsignedBigInteger_m3873409673
ghk:__ZN6il2cpp2os6Thread22SetNativeThreadCleanupEPFvPvE
VHh:_GenericEqualityComparer_1_Equals_m2669134646_gshared
sdf:_DefaultComparer_Compare_m1649892577_gshared
IPf:_RuntimeMethodHandle__ctor_m2867240657
zBg:_DecoderFallback_get_StandardSafeFallback_m2130338133
TMa:__ZN14SafeBinaryRead21TransferSTLStyleArrayI13dynamic_arrayI10BlendShapeLj0EEEEvRT_17TransferMetaFlags
kn:FUNCTION_TABLE_vdd
tfb:__Z18Transfer_BlittableI24GenerateTypeTreeTransferLb1E10ColorRGBAfEvRK29SerializationCommandArgumentsR31RuntimeSerializationCommandInfo
g2:__ZN6prcoreL17RemapGenericFloatI18TexFormatRGBAFloat16TexFormatRGFloatEEvPKNS_9InnerInfoE
VSj:__ZN6il2cpp6icalls8mscorlib6System8MonoType8get_NameEP20Il2CppReflectionType
duh:_SimpleCollator_LastIndexOf_m2130553617
Qbb:__ZNSt3__26vectorI10RectOffset13stl_allocatorIS1_L18MemLabelIdentifier1ELi16EEE8__appendEj
Ydf:_DefaultComparer_Compare_m1920986590_gshared
HVh:_TimeSpan_op_Equality_m1999885032
Pbj:_SslStreamBase_get_ServerCertificates_m2154373069
Wak:__ZN6il2cpp2vmL29AddTypeToNametoClassHashTableEPK11Il2CppImagei
kSh:_UTF8Encoding_GetDecoder_m2951334655
_o:FUNCTION_TABLE_ff
ap:FUNCTION_TABLE_fi
bVe:_NumberFormatter_ZeroTrimEnd_m3065471008
y4:__ZL93__ManagedRegistrationHelperFunction_NativeContainerSupportsDeallocateOnJobCompletionAttributePv
HEg:_X509Certificate_get_DSA_m1760272844
CTh:_Thread_get_CurrentCulture_m349116646
vTh:_Thread_Thread_internal_m4184414727
Tec:__Z13RegisterClassI12MeshRendererEvPKc
vd:_emscripten_glGetAttribLocation
UGb:__ZZ23InitPlayerLoopCallbacksvEN39PostLateUpdateResetInputAxisRegistrator7ForwardEv
rC:__ZN4FMOD12ChannelGroup14getParentGroupEPPS0_
zd:_emscripten_set_blur_callback
V5i:_Collection_1_IsValidItem_m1475436662_gshared
sCa:__ZNK14ImageReference9ClipImageEiiii
uic:__ZN4MeshC2E10MemLabelId18ObjectCreationMode
vQb:__ZN10Matrix4x4f30SetPositionAndOrthoNormalBasisERK8Vector3fS2_S2_S2_
Nea:__ZN5RectTIfE8TransferI24GenerateTypeTreeTransferEEvRT_
AGd:_ColorBlock_Equals_m518833916
Rek:__ZN6il2cpp6icalls8mscorlib6System4Enum8ToObjectEP20Il2CppReflectionTypeP12Il2CppObject
mSb:__ZL30FrustumCullReflectionProbesJobP26ReflectionProbeCullJobDataj
QOi:_Array_qsort_TisUIVertex_t4057497605_m4120916435_gshared
aKb:__ZN12FlareManager6UpdateEv
L8j:__ZN6il2cpp6icalls8mscorlib6System4Type29GetGenericTypeDefinition_implEP20Il2CppReflectionType
MGc:__ZNSt3__26__treeINS_12__value_typeIN4core12basic_stringIcNS2_20StringStorageDefaultIcEEEEiEENS_19__map_value_compareIS6_S7_NS_4lessIS6_EELb1EEE13stl_allocatorIS7_L18MemLabelIdentifier1ELi16EEE25__emplace_unique_key_argsIS6_JNS_4pairIKS6_iEEEEENSH_INS_15__tree_iteratorIS7_PNS_11__tree_nodeIS7_PvEEiEEbEERKT_DpOT0_
SRa:__ZN27GenericSlowGarbageCollector16ProcessReferenceEi
X7:__ZN9Scripting11UnityEngine10Resolution9InitProxyEv
dAh:_Dictionary_2_get_Item_m1749337561_gshared
BEc:__ZN8JSONRead21TransferSTLStyleArrayI13dynamic_arrayI8BitFieldLj0EEEEvRT_17TransferMetaFlags
i7:__ZN35ScriptingManagedObjectProxyRegistry13RegisterProxyEPKcPFvvES3_
fYd:_LifetimeServices_set_SponsorshipTimeout_m2538334028
wQj:__ZN15dense_hashtableINSt3__24pairIK10KeyWrapperIP9FieldInfoEiEES5_N6il2cpp5utils11PointerHashIS3_EEN14dense_hash_mapIS5_iSB_NS5_14EqualsComparerINS0_8equal_toIS4_EEEENS0_9allocatorIS7_EEE9SelectKeyESG_SI_E4findERS6_
SPi:_Array_Sort_TisCustomAttributeTypedArgument_t2723150157_m3248988944_gshared
Y5:__ZL43__ManagedRegistrationHelperFunction_Hash128Pv
fvk:_fopen
F7a:__ZN20GpuProgramParameters15AddTextureParamEPKciib16TextureDimensionP16PropertyNamesSet
l5c:__ZN20TextRenderingPrivate8FontImplD2Ev
KM:__ZN19CloudServiceHandler8SaveFileERKN4core12basic_stringIcNS0_20StringStorageDefaultIcEEEEPKvj
Vlk:_GC_init
aPc:__Z16AddTriggerReportP11Collision2DR13dynamic_arrayINS_13TriggerReportELj0EE
ZSe:_MonoType_IsPointerImpl_m3340652279
FDk:_glFramebufferTexture2D__wrapper
Osk:__ZN6il2cpp6icalls8mscorlib6System7Runtime8Remoting7Proxies9RealProxy27InternalGetTransparentProxyEP12Il2CppObjectP12Il2CppString
mfk:__ZN6il2cpp2vm6Method10IsInflatedEPK10MethodInfo
klk:__ZNK6il2cpp8metadata14Il2CppTypeLessclEPK10Il2CppTypeS4_
pmk:_GC_remove_header
loa:__ZL17InstanceBufferJobIN10Instancing14RenderLoopArgsEEvP21InstanceBufferJobDataIT_E
lRa:__ZNSt3__26vectorIi13stl_allocatorIiL18MemLabelIdentifier13ELi16EEE8__appendEj
dxd:__GLOBAL__sub_I_artifacts_WebGL_legacybindings_VR_0_cpp
G0d:_ReturnMessage_get_OutArgs_m1641976511
NZd:_SynchronizationAttribute_IsContextOK_m324067792
Vck:__ZN6il2cpp2vm6Object6IsInstEP12Il2CppObjectP11Il2CppClass
N0e:_Action_1_BeginInvoke_m1817882028_gshared
Gib:__Z19TransferField_ArrayI19StreamedBinaryWriteILb0EE27Converter_UnityEngineObjectEvRK23StaticTransferFieldInfoR31RuntimeSerializationCommandInfoRT0_
uVc:__ZN10ClipperLib7Clipper15AddLocalMinPolyEPNS_5TEdgeES2_RKNS_8IntPointE
qra:__Z16GetMSAALevelDesc9MSAALevel
ljh:_Environment_GetMachineConfigPath_m43519138
MLe:__ZL65Mask_t1803652131_CustomAttributesCacheGenerator_m_ShowMaskGraphicP21CustomAttributesCache
I7e:_InternalEnumerator_1_System_Collections_IEnumerator_get_Current_m4203917072_gshared
Lfh:_Decimal_decimal2Int64_m2102545213
XIb:__ZN8Renderer27EnsureTransformInfoUpToDateEv
pIk:_emscripten_glFrontFace__wrapper
La:invoke_fiffi
aW:__ZN14SerializedFile14SerializedType8ReadTypeILb1EEEbibRPKhS3_Pi
Cfi:_InvokableCall_1_Invoke_m1160628299_gshared
gzd:_ExecuteEvents_get_pointerEnterHandler_m1185301724
tbj:_InternalAsyncResult__ctor_m2194591319
MR:__ZN13RuntimeStaticI12GraphicsCapsLb0EE16StaticInitializeEPv
k1g:_FileLoadException__ctor_m3879680456
bDc:__Z18Transfer_BlittableI8JSONReadLb1E8Vector4fEvRK29SerializationCommandArgumentsR31RuntimeSerializationCommandInfo
ccd:_tt_cmap2_validate
k8c:_cff_cmap_unicode_done
BWd:_ActivationServices_CreateProxyFromAttributes_m3864561181
P_b:__ZN9Scripting20SendScriptingMessageER10GameObjectPKc18ScriptingObjectPtr
tAi:__Z67RuntimeInvoker_Void_t1185182177_Scene_t2348375561_Int32_t2950945753PFvvEPK10MethodInfoPvPS4_
nsb:__Z26IsSplashScreenFadeCompletev
osc:__Z42Register_UnityEngine_Camera_get_clearFlagsv
Gpb:__ZN13MonoBehaviour13AwakeFromLoadE17AwakeFromLoadMode
wTj:__ZNSt3__26__treeIP11Il2CppClassNS_4lessIS2_EENS_9allocatorIS2_EEED2Ev
Y4f:_Slider_FindSelectableOnRight_m3576909722
vXb:__ZN13RenderManager27UpdatePreviousFrameMatricesEv
Vjb:__Z35Transfer_Blittable_FixedBufferFieldI18StreamedBinaryReadILb1EExEvRK29SerializationCommandArgumentsR31RuntimeSerializationCommandInfo
Kri:__Z137RuntimeInvoker_Void_t1185182177_Int64_t3736567304_Int64_t3736567304_RuntimeObject_RuntimeObject_RuntimeObject_RuntimeObject_RuntimeObjectPFvvEPK10MethodInfoPvPS4_
iY:__Z22SetManagerPtrInContextiP6Object
WPa:__ZN14PlayerSettings8TransferI19StreamedBinaryWriteILb0EEEEvRT_
NCc:__Z18Transfer_BlittableI8JSONReadLb0E10ColorRGBAfEvRK29SerializationCommandArgumentsR31RuntimeSerializationCommandInfo
FTg:_NumberFormatInfo_set_NumberNegativePattern_m1999304795
A$i:_List_1_System_Collections_IList_Insert_m2238786360_gshared
D_e:_GenericTypeParameterBuilder_IsSubclassOf_m2266644074
nzh:_SymmetricTransform_ThrowBadPaddingException_m2926778011
cUg:_CompareInfo_ToString_m2684143229
A_:__ZN15DirectorManagerD2Ev
x4f:_Slider_get_maxValue_m414465787
zXj:__ZN15dense_hashtableINSt3__24pairIK10KeyWrapperINS1_IPK10MethodInfoP11Il2CppClassEEEjEES9_17ReflectionMapHashIS8_EN14dense_hash_mapIS9_jSD_NS9_14EqualsComparerINS0_8equal_toIS8_EEEENS0_9allocatorISB_EEE9SelectKeyESI_SK_E9copy_fromERKSN_j
ldg:_X509CertificateEnumerator_System_Collections_IEnumerator_get_Current_m4218613192
Zgc:__ZNK30SpriteRendererAnimationBinding15GenerateBindingERKN4core12basic_stringIcNS0_20StringStorageDefaultIcEEEEbRN11UnityEngine9Animation14GenericBindingE
S0f:_Scrollbar_set_direction_m473480640
$Qh:_UTF32Encoding__ctor_m1635603592
VZh:_UInt64_Equals_m1879425698_AdjustorThunk
vmj:_Uri_IsPredefinedScheme_m1188665625
xWc:__ZN19PhysicsJobOptions2D8TransferI14SafeBinaryReadEEvRT_
Xrh:_Array_InternalArray__ICollection_CopyTo_TisUIVertex_t4057497605_m487823430_gshared
C9f:_ServicePointManager_get_CheckCertificateRevocationList_m1645465614
BRj:_SessionStateChanged_Invoke_m1365949269
hEb:__ZN15TextureTFMethod16BindForRenderingEj
bHc:__ZN11UnityEngine9Analytics33PerformanceReportingRenderingInfoC2Ev
iSc:__ZN21b2ContactsCollideTask8FinalizeEv
ntb:__ZN14GraphicsHelper20IsViewportFullscreenERK9GfxDevice
kKf:_SoapMethodAttribute_SetReflectionObject_m503748123
BXg:_Guid_Equals_m3683678873_AdjustorThunk
Xak:__ZN15dense_hashtableINSt3__24pairIK10KeyWrapperINS1_IPKcS4_EEEiEES6_24NamespaceAndNamePairHashN14dense_hash_mapIS6_iS9_NS6_14EqualsComparerI26NamespaceAndNamePairEqualsEENS0_9allocatorIS8_EEE9SelectKeyESD_SF_E4findERS7_
E2c:__ZN20TextRenderingPrivate8FontImpl13CharacterInfo8TransferI19StreamedBinaryWriteILb0EEEEvRT_
SQj:__ZN6il2cpp2os19SocketHandleWrapper7ReleaseEv
Bla:__ZNK20IntermediateRenderer11GetMaterialEi
BHc:__ZN9Scripting11UnityEngine11Collision2D12CleanupProxyEv
Apf:_BeforeRenderHelper_Invoke_m50072094
o$d:_MethodCall_get_MethodBase_m550047245
CQa:__ZNSt3__27__sort4IRNS_6__lessINS_4pairIPKN5Unity4TypeE7Hash128EES8_EEPS8_EEjT0_SC_SC_SC_T_
dfa:__ZNK11NamedObject22GetTypeVirtualInternalEv
jGa:__ZN15SerializeTraitsI13dynamic_arrayI28EnlightenRendererInformationLj0EEE19ResizeSTLStyleArrayERS2_i
lmj:_Uri_EscapeString_m2061933484
gqf:_AttributeHelperEngine_GetDefaultExecutionOrderFor_m2255077112
e9g:_Convert_ToDecimal_m3815908452
_rf:_Color_op_Equality_m1112359053
Qrf:_Color__ctor_m286683560_AdjustorThunk
e1c:__ZN9Scripting11UnityEngine13TreePrototype9InitProxyEv
v2g:_DelegatePInvokeWrapper_ReadDelegate_t714865915
LEg:_CollectionBase_Clear_m1509125218
iyc:__ZN11IMGUIModule21QueryGUIDisplayTargetE17ScriptingClassPtr
nNj:__ZNSt3__27__sort4IRN6il2cpp5utils11collections13ArrayValueMapIPK10Il2CppType17Il2CppInteropData26InteropDataToTypeConverterNS1_8metadata14Il2CppTypeLessENSA_26Il2CppTypeEqualityComparerEE12SortComparerEPS8_EEjT0_SH_SH_SH_T_
Iyk:dynCall_vidi
zrd:__ZN11UnityEngine15PlatformWrapper14GetCloudUserIdEv
t4g:_StreamReader_ReadToEnd_m371831293
Lxf:_Mathf_RoundToInt_m1874334613
XRe:_MonoCustomAttrs_GetCustomAttributes_m1775925192
zcc:__Z42NoAllocHelpers_CUSTOM_ExtractArrayFromListP12Il2CppObject
cCk:_glVertexAttribPointer__wrapper
eTf:_HMAC_Create_m2148924157
syk:___udivdi3
wSg:_Exception__ctor_m1406832249
hLh:_Enumerator_System_Collections_IEnumerator_get_Current_m2339378585_gshared
nbc:__ZN11PlayerPrefs9SetStringERKN4core12basic_stringIcNS0_20StringStorageDefaultIcEEEES6_
o0c:__ZN9Scripting11UnityEngine7Physics9InitProxyEv
kpk:__ZN6il2cpp6icalls8mscorlib6System8Delegate18SetMulticastInvokeEP14Il2CppDelegate
uMc:__ZL18b2FindIncidentEdgeP12b2ClipVertexPK14b2PolygonShapeRK11b2TransformiS3_S6_
pK:__ZN11UnityEngine15CloudWebService20WebRequestRestClient5BeginEv
cic:__ZN8Material12CleanupClassEv
svk:_fseek
Y0c:__ZN16memory_pool_implILi40EE15AutoPoolWrapper10InitializeEPv
Qeb:__Z22TransferField_NonArrayI17RemapPPtrTransfer27Converter_SimpleNativeClassI10RectOffsetEEvRK23StaticTransferFieldInfoR31RuntimeSerializationCommandInfoRT0_
cFg:_PKCS12_AddCertificate_m3618696508
z_g:_Int64_System_IConvertible_ToUInt32_m109903525
UIh:_HashSet_1_Init_m2976925848_gshared
pPg:_SynchronizedArrayListWrapper_set_Item_m1979747874
X6:__ZL50__ManagedRegistrationHelperFunction_UnityExceptionPv
Cbh:_Convert_ToUInt32_m2215525276
MPa:__ZN24GenerateTypeTreeTransfer32TransferSTLStyleArrayWithElementI16SplashScreenLogoEEvRT_17TransferMetaFlags
ZVj:__ZN15dense_hashtableINSt3__24pairIK10KeyWrapperINS1_IPK9FieldInfoP11Il2CppClassEEEjEES9_17ReflectionMapHashIS8_EN14dense_hash_mapIS9_jSD_NS9_14EqualsComparerINS0_8equal_toIS8_EEEENS0_9allocatorISB_EEE9SelectKeyESI_SK_E6insertERKSB_
f7e:_InternalEnumerator_1_get_Current_m2680116177_gshared
UKj:__ZN14dense_hash_mapI10KeyWrapperIPKcEP11Il2CppClassN6il2cpp5utils11StringUtils12StringHasherIS2_EENS3_14EqualsComparerINS7_13VmStringUtils21CaseSensitiveComparerEEENSt3__29allocatorINSF_4pairIKS3_S5_EEEEEC2EjRKSA_RKSE_
e_:__Z37InitializeIntermediateRendererManagerPv
mAg:_String_IndexOfOrdinal_m962178384
KOj:__ZN6il2cpp2vm13MetadataCache34GetTypeInfoFromTypeDefinitionIndexEi
fTf:_HMACMD5__ctor_m3129799368
G7:__ZN9Scripting11UnityEngine9Texture2D12CleanupProxyEv
JOd:_TypeBuilder_GetEvent_m2166527753
tTc:__ZN13SliderJoint2DD2Ev
KR:__ZN23DefaultMeshVertexFormatC2E17ShaderChannelMask
okb:__ZL26Transfer_SimpleNativeClassI18StreamedBinaryReadILb1EE8GradientLb1EEvRK29SerializationCommandArgumentsR31RuntimeSerializationCommandInfo
Asi:__Z102RuntimeInvoker_Int32_t2950945753_RuntimeObject_Int32_t2950945753_CharU26_t1697032762_SByte_t1669577662PFvvEPK10MethodInfoPvPS4_
pTe:_MonoType_get_Namespace_m2015358851
xii:_IndexedSet_1_RemoveAt_m3002732320_gshared
eSg:_HashKeys_CopyTo_m4219627824
MUf:_InputField_GetLineStartPosition_m2947412579
th:_glBlendEquation
bch:_Convert_ToType_m2406080310
G8h:_ReadOnlyCollection_1_IndexOf_m2659941036_gshared
Fod:__Z38CustomEventData_CUSTOM_Internal_CreateP12Il2CppObjectP12Il2CppString
Z7h:_ReadOnlyCollection_1_System_Collections_IList_set_Item_m3570269385_gshared
mNh:_List_1_AddEnumerable_m2043754576_gshared
IKe:__ZL85Graphic_t1660335611_CustomAttributesCacheGenerator_Graphic_OnPopulateMesh_m2916877004P21CustomAttributesCache
dId:_DefaultControls_CreateToggle_m1236643913
Qwh:_BitConverterLE_ToSingle_m1153793442
srk:__ZN6il2cpp2os5Mutex7TryLockEjb
XXg:_Int16_System_IConvertible_ToByte_m3161982419
FQ:__Z20IsVectorBuiltinParamPKcPi
Fbk:__ZN6il2cpp2vm5Field8GetFlagsEP9FieldInfo
QTf:_MD5CryptoServiceProvider_HashFinal_m2625727830
JOi:_Array_qsort_TisRaycastResult_t3360306849_m3861320071_gshared
Hyg:_Single_System_IConvertible_ToUInt32_m289030200
_5j:__ZN6il2cpp6icalls8mscorlib6System10ReflectionL16LoadResourceFileEP24Il2CppReflectionAssembly
vhh:_Double_System_IConvertible_ToDouble_m3692611612
nH:__Z83Register_UnityEngine_Experimental_Audio_AudioSampleProvider_InternalSetScriptingPtrv
EV:__Z13IsFileCreatedRKN4core12basic_stringIcNS_20StringStorageDefaultIcEEEE
W5f:_Text_OnPopulateMesh_m1525268284
H1g:_FileStream_FlushBuffer_m914568182
WFa:__ZN16LightmapSettings18TransferDeprecatedI14SafeBinaryReadEEvRT_
jMa:__ZN8Renderer11SetMaterialE4PPtrI8MaterialEi
wQh:_StringBuilder_AppendFormat_m921870684
kek:__ZN15dense_hashtableINSt3__24pairIK10KeyWrapperIP12Il2CppObjectEN6il2cpp2gc9CachedCCWEEES5_NS7_5utils11PointerHashIS3_EEN14dense_hash_mapIS5_S9_SD_NS5_14EqualsComparerINS0_8equal_toIS4_EEEENS0_9allocatorISA_EEE9SelectKeyESI_SK_E5eraseE30dense_hashtable_const_iteratorISA_S5_SD_SM_SI_SK_E
kRg:_Hashtable__ctor_m1684344284
RGg:_Activator_CheckAbstractType_m2015247896
Nsg:_RSACryptoServiceProvider_ImportParameters_m614616705
ebj:_SslHandshakeHash_CreateSignature_m1634235041
Kjf:_ShimEnumerator_get_Current_m3504536618_gshared
Nba:__ZN9Scripting11UnityEngine21AttributeHelperEngine9InitProxyEv
HGc:__ZN27PerformanceReportingManager29CheckForTargetFrameRateChangeEv
ula:__ZN12FlareManager9AddCameraER6Camera
lvd:__ZN15UnityWebRequestD0Ev
CZf:_LayoutRebuilder_U3CRebuildU3Em__3_m523803689
r1g:_FileNotFoundException__ctor_m2477162036
nEh:_EqualityComparer_1__cctor_m149356781_gshared
V3c:__ZNSt3__26__treeINS_12__value_typeIN20TextRenderingPrivate7FontRefEP11FT_FaceRec_EENS_19__map_value_compareIS3_S6_NS_4lessIS3_EELb1EEENS_9allocatorIS6_EEE25__emplace_unique_key_argsIS3_JRKNS_21piecewise_construct_tENS_5tupleIJRKS3_EEENSI_IJEEEEEENS_4pairINS_15__tree_iteratorIS6_PNS_11__tree_nodeIS6_PvEEiEEbEERKT_DpOT0_
enb:__Z18Transfer_BlittableI18StreamedBinaryReadILb0EELb0E12PropertyNameEvRK29SerializationCommandArgumentsR31RuntimeSerializationCommandInfo
XUc:__ZTv0_n12_N10ClipperLib7ClipperD0Ev
G3b:__ZN9ShaderLab9IntShader26CreateFromSerializedShaderERKNS_16SerializedShaderERNSt3__26vectorI4PPtrI6ShaderENS4_9allocatorIS8_EEEEbPS7_
yhj:_Match_get_Empty_m2060287462
B8a:__ZN19ShaderPropertySheet16SetComputeBufferEN9ShaderLab16FastPropertyNameE15ComputeBufferIDNS_8SetFlagsE
sAf:_U3CInvokeMessageIdSubscribersU3Ec__AnonStorey0_U3CU3Em__0_m444206473
rAh:_Dictionary_2_ContainsValue_m256968015_gshared
Cik:__ZNK15dense_hashtableINSt3__24pairIK10KeyWrapperIPK19Il2CppGenericMethodEP10MethodInfoEES6_N6il2cpp8metadata23Il2CppGenericMethodHashEN14dense_hash_mapIS6_S9_SD_NS6_14EqualsComparerINSC_26Il2CppGenericMethodCompareEEENS0_9allocatorISA_EEE9SelectKeyESH_SJ_E5beginEv
T1e:_ArrayReadOnlyList_1_get_Item_m1974867852_gshared
gNd:_Image_AddQuad_m969836764
_sh:_MSCompatUnicodeTable_IsIgnorableNonSpacing_m47098938
M0h:_Collection_1_IsSynchronized_m2655903966_gshared
vZg:_Int32_System_IConvertible_ToSingle_m896140682_AdjustorThunk
hN:__GLOBAL__sub_I_Runtime_Graphics_7_cpp
_Tb:__ZL12CullGroupJobP20CullingGroupsJobDataj
Nmk:_GC_remove_dangling_disappearing_links
gL:__ZN11UnityEngine15CloudWebService14RestDownloader9IsAbortedEv
Qwc:__Z30GUIStyle_CUSTOM_SetDefaultFontP12Il2CppObject
po:FUNCTION_TABLE_f
dp:FUNCTION_TABLE_i
xkj:_AnchorInfo_get_Position_m1133366486
r4g:_StreamReader_FindNextEOL_m2574298119
O0:__ZN11TypeManager12RegisterTypeERK20TypeRegistrationDesc
mw:__ZL44__ManagedRegistrationHelperFunction_PoseDataPv
Fn:FUNCTION_TABLE_v
ZMa:__ZNSt3__26vectorI17BlendShapeChannelNS_9allocatorIS1_EEE8__appendEj
_Gb:__ZZ23InitPlayerLoopCallbacksvEN43PostLateUpdateUpdateAllRenderersRegistrator7ForwardEv
hUa:__ZN21LightProbeProxyVolume13GetRenderDataER27LightProbeProxyVolumeSample
uYd:_Context_get_ContextProperties_m3283598326
G7i:_Collection_1_System_Collections_IList_set_Item_m4249768453_gshared
FOa:__ZN11TimeManager8TransferI24GenerateTypeTreeTransferEEvRT_
ujf:_KeyCollection_System_Collections_ICollection_get_SyncRoot_m3900096134_gshared
uzc:__ZN8JSONRead8TransferItEEvRT_PKc17TransferMetaFlagsb
F0j:__ZN6il2cpp2vm17TypeNameParseInfoC2ERKS1_
xsd:__ZN18UnityConnectClient17InitConnectClientEv
Xtk:_memcmp
ttd:__ZN22UnityAnalyticsSettings5ResetEv
oDe:__ZL57GUILayoutEntry_t3214611570_CustomAttributesCacheGeneratorP21CustomAttributesCache
vrd:__ZN11UnityEngine7Connect18ConnectSessionInfo8TransferER9JSONWrite
GF:__Z74Register_UnityEngine_AudioListener_INTERNAL_CALL_ReadExtensionPropertyNamev
lOi:_Array_InternalArray__set_Item_TisHitInfo_t3229609740_m1576844560_gshared
GX:__ZN9Scripting32GetCachedPtrFromScriptingWrapperE18ScriptingObjectPtr
bsg:_SslClientStream_OnBeginNegotiateHandshake_m3734240069
omd:__ZN2UI29ScheduleUIJobsForInstructionsERNS_7BatchesEjPKNS_13UIInstructionEfjjPNS_13CanvasJobDataE
cC:__ZN5audio5mixer22CreateAudioMixerMemoryERKNS0_18AudioMixerConstantEPN4FMOD6SystemERN7mecanim6memory9AllocatorEib
ZRi:_LayoutGroup_SetProperty_TisInt32_t2950945753_m3911895589_gshared
FAk:dynCall_iiid
emi:__Z121RuntimeInvoker_Void_t1185182177_Int32_t2950945753_Int32_t2950945753_Int32_t2950945753_SByte_t1669577662_SByte_t1669577662PFvvEPK10MethodInfoPvPS4_
GAk:dynCall_iiif
Hti:__Z52RuntimeInvoker_Single_t1397266774_Single_t1397266774PFvvEPK10MethodInfoPvPS4_
noh:_Array_IndexOf_TisRuntimeObject_m828474689_gshared
Qfc:__ZZL31RegisterRectTransformPropertiesR22GenericPropertyBindingEN32Wrapper_RectTransformAnchorMiny113GetFloatValueEPv
aPg:_FixedSizeArrayListWrapper_InsertRange_m1706982628
p_h:_UIntPtr_ToString_m984583492_AdjustorThunk
xub:__ZL20ShaderWarmupFuncImplP6ShaderiPN9ShaderLab4PassERK16ShaderKeywordSetP10DynamicVBOPvR17ShaderPassContext
QOc:__ZN7b2World4StepEfii
xvb:__ZN13GfxDeviceGLESC2E10MemLabelId
NBj:_TextGenerationSettings_Equals_m3618607189
dNj:__ZN15dense_hashtableI10KeyWrapperIPK17Il2CppGenericInstES4_N6il2cpp8metadata21Il2CppGenericInstHashEN14dense_hash_setIS4_S7_NS4_14EqualsComparerINS6_24Il2CppGenericInstCompareEEENSt3__29allocatorIS4_EEE8IdentityESB_SE_E6insertERKS4_
oVj:__ZN15dense_hashtableINSt3__24pairIK10KeyWrapperINS1_IPK14Il2CppAssemblyP11Il2CppClassEEEjEES9_17ReflectionMapHashIS8_EN14dense_hash_mapIS9_jSD_NS9_14EqualsComparerINS0_8equal_toIS8_EEEENS0_9allocatorISB_EEE9SelectKeyESI_SK_E3endEv
mSe:_MonoEnumInfo_get_enum_info_m1661176095
Xnj:_GUIUtility_CheckOnGUI_m3924092168
yAb:__ZN14DataBufferGLES12RecordUpdateEv
S3c:__ZN20TextRenderingPrivate15DynamicFontData28GetFaceForFontRefFromOSFontsERKNS_7FontRefE
lrc:__Z34MonoBehaviour_CUSTOM_StopCoroutineP12Il2CppObjectP12Il2CppString
KAg:_String_Remove_m562998446
QCf:_Ray_GetPoint_m1852405345
mek:__ZN6il2cpp2vm12GenericClass12SetupMethodsEP11Il2CppClass
M4:__ZL50__ManagedRegistrationHelperFunction_AnimationCurvePv
XZa:__ZNK20LocalFileSystemPosix18GetApplicationPathEv
i1i:_List_1_set_Item_m658432263_gshared
Bqb:__ZN9Scripting30IsSystemCollectionsGenericListE17ScriptingClassPtr
God:__Z39CustomEventData_CUSTOM_Internal_DestroyPv
Szf:_PlayerEditorConnectionEvents_AddAndCreate_m3046878154
Yxd:__ZN9Scripting11UnityEngine12Experimental2XR14PlaneAlignment9InitProxyEv
iBh:_Dictionary_2_Add_m1279427033_gshared
gxc:__Z14GetDefaultSkini
_ld:__ZN2UI23InitializeCanvasManagerEv
Yga:__ZN10GameObject16CheckConsistencyEv
vCd:_PointerInputModule_GetMousePointerEventData_m4273240034
Sic:__ZN14RenderSettings15InitializeClassEv
rEd:_AspectRatioFitter_set_aspectMode_m4140288987
Fac:__Z46Register_UnityEngine_GameObject_get_activeSelfv
mza:__ZL35stbir__resample_horizontal_upsampleP11stbir__infoPf
sMi:__Z82RuntimeInvoker_RuntimeObject_RaycastResult_t3360306849_RuntimeObject_RuntimeObjectPFvvEPK10MethodInfoPvPS4_
V2i:_Enumerator__ctor_m3419056812_AdjustorThunk
q9e:_InternalEnumerator_1_System_Collections_IEnumerator_get_Current_m1299775605_gshared
SLa:__ZN14SpriteRenderer13GetRenderDataEv
kMg:_Byte_ToString_m2335342258
B6f:_DictionaryNodeEnumerator_Reset_m2226320064
Zyk:dynCall_iifii
eid:__ZN2UI16GetCanvasManagerEv
Etd:__ZN11UnityEngine9Analytics22EventLimitReachedEventD2Ev
Foc:__ZN15GUIEventManager8PopEventER10InputEvent
Oac:__Z31RectOffset_Get_Custom_PropRightP12Il2CppObject
ugd:__Z54Register_UnityEngine_TextGenerator_GetVerticesInternalv
Tnd:__ZNSt3__26__treeINS_12__value_typeIN4core12basic_stringIcNS2_20StringStorageDefaultIcEEEEN11UnityEngine9Analytics15UserCustomEvent11CustomValueEEENS_19__map_value_compareIS6_SB_NS_4lessIS6_EELb1EEE13stl_allocatorISB_L18MemLabelIdentifier6ELi16EEE25__emplace_unique_key_argsIS6_JRKNS_21piecewise_construct_tENS_5tupleIJOS6_EEENSO_IJEEEEEENS_4pairINS_15__tree_iteratorISB_PNS_11__tree_nodeISB_PvEEiEEbEERKT_DpOT0_
nAg:__Z3BoxP11Il2CppClassPv
Gwf:_Input_get_touchSupported_m1480684970
dD:__ZN20SoundChannelInstance9isPlayingEPb
nzf:_MonoBehaviour_StartCoroutine_m3411253000
mEb:__ZN21UniformBufferTFMethodD2Ev
kTa:__ZN18LoadSceneOperation21PostLoadSceneAdditiveEv
Q8e:_InternalEnumerator_1_System_Collections_IEnumerator_get_Current_m1096730143_AdjustorThunk
WUb:__Z36CreateScriptingArrayFromUnityObjectsI13dynamic_arrayIP6CameraLj0EEE17ScriptingArrayPtrRKT_17ScriptingClassPtr
M9b:__ZL34GetComponentsImplementationRecurseILb1ELi1ELi2EEbR10GameObjectbRK17CompareParametersRK39GetComponentsImplementation_ReturnValue
E3:__ZN6prcoreL12RemapGenericI15TexFormatRGB56515TexFormatRGB888EEvPKNS_9InnerInfoE
XFj:_Physics2D_GetRayIntersectionAll_Internal_Injected_m1793592321
iWf:_InputField_MoveTextEnd_m2392516920
Hpk:__ZN6il2cpp5utils10MemoryPool9AddRegionEj
wbg:_X509Certificate2__ctor_m3336405942
aLd:_Graphic_get_workerMesh_m997382591
qwc:__ZN13dynamic_arrayI7GUIClipLj0EE9push_backERKS0_
Trc:__Z38PlayableHandle_CUSTOM_IsValid_InjectedP9HPlayable
R3j:__ZNSt3__214__split_bufferIP12Il2CppThreadRN6il2cpp2gc9AllocatorIS2_EEED2Ev
gnd:__ZN5Umbra16FileOutputStreamD0Ev
gIg:_Array_System_Collections_IList_RemoveAt_m41405158
dCi:__Z64RuntimeInvoker_Boolean_t97287965_RuntimeObject_Int64_t3736567304PFvvEPK10MethodInfoPvPS4_
Mtc:__Z52Register_UnityEngine_Object_FindObjectFromInstanceIDv
ikd:__Z41CanvasGroup_Get_Custom_PropBlocksRaycastsP12Il2CppObject
Fkk:__ZN6il2cpp2os11Environment17GetProcessorCountEv
z$b:__ZNSt3__26vectorIN9ShaderLab26SerializedShaderDependencyENS_9allocatorIS2_EEE8__appendEj
xX:__ZN32TransformHierarchyChangeDispatch26DispatchSelfAndAllChildrenE15TransformAccessNS_12InterestTypeE
KF:__Z46Register_UnityEngine_AudioSource_get_isPlayingv
uqd:__ZN11UnityEngine15PlatformWrapper21GetVRDeviceMirrorModeEv
Vzd:_EventSystem_OnEnable_m3237278246
SY:__ZN13RuntimeStaticI22VirtualJoystickManagerLb0EE13StaticDestroyEPv
vfg:_Interpreter_Balance_m1978770534
Py:__ZN13AudioListener12ApplyFiltersEv
e8:__ZN9Scripting11UnityEngine9Rendering8GPUFence12CleanupProxyEv
Zxd:__ZN9Scripting11UnityEngine12Experimental2XR14PlaneAlignment12CleanupProxyEv
q1i:_List_1_System_Collections_IList_Contains_m353431064_gshared
Lvj:_AudioConfigurationChangeHandler_BeginInvoke_m4104069447
ork:__ZN6il2cpp8metadata27Il2CppGenericContextCompare7CompareEPK20Il2CppGenericContextS4_
Hzk:dynCall_viiii
_Tg:_CompareInfo_IsPrefix_m796715920
FIj:__ZNK15dense_hashtableINSt3__24pairIK10KeyWrapperIPK22Il2CppGenericParameterEP11Il2CppClassEES6_N6il2cpp5utils11PointerHashIS4_EEN14dense_hash_mapIS6_S9_SE_NS6_14EqualsComparerINS0_8equal_toIS5_EEEENS0_9allocatorISA_EEE9SelectKeyESJ_SL_E23find_position_with_hashERS7_j
XLa:__ZL19SpriteMeshExtractorPv16VertexInputMasksiR11MeshBuffersR16DrawBuffersRangeRiS5_
gig:_PrimalityTest_Invoke_m2948246884
UNf:_ObjectReader_ReadSimpleArray_m428957657
qHe:__ZL65EventTrigger_t1076084509_CustomAttributesCacheGenerator_delegatesP21CustomAttributesCache
J0j:__ZNSt3__214__split_bufferIN6il2cpp2vm17TypeNameParseInfoERNS_9allocatorIS3_EEED2Ev
Myb:__ZThn10632_N13GfxDeviceGLES26EnableScissorRectsPlatformEv
u0i:_List_1_System_Collections_IList_Contains_m3717811284_gshared
eRd:_MonoEvent_get_Attributes_m3048829315
X$:__ZN15DirectorManager14ConnectionPool16GrowEmptyBucketsEv
tQg:_CaseInsensitiveHashCodeProvider_AreEqual_m3534448780
iT:__ZN17PersistentManager32CopyToAwakeFromLoadQueueInternalER18AwakeFromLoadQueue
Avi:__Z104RuntimeInvoker_Boolean_t97287965_Int32_t2950945753_Int64U5BU5DU26_t194432655_StringU5BU5DU26_t2154486980PFvvEPK10MethodInfoPvPS4_
jWc:__ZN10Collider2D23VirtualRedirectTransferER24GenerateTypeTreeTransfer
QIb:__ZNK6Camera16SetActiveVRUsageEv
M0f:_Scrollbar_set_handleRect_m1170237786
rDc:__ZL26Transfer_SimpleNativeClassI8JSONRead8GradientLb1EEvRK29SerializationCommandArgumentsR31RuntimeSerializationCommandInfo
yuk:_open
GYc:__ZN6b2Body7SetTypeE10b2BodyType
Dgj:_X509CrlEntry_get_SerialNumber_m3627212772
i7j:__ZN6il2cpp6icalls8mscorlib6System5Array5CloneEP11Il2CppArray
BXb:__Z30GetPlayerShouldRunInBackgroundv
Uxf:_Mathf__cctor_m1175545152
lRd:_MonoEvent_IsDefined_m10931749
B7f:_NameValueCollection_AsSingleString_m3776180906
y3:__ZN6prcoreL12RemapGenericI11TexFormatI815TexFormatRGB565EEvPKNS_9InnerInfoE
qZg:_Int32_System_IConvertible_ToInt64_m3520470966
vnc:__ZN16StreamedResource8TransferI19StreamedBinaryWriteILb0EEEEvRT_
Tvb:__ZNK13TranslateGLES17FramebufferTargetEN2gl17FramebufferTargetE
_fk:__ZL11on_gc_event11GCEventType
K9e:_InternalEnumerator_1_System_Collections_IEnumerator_get_Current_m1612699335_gshared
Xng:_TlsServerHello__ctor_m3887266572
Skd:__ZN13dynamic_arrayIN2UI8UIVertexELj0EEC2Ej10MemLabelId
TDk:b62
EDk:b61
GCk:b60
iFk:b67
ZDk:b66
YDk:b65
kFk:b69
e7b:__ZL10SweepEventP14TESStesselatorP10TESSvertex
hhj:_Enumerator_get_Current_m359737019
Bka:__ZNSt3__26__treeINS_12__value_typeIi17ShadowCachingDataEENS_19__map_value_compareIiS3_NS_4lessIiEELb1EEE13stl_allocatorIS3_L18MemLabelIdentifier66ELi16EEE7destroyEPNS_11__tree_nodeIS3_PvEE
vKg:_BitConverter_ToInt64_m349022421
Qoc:__Z9SetIIMGUIP6IIMGUI
JYi:_List_1_System_Collections_IList_Add_m1142950911_gshared
nCi:__Z68RuntimeInvoker_Boolean_t97287965_Double_t594665363_Double_t594665363PFvvEPK10MethodInfoPvPS4_
UXc:__ZN17CapsuleCollider2D23VirtualRedirectTransferER14SafeBinaryRead
Kbd:_tt_cmap10_get_info
Xsb:__Z28SetupPixelCorrectCoordinatesi
aAb:__Z5SplitRKN4core12basic_stringIcNS_20StringStorageDefaultIcEEEEcRNSt3__26vectorIS3_NS6_9allocatorIS3_EEEEi
QMj:__ZN15dense_hashtableI10KeyWrapperIPK19Il2CppGenericMethodES4_N6il2cpp8metadata23Il2CppGenericMethodHashEN14dense_hash_setIS4_S7_NS4_14EqualsComparerINS6_26Il2CppGenericMethodCompareEEENSt3__29allocatorIS4_EEE8IdentityESB_SE_E9copy_fromERKSH_j
oyh:_PKCS1_Sign_v15_m2719206817
Zqj:_AesTransform__ctor_m3143546745
$kh:_Array_InternalArray__ICollection_Remove_TisRuntimeObject_m2110193223_gshared
EBe:__ZL64EventType_t3528516131_CustomAttributesCacheGenerator_scrollWheelP21CustomAttributesCache
Pea:__ZN24GenerateTypeTreeTransfer10SetVersionEi
Hyf:_Mesh_SetTangents_m1615111656
L7j:__ZN6il2cpp2vm9Exception20GetArgumentExceptionERKNS_5utils10StringViewIDsEES6_
cHa:__ZNSt3__26vectorI13dynamic_arrayI8Vector2fLj0EENS_9allocatorIS3_EEE7reserveEj
Ezf:_PlayerEditorConnectionEvents__ctor_m3177489832
A$d:_MethodCallDictionary__cctor_m2213329406
ty:__ZN12AudioManagerD0Ev
dVf:_InputField_set_textComponent_m2547304131
hQa:__Z13ConvertPixelsPKh13TextureFormatPhS1_j
Frk:__ZN6il2cpp5utils35RegisterRuntimeInitializeAndCleanupC2EPFvvES3_i
Dth:_SortKeyBuffer_Initialize_m3786111493
QSi:_Array_InternalArray__get_Item_TisX509ChainStatus_t133602714_m2237651489_gshared
_Oe:__ZL58IVertexModifier_t3404627876_CustomAttributesCacheGeneratorP21CustomAttributesCache
RQa:__ZNK22GenericPropertyBinding13SetFloatValueERKN11UnityEngine9Animation10BoundCurveEf
hIf:_Transform_GetEnumerator_m2717073726
qDg:_Encoding__cctor_m1936558127
w_i:_List_1__ctor_m163821521_gshared
hNe:__ZL90StencilMaterial_t3850132571_CustomAttributesCacheGenerator_StencilMaterial_Add_m3183845017P21CustomAttributesCache
SFj:_Physics2D_RaycastNonAlloc_Internal_m4193835177
Gvg:_X509Certificate_get_Subject_m2638144878
t4c:_raccess_guess_darwin_ufs_export
bqf:_AsyncOperation_Finalize_m1841265672
tGb:__ZN11TypeManager18InitializeAllTypesEv
Raa:__ZN9Scripting11UnityEngine16DiagnosticSwitch9InitProxyEv
WJc:__ZN13b2PulleyJointC2EPK16b2PulleyJointDef
GUf:_InputField_MarkGeometryAsDirty_m817808086
$Yf:_LayoutGroup_get_isRootLayoutGroup_m1082645254
qD:__ZN9AudioClipD0Ev
U1j:_il2cpp_class_from_name
L$f:_RectMask2D_OnDisable_m809267607
L2i:_Queue_1__ctor_m1971992302_gshared
KSe:_MonoType_GetEvent_m28975240
YBb:__ZN14GfxContextGLES11MakeCurrentER7ApiGLESN2gl13ContextHandleE
c2g:_MonoIO_Write_m3999708352
YAk:dynCall_viffffi
Zfc:__ZZL31RegisterRectTransformPropertiesR22GenericPropertyBindingEN32Wrapper_RectTransformSizeDeltay113SetFloatValueEPvf
$qh:_Array_InternalArray__ICollection_CopyTo_TisChar_t3634460470_m3599063464_gshared
ERh:_UTF7Encoding_InternalGetChars_m2722395139
T7g:_DateTime_get_Today_m2788644320
uub:__ZN16GraphicsSettings22WarmupPreloadedShadersEv
vjd:__Z34Canvas_Set_Custom_PropSortingOrderP12Il2CppObjecti
nQf:_SByte_System_IConvertible_ToSingle_m1083054891
$gj:_CostDelegate_Invoke_m898648402
xRh:_UTF7Encoding_Equals_m227704363
Ftf:_DisplaysUpdatedDelegate_Invoke_m3203573844
U3b:__ZN9ShaderLab4Pass6RetainEv
Hxh:_KeyPairPersistence_get_ContainerName_m4274536094
_a:invoke_iiiiiiffiiiiiiiiiffffiii
SDf:_Rect_op_Equality_m3986168348
Kvd:__ZN20UnityWebRequestProtoI24UnityWebRequestTransport16AtomicRefCounter14RedirectHelper14ResponseHelper15DownloadHandler13UploadHandler18CertificateHandler12HeaderHelper14AsyncOperationE25Job_RedirectTo_MainThreadEPS9_
Ooh:_Array_InternalArray__IndexOf_TisSlot_t384495010_m3224390719_gshared
Ugf:_Enumerator_System_Collections_IDictionaryEnumerator_get_Key_m4039922590_AdjustorThunk
Kid:__ZN2UI6Canvas8TransferI14SafeBinaryReadEEvRT_
Phf:_Enumerator_get_Current_m35296194_AdjustorThunk
AWj:__ZN6il2cpp2gc19AppendOnlyGCHashMapIPK10Il2CppTypeP20Il2CppReflectionTypeNS_8metadata14Il2CppTypeHashENS7_26Il2CppTypeEqualityComparerEE3AddERKS4_S6_
wI:__ZN11UnityEngine15CloudWebService17CloudJobScheduler11ScheduleJobEPFvPvES2_
rx:__ZN13RuntimeStaticINSt3__23mapIjP19AudioSampleProviderNS0_4lessIjEE13stl_allocatorINS0_4pairIKjS3_EEL18MemLabelIdentifier27ELi16EEEELb0EE13StaticDestroyEPv
tJ:__ZN11UnityEngine15CloudWebService17CloudServiceEvent12ToJsonStringER9JSONWrite
vng:_TlsClientHello__ctor_m1986768336
tZ:__ZNK18VertexChannelsInfoltERKS_
_wi:__Z89RuntimeInvoker_Boolean_t97287965_Int32_t2950945753_Int32U26_t1369213839_Int32_t2950945753PFvvEPK10MethodInfoPvPS4_
qMg:_Char_System_IConvertible_ToType_m4138905176_AdjustorThunk
pzc:__ZN9JSONWrite8TransferIfEEvRT_PKc17TransferMetaFlags
Oeh:_DBNull_System_IConvertible_ToUInt16_m643477279
t0a:__ZN10MemoryFileD0Ev
W$h:_Collection_1_SetItem_m774004841_gshared
uGj:_Analytics_GetUnityAnalyticsHandler_m2772482435
Hhk:__ZN6il2cpp2os10ThreadImpl22SetNativeThreadCleanupEPFvPvE
feh:_DateTimeOffset__cctor_m3610253033
XLg:_Byte_CompareTo_m4285128861_AdjustorThunk
bYd:_ConfigHandler_ExtractAssembly_m2143791058
Gck:__ZN6il2cpp8metadataL24RecursiveGenericDepthForEPK17Il2CppGenericInst
jIf:_Transform_GetChild_m1092972975
qbb:__ZN13GUIStyleState8TransferI14SafeBinaryReadEEvRT_
Qd:_glDrawArrays
$H:__ZN9Scripting11UnityEngine23ClothSphereColliderPair12CleanupProxyEv
Ivj:_AudioSource_get_clip_m1234340632
CUd:_ResourceCacheItem_t51292791_marshal_pinvoke_back
y7a:__ZNSt3__26vectorIN20GpuProgramParameters15StructParameterENS_9allocatorIS2_EEE21__push_back_slow_pathIS2_EEvOT_
Zjd:__Z46Register_UnityEngine_Canvas_set_sortingLayerIDv
du:__ZN23AnimatedPropertyBuilder5BuildEP13AnimationClip18ScriptingObjectPtr
mCc:__ZN9JSONWrite8TransferI13dynamic_arrayI8Vector3fLj0EEEEvRT_PKc17TransferMetaFlags
nNa:__ZN14BlendShapeData8TransferI18StreamedBinaryReadILb0EEEEvRT_
rdd:_Round_To_Grid
_3c:_UNITY_FT_Stream_Close
lAd:_EventTrigger_OnPointerClick_m1385968891
kZh:_UInt32_ToString_m4293943134_AdjustorThunk
nFf:_Renderer_get_sortingLayerID_m3902855301
Bgg:_Interval_CompareTo_m3282557545_AdjustorThunk
vef:_Comparer_1__cctor_m1018589532_gshared
qfd:_pshinter_get_globals_funcs
p1:__ZL20FormatOrderedProcessPKcP17FormatOrderedDataPc
zrh:_Array_InternalArray__ICollection_CopyTo_TisResourceCacheItem_t51292791_m766230259_gshared
nCg:_Decoder_set_Fallback_m3834517714
Pqc:__Z35DebugLogHandler_CUSTOM_Internal_Log7LogTypeP12Il2CppStringP12Il2CppObject
PTc:__ZN16b2PrismaticJoint11EnableLimitEb
RDk:_emscripten_glShaderBinary__wrapper
zBb:__ZL17ProgramUniform3ivPK7ApiGLESjiihPKv
RNg:_ArrayList_Shift_m395607654
WUh:_TimeSpan_get_Minutes_m4278980001_AdjustorThunk
x3a:__ZN9GfxDevice25GetBackBufferColorSurfaceEv
dia:__ZN23TransformChangeDispatch37InitTransformHierarchyTRSChangedMasksER18TransformHierarchy
D5b:__Z29AwakeAndActivateClonedObjectsPP6ObjectRK10vector_mapIiiNSt3__24lessIiEE13stl_allocatorINS3_4pairIiiEEL18MemLabelIdentifier1ELi16EEE
o$j:__ZN15dense_hashtableINSt3__24pairIK10KeyWrapperINS1_IPK10MethodInfoP11Il2CppClassEEEjEES9_17ReflectionMapHashIS8_EN14dense_hash_mapIS9_jSD_NS9_14EqualsComparerINS0_8equal_toIS8_EEEENS0_9allocatorISB_EEE9SelectKeyESI_SK_E14squash_deletedEv
lxh:_KeyGeneratedEventHandler_Invoke_m4131555809
HBg:_String_CharCopyReverse_m1548661297
myf:_Mesh_PrintErrorCantAccessChannel_m2109128075
yxd:__ZN13RuntimeStaticI11WindManagerLb0EE13StaticDestroyEPv
KAc:__Z18Transfer_BlittableI9JSONWriteLb1EaEvRK29SerializationCommandArgumentsR31RuntimeSerializationCommandInfo
